Wb:_glClearStencil
PKe:_Array_InternalArray__ICollection_Add_TisMark_t2724874473_m1613484179_gshared
KYd:_RuntimeTypeHandle_GetObjectData_m3567098501
$Pg:__ZN6il2cpp2vm5Array13GetByteLengthEP11Il2CppArray
q_e:__Z79RuntimeInvoker_RuntimeObject_Int64_t909078037_Int64_t909078037_Int64_t909078037PFvvEPK10MethodInfoPvPS4_
Tme:_UInt64_System_IConvertible_ToDecimal_m4205696037
npa:__Z21SourceMipLevelForBlitiiii
U9a:__Z23SetSpriteMeshIndexCountP14SharedMeshDataj
aNc:_Enumerator_get_Key_m2908810861
kq:__ZN11UnityEngine9Animation28GenericAnimationBindingCacheD2Ev
$$f:_List_1_System_Collections_IList_IndexOf_m39706221_gshared
OCe:_Dictionary_2_Remove_m1849931834_gshared
EPc:_Decimal_op_Implicit_m2971610317
uRa:__Z18RestoreRenderStateR20CameraRenderOldStateR17ShaderPassContext
RIc:_SynchronizedArrayListWrapper_get_Item_m3309425850
tvb:__Z18Transfer_BlittableI18StreamedBinaryReadILb1EELb1E5RectTIfEEvRK29SerializationCommandArgumentsR31RuntimeSerializationCommandInfo
Jrb:__Z18Transfer_BlittableI24GenerateTypeTreeTransferLb0E11ColorRGBA32EvRK29SerializationCommandArgumentsR31RuntimeSerializationCommandInfo
xN:__Z25scripting_class_from_name17ScriptingImagePtrPKcS1_
FCg:__ZN14dense_hash_mapI10KeyWrapperINSt3__24pairIPK12PropertyInfoP11Il2CppClassEEEj17ReflectionMapHashIS8_ENS9_14EqualsComparerINS1_8equal_toIS8_EEEENS1_9allocatorINS2_IKS9_jEEEEE15set_deleted_keyERSH_
Dkb:__Z29scripting_class_enum_basetype17ScriptingClassPtr
s5d:_GenericTypeParameterBuilder_GetHashCode_m867619899
bje:_TimeSpan_ToString_m2947282901
Fcg:_EqualityComparer_1__cctor_m3397254040_gshared
GX:__ZNK20LocalFileSystemPosix6ParentERK13FileEntryDataRN4core12basic_stringIcNS3_20StringStorageDefaultIcEEEE
Uea:__ZN17PersistentManager22CheckInstanceIDsLoadedEPii
hna:__ZN7ApiGLES17CopyBufferSubDataEjjlll
m4a:__ZNK20ScriptPlayableOutput7GetTypeEv
D7f:_U3CCreateWhereIteratorU3Ec__Iterator1D_1_Reset_m1773515612_gshared
RIa:__ZN25CameraStackRenderingState20GetOrCreateBuiltinRTE24BuiltinRenderTextureTypeii17DepthBufferFormat19RenderTextureFormatj22RenderTextureReadWrite14VRTextureUsagei
bcg:_AesManaged_CreateEncryptor_m1729287824
vNa:__ZN17PrePassRenderLoop14RenderBasePassEP13RenderTextureRK14LightingLayersR13dynamic_arrayI16RenderObjectDataLj4EERbR10MinMaxAABB
$Fc:_Char_System_IConvertible_ToInt16_m2741348777_AdjustorThunk
O5f:_ReadOnlyCollection_1_System_Collections_Generic_IListU3CTU3E_set_Item_m1547026160_gshared
tCf:__ZL61MarshalAsAttribute_t2900773360_CustomAttributesCacheGeneratorP21CustomAttributesCache
Z_:__ZN7Texture13SetFilterModeEi
DRg:__ZN6il2cpp8metadata13GenericMethod9GetMethodEPK19Il2CppGenericMethod
op:__ZNSt3__26vectorIN4core12basic_stringIcNS1_20StringStorageDefaultIcEEEENS_9allocatorIS5_EEE7reserveEj
YRc:_Convert_ToUInt16_m2130758075
mMd:_X509BasicConstraintsExtension_Encode_m3505127076
_ha:__ZN13GfxDeviceGLES11SetViewportERK5RectTIiE
PVc:_Decimal_System_IConvertible_ToInt64_m2504363272
iBc:_Array_GetValue_m3182152438
ld:_emscripten_glDepthRange
K_d:_DESTransform_CipherFunct_m3559419566
Gne:_UIntPtr_get_Size_m537421489
XAb:__Z14resize_trimmedINSt3__26vectorIN9ShaderLab20SerializedSubProgram12UAVParameterENS0_9allocatorIS4_EEEEEvRT_j
LTd:_SerializationInfo_AddValue_m1781549036
iAd:_TlsServerKeyExchange_verifySignature_m3641534563
Noa:__ZN4crndL20crnd_default_reallocEPvjPjbS0_
UIe:_Array_BinarySearch_TisInt32_t2071877448_m51233948_gshared
k3g:__ZNSt3__212basic_stringIcNS_11char_traitsIcEENS_9allocatorIcEEEC2ERKS5_
gUd:_ProviderData_CopyFrom_m431414335
Lab:__ZN18SpriteAtlasManager19AddRequestingSpriteE4PPtrI6SpriteE
Oee:_UTF32Encoding_GetPreamble_m767706727
gNb:__Z20IsValidRealtimeLightRK15SharedLightData9LightTypej
tQa:__ZN23ScriptableRenderContextC2Ev
oPc:_DateTime_AbsoluteDays_m3061694073
Svb:__Z18Transfer_BlittableI18StreamedBinaryReadILb1EELb1EdEvRK29SerializationCommandArgumentsR31RuntimeSerializationCommandInfo
AAe:_Enumerator_System_Collections_IEnumerator_get_Current_m229223308_gshared
Mkb:__Z26BuildSerializationCacheFor17ScriptingClassPtrRb
vra:__ZN7ApiGLES15BlitFramebufferEN2gl6HandleILNS0_10ObjectTypeE9EEENS0_15FramebufferReadES3_S3_iiiiiiiiNS0_15FramebufferTypeE
u0:__ZNK16TypeTreeIterator7GetNodeEv
AIc:_FixedSizeArrayListWrapper_AddRange_m2071800418
XY:__Z9InitInputv
a4e:__Z85RuntimeInvoker_Boolean_t3825574718_Int64_t909078037_Int64_t909078037_SByte_t454417549PFvvEPK10MethodInfoPvPS4_
Hsb:__Z29Transfer_Blittable_ArrayFieldI24GenerateTypeTreeTransfer11ColorRGBA32EvRT_R9ArrayInfoRK23StaticTransferFieldInfo
eyg:__ZN6il2cpp2gc19AppendOnlyGCHashMapINSt3__24pairIPK10MethodInfoP11Il2CppClassEEP22Il2CppReflectionMethod17ReflectionMapHashIS9_ENS2_8equal_toIS9_EEE3AddERKS9_SB_
IXa:__ZN16MemoryFileSystem6DeleteER13FileEntryDatab
wca:__ZL21BlitScaleStbImageImplRK14ImageReferenceRS_NS_10ColorSpaceE
PGd:_TlsStream_set_Position_m378064217
Y9b:__Z9UpdateTplIL27ParticleSystemCurveEvalMode0EEvRK11MinMaxCurveS3_S3_R23ParticleSystemParticlesjjRKN4math8float3x3ERKNS6_7_float4E
cob:__Z29Transfer_Blittable_ArrayFieldI14SafeBinaryReadyEvRT_R9ArrayInfoRK23StaticTransferFieldInfo
Ww:__ZN20SoundChannelInstance15setChannelGroupEPN4FMOD12ChannelGroupE
Q6b:__ZN12LightsModule13AwakeFromLoadEP14ParticleSystemRK27ParticleSystemReadOnlyState
Wtc:_Evidence_Equals_m2325859915
o1d:_Default__ctor_m172834064
psf:_Component_GetComponents_m637589504
thf:_Regex_IsMatch_m2159202025
_xa:__ZNK25MultiBlocksMemoryFileData5CloneEv
gXg:_GC_add_ext_descriptor
aVd:_RemotingServices_GetMethodBaseFromName_m3271095947
i5g:dynCall_iiiiiiiiiiii
Yyc:_ASCIIEncoding_GetBytes_m3617160053
ozd:_CipherSuiteCollection_System_Collections_IList_RemoveAt_m143866082
z7:__ZN6prcoreL17RemapGenericFloatI16TexFormatRGFloat17TexFormatRGBAHalfEEvPKNS_9InnerInfoE
_r:__ZN12AudioManager22CreateFMODSoundFromWWWEP10IWWWStream15FMOD_SOUND_TYPE17FMOD_SOUND_FORMATjjbbP10SampleClip
$Kb:__ZNK32RendererMaterialAnimationBinding15GenerateBindingERKN4core12basic_stringIcNS0_20StringStorageDefaultIcEEEEbRN11UnityEngine9Animation14GenericBindingE
NM:__ZN8Remapper23GetOrGenerateInstanceIDERK26SerializedObjectIdentifier
Fdd:_StreamWriter_Flush_m3426120024
Wza:__ZN17FileSystemHandler10AtomicMoveER13FileEntryDataS1_
ibd:_MemoryStream__ctor_m1489366847
puc:_SecurityElement_IsValidTag_m64902195
DAe:_Enumerator_System_Collections_IEnumerator_get_Current_m229223308_AdjustorThunk
rbe:_PropertyInfo_SetValue_m2961483868
Seg:_UnityEvent_3_FindMethod_Impl_m1889846153_gshared
M1d:_ConstructorInfo_Invoke_m2144827141
fab:__ZN6Sprite8TransferI24GenerateTypeTreeTransferEEvRT_
iab:__ZN7SubMesh8TransferI24GenerateTypeTreeTransferEEvRT_
crg:__ZN6il2cpp6icalls8mscorlib6SystemL16CheckMemberMatchI9FieldInfoNS_5utils10functional6FilterINSt3__212basic_stringIcNS8_11char_traitsIcEENS8_9allocatorIcEEEENS5_13VmStringUtils23CaseInsensitiveComparerEEEEEbPKT_PK11Il2CppClassSN_iRKT0_
o2g:_poll
Vad:_Stream_BeginRead_m1985960185
KIb:__ZN13ProduceHelperI14Texture2DArrayLb0EE7ProduceE18MemLabelIdentifier18ObjectCreationMode
Fwd:_MD4Managed_GG_m1462438360
vTd:_SerializationInfoEnumerator_get_Value_m3437991400
TGd:_TlsStream_Seek_m3898619363
rwd:_MD4_Create_m2582504069
CLg:__ZN6il2cpp8metadata15GenericMetadata15GetGenericClassEiPK17Il2CppGenericInst
NDc:_Boolean_System_IConvertible_ToInt16_m977801621
Smb:__Z18Transfer_BlittableI14SafeBinaryReadLb0E10Matrix4x4fEvRK29SerializationCommandArgumentsR31RuntimeSerializationCommandInfo
LBa:__Z24GetFixedBehaviourManagerv
bGa:__ZN12FlareManager9UpdateJobEP25FlareManagerUpdateJobData
Hqg:__ZN6il2cpp2vm10ThreadPool4WaitEP17Il2CppAsyncResultPPv
E0g:_vfprintf
OGa:__ZN20DynamicPropertySheetD0Ev
hVa:__ZN14SafeBinaryRead17RegisterConverterEPKcS1_PFbPvRS_E
hH:__ZN35RegisterRuntimeInitializeAndCleanup8RegisterEPFvPvES2_iS0_
Ond:_DSAManaged_NormalizeArray_m2287089393
PBa:__ZN8Material26ResetAllCachedMaterialDataEP6Shader
Odg:__ZN6il2cpp6icalls8mscorlib6System7Decimal13decimal2Int64EP19il2cpp_decimal_reprPx
aa:invoke_diddi
sQc:_Double_TryParseStringConstant_m2585405703
kmb:__Z18Transfer_BlittableI14SafeBinaryReadLb0EiEvRK29SerializationCommandArgumentsR31RuntimeSerializationCommandInfo
vpg:__ZN6il2cpp2vm13MetadataCache30GetPropertyDefinitionFromIndexEi
Toc:_RijndaelTransform_Clear_m1652144089
x9c:_MonoIO_GetException_m2577367044
Rjc:__ZN22BaseUnityConnectClient17InitializeSessionERKN4core12basic_stringIcNS0_20StringStorageDefaultIcEEEES6_N19CloudServiceHandler13InitModeFlagsE
hid:_NumberFormatter_get_IsZero_m1325357749
sah:_emscripten_glDeleteBuffers__wrapper
CZc:_Enum_ToObject_m322320225
YPb:__ZN13MonoBehaviour34StopCoroutineFromEnumeratorManagedE18ScriptingObjectPtr
Csc:_X509Certificate__ctor_m3860837120
Lrf:_Camera_RaycastTry2D_m755036866
INe:_Array_Sort_TisRuntimeObject_m3674422195_gshared
mjb:__ZN30RuntimeInitializeOnLoadManager8TransferI18StreamedBinaryReadILb0EEEEvRT_
CQb:__ZL34GetComponentsImplementationRecurseILb1ELi0ELi2EEbR10GameObjectbRK17CompareParametersRK39GetComponentsImplementation_ReturnValue
HZg:__ZN6il2cpp6icalls8mscorlib6System9Threading5Mutex20CreateMutex_internalEbP12Il2CppStringPb
b6b:__ZN16CustomDataModule8TransferI19StreamedBinaryWriteILb0EEEEvRT_
iIc:_ArrayListWrapper_Remove_m1105489978
cGa:__ZNK6Camera18WorldToScreenPointERK8Vector3fPb
ULc:_HashKeys_CopyTo_m3566668422
jha:__Z18IsCompressedFormat14GraphicsFormat
hGc:_Convert_ToSByte_m2665932200
bM:__ZNSt3__227__insertion_sort_incompleteIRPFbRKN18AwakeFromLoadQueue4ItemES4_EPS2_EEbT0_S9_T_
f3d:_ILGenerator_label_fixup_m1325994348
$1g:_strrchr
zng:__ZN14dense_hash_mapI10KeyWrapperIN6il2cpp5utils13dynamic_arrayIPK10Il2CppTypeLj4EEEEPFvvENS1_8metadata19Il2CppSignatureHashENS8_14EqualsComparerINSB_22Il2CppSignatureCompareEEENSt3__29allocatorINSG_4pairIKS8_SA_EEEEE15set_deleted_keyERSJ_
I7d:_FieldInfo_GetPseudoCustomAttributes_m2500972355
h7a:__ZN26EnlightenSystemInformation8TransferI14SafeBinaryReadEEvRT_
o6b:__ZN13InitialModule5ResetEv
COe:_Array_InternalArray__get_Item_TisLink_t2723257478_m2281261655_gshared
Npf:_AudioClipPlayable_INTERNAL_CALL_GetIsPlayingInternal_m4246314919
Kdb:__ZN12MeshRendererD0Ev
XKc:_Hashtable__ctor_m2702360557
Vg:_utime
Fvg:__ZNSt3__26vectorIN6il2cpp2vm17TypeNameParseInfoENS_9allocatorIS3_EEE8allocateEj
dvd:_PrimalityTest_Invoke_m4058801829
ym:FUNCTION_TABLE_viiiiif
QUd:_RemotingConfiguration_SetCustomErrorsMode_m1844153208
Dm:FUNCTION_TABLE_viiiiii
Z$c:_CultureInfo_GetFormat_m3560116485
c6g:dynCall_viddi
U9f:_ScriptableObject_CreateInstance_m3271154163
OJe:_Array_InternalArray__IndexOf_TisResourceCacheItem_t333236149_m761772858_gshared
k4a:__ZN14PlayableOutput17SetSourcePlayableEP8Playable
kVd:_TrackingServices__cctor_m3639412334
CF:__ZN19CloudServiceHandler20StartEventDispatcherERKN11UnityEngine15CloudWebService18CloudServiceConfigERNS1_23WebRequestRestHeaderMapE
aHb:__Z13RegisterClassI16GraphicsSettingsEvv
cab:__ZN13dynamic_arrayI7SubMeshLj4EE18resize_initializedEjRKS0_12ResizePolicy
B8g:_glGetShaderInfoLog__wrapper
xh:_emscripten_glGetTexParameteriv
Axd:_RSAManaged_ImportParameters_m3060955884
URe:_ChannelData_CopyFrom_m4049054607
gHb:__Z13RegisterClassI4MeshEvv
K3a:__ZN8PlayableD0Ev
kB:__Z84Register_UnityEngine_Audio_AudioMixerPlayable_INTERNAL_CALL_SetAutoNormalizeInternalv
pt:__ZN12AudioManager8TransferI19StreamedBinaryWriteILb0EEEEvRT_
Bbd:_WriteDelegate_Invoke_m2103848735
Iwb:__ZN18StreamedBinaryReadILb1EE21TransferSTLStyleArrayI13dynamic_arrayI11ColorRGBA32Lj4EEEEvRT_17TransferMetaFlags
E3b:__ZN13dynamic_arrayIN9SubModule14SubEmitterDataELj4EE18resize_initializedEjRKS1_12ResizePolicy
wbg:_Locale_GetText_m512920887
yxb:__Z18Transfer_BlittableI18StreamedBinaryReadILb0EELb0E8Vector2fEvRK29SerializationCommandArgumentsR31RuntimeSerializationCommandInfo
yUd:_RemotingConfiguration_get_ProcessId_m3870172209
r3g:__ZNSt3__212basic_stringIcNS_11char_traitsIcEENS_9allocatorIcEEE21__grow_by_and_replaceEjjjjjjPKc
C3c:_SortKey_ToString_m2406913228
YX:__ZN22LocalFileSystemHandler9MakeLocalER13FileEntryDatab
lTg:__ZN6il2cpp2vm8Profiler10AllocationEP12Il2CppObjectP11Il2CppClass
zPc:_Convert_ToDateTime_m1020507389
JV:__Z13FormatOrderedPKcz
v9c:_Path_IsPathRooted_m1347207448
wWd:_ObjectManager_RegisterObjectInternal_m879109503
Wea:__ZNSt3__26__sortIRNS_4lessIiEEPiEEvT0_S5_T_
DHb:__Z13RegisterClassI15QualitySettingsEvv
URg:__ZN6il2cpp2vm6String21InitializeEmptyStringEP11Il2CppClass
kNa:__ZN25DeferredRenderLoopScratchD0Ev
FAb:__ZN15dense_hashtableINSt3__24pairIKiN4core17string_with_labelILi1EEEEEi18SInt32HashFunctionN14dense_hash_mapIiS5_S7_NS0_8equal_toIiEE13stl_allocatorIS6_L18MemLabelIdentifier1ELi16EEE9SelectKeyESA_SD_E9copy_fromERKSG_j
y1:__ZN6Camera11ResetAspectEv
Eke:_Type_get_IsGenericType_m3396841573
jFa:__ZNSt3__227__insertion_sort_incompleteIRPFbP10GUIElementS2_EPS2_EEbT0_S7_T_
oMd:_X509BasicConstraintsExtension_get_HasPathLengthConstraint_m3788532759
V2a:__ZNK17InstancedPropInfo22FillInstancePropertiesER19ShaderPropertySheetjPK17BatchInstanceDatajRK15RenderNodeQueue
Z2:__ZN22CreateGpuProgramOutputD2Ev
sIg:__ZN6il2cpp6icalls8mscorlib6System2IO6MonoIO9SetLengthE12Il2CppIntPtrxPi
zz:__ZN13ProduceHelperI13AudioListenerLb0EE7ProduceE18MemLabelIdentifier18ObjectCreationMode
l0c:_DateTimeFormatInfo_GetInstance_m3133223810
xud:_ModulusRing_BarrettReduction_m2802101099
Bya:__ZN12HandlerChain4OpenER13FileEntryData14FilePermission16FileAutoBehavior
iyg:__ZN15dense_hashtableINSt3__24pairIK10KeyWrapperINS1_IPK10MethodInfoP11Il2CppClassEEEjEES9_17ReflectionMapHashIS8_EN14dense_hash_mapIS9_jSD_NS9_14EqualsComparerINS0_8equal_toIS8_EEEENS0_9allocatorISB_EEE9SelectKeyESI_SK_E6insertERKSB_
y9:__ZN18AssetBundleManager55CollectPreloadObjectsFromAssetBundleLoadAssetOperationsER13dynamic_arrayIiLj4EE
RO:__ZN14FileCacherReadD2Ev
nea:__ZN13RendererScene23UpdatePreviousFrameDataEii
wqc:_RSAPKCS1SignatureDeformatter_VerifySignature_m1825067195
VSb:__Z50Register_UnityEngine_CullingGroup_FinalizerFailurev
Y_f:_KeyValuePair_2_ToString_m2613351884_gshared
g9:__ZN27UnloadUnusedAssetsOperationD0Ev
n1a:__ZN6Camera15ThreadedCleanupEv
g5f:_Collection_1_System_Collections_IList_IndexOf_m1667133881_gshared
oIg:__ZN6il2cpp6icalls8mscorlib6System2IO6MonoIO9GetLengthE12Il2CppIntPtrPi
$qc:_SHA256Managed_HashCore_m4111458495
P$c:_CultureInfo_get_CompareInfo_m3085280862
xXd:_ObjectManager_RecordDelayedFixup_m1895730844
rr:__ZN9AudioClip23VirtualRedirectTransferER18StreamedBinaryReadILb0EE
OAd:_ClientSessionInfo_CheckDisposed_m1394638186
zZd:_SByte_Parse_m2544167007
fwc:_Single_CompareTo_m2081476257
bld:_BigInteger__ctor_m2945783161
yCd:_TlsClientHello_Update_m1723542631
H4c:_IndexOutOfRangeException__ctor_m3497760912
Wi:_glCopyTexSubImage2D
qUd:_RealProxy_InternalGetTransparentProxy_m3415358600
p9b:__ZNK21RotationBySpeedModule6UpdateERK27ParticleSystemReadOnlyStateRK19ParticleSystemStateR23ParticleSystemParticlesRKN4math7_float4Ejj
O4f:_Collection_1_Insert_m3594407958_gshared
TW:__ZN18ScreenManagerWebGL13SetShowCursorEb
jTg:__ZN6il2cpp6icalls8mscorlib6System7Convert24InternalFromBase64StringEP12Il2CppStringb
csc:_SymmetricAlgorithm_CreateDecryptor_m4240570785
P0g:_frexp
Qmb:__Z18Transfer_BlittableI14SafeBinaryReadLb0E5RectTIfEEvRK29SerializationCommandArgumentsR31RuntimeSerializationCommandInfo
J0g:_fmt_u
r0c:_DateTimeFormatInfo_GetFormat_m3676195179
Cna:__ZN14GfxContextGLES14GetFramebufferEv
Jah:_emscripten_glGenVertexArrays__wrapper
k6:__ZN6prcoreL21CreateRemapAnyBlitterE13TextureFormatS0_
$Ob:__ZN17AnimationCurveTplIfE16StripInvalidKeysEv
qKe:_Array_InternalArray__ICollection_Add_TisKeyValuePair_2_t3716250094_m2381539361_gshared
msd:_X509Extension_WriteLine_m2850991173
SFb:__ZL12HashLen0to16PKcj
bug:_il2cpp_method_has_attribute
TMb:__Z13RegisterClassI17GlobalGameManagerEvv
RPa:__ZN8Renderer24SetupNewRendererForSceneEv
mHe:_Array_InternalArray__ICollection_Remove_TisInt64_t909078037_m2653583130_gshared
Yfe:_Thread_get_ExecutionContext_m922067206
GZb:__Z35Transfer_Blittable_FixedBufferFieldI8JSONReadtEvRK29SerializationCommandArgumentsR31RuntimeSerializationCommandInfo
yNb:__ZN14PlayableOutput6HandleEv
C9a:__ZNK6Sprite22GetTypeVirtualInternalEv
xm:FUNCTION_TABLE_iiiiiiiiiiiiii
E7e:__Z100RuntimeInvoker_Void_t1841601450_SByte_t454417549_SByte_t454417549_Int32_t2071877448_SByte_t454417549PFvvEPK10MethodInfoPvPS4_
rTa:__ZN16ReflectionProbes8ScheduleEN18ReflectionProbeJob7JobTypeEP15ReflectionProbei
Gbc:__Z19CalculateVertexDataI11ColorRGBA32EvRK14StrideIteratorI8Vector3fES5_RKS1_IT_EbPK16MeshTriangleDataRKN4math5_int4ESG_P12SkinMeshInfoRNSD_8floatNx3ESK_RNSD_4pix4E
nY:__Z18IsDirectoryCreatedRKN4core12basic_stringIcNS_20StringStorageDefaultIcEEEE
afc:__ZZN14ParticleSystem15InitializeClassEvEN52PreLateUpdateParticleSystemBeginUpdateAllRegistrator7ForwardEv
zLd:_X509KeyUsageExtension_ToString_m1992050580
DRe:_ConstructionCall__ctor_m1143766850
IWd:_ObjectReader_ReadArrayOfString_m3752210963
Kxf:_PlayableHandle_IsValid_m1005197654_AdjustorThunk
l9f:_Rect_Equals_m3806390726
pbd:_FileStream_Seek_m950719389
KPc:_Decimal_stripStyles_m294582157
tha:__ZN9GfxDevice20SetMaxBufferedFramesEi
u5g:dynCall_vdd
CWa:__Z23ConvertIntegerToTypePtrIsEbPvR14SafeBinaryRead
q2e:__Z96RuntimeInvoker_Void_t1841601450_SByte_t454417549_RuntimeObject_SByte_t454417549_SByte_t454417549PFvvEPK10MethodInfoPvPS4_
EIc:_FixedSizeArrayListWrapper_Remove_m1359458911
s6:__ZN6prcoreL29inner_stretch_rgb565_bilinearEPKNS_9InnerInfoE
Cjf:_Uri__ctor_m3927533881
M7b:__Z13UpdateSizeTplIL27ParticleSystemCurveEvalMode3EEvRK11MinMaxCurveR23ParticleSystemParticlesbjj
o$g:__ZN6il2cpp8metadata19Il2CppSignatureHash4HashERKNS_5utils13dynamic_arrayIPK10Il2CppTypeLj4EEE
rMa:__ZNK14RenderSettings19GetFlatAmbientColorEv
Aca:__ZN6prcoreL10inner_flipILj4EEEvPhS1_j
Ngb:__ZN18StreamedBinaryReadILb0EE21TransferSTLStyleArrayI10vector_mapIPKN5Unity4TypeE7Hash128NSt3__24lessIS6_EENS8_9allocatorINS8_4pairIS6_S7_EEEEEEEvRT_17TransferMetaFlags
kyc:_String_Concat_m56707527
y6e:__Z56RuntimeInvoker_TimeSpan_t3430258949_TimeSpan_t3430258949PFvvEPK10MethodInfoPvPS4_
vbb:__ZN14Texture2DArray17UploadToGfxDeviceEv
Wu:__Z14FMODMemoryFreePvjPKc
xUc:_DateTimeOffset__ctor_m1796624924
cHe:_Array_InternalArray__ICollection_Remove_TisKeyValuePair_2_t3716250094_m2566517826_gshared
Sig:__ZN6il2cpp2vmL15GetBitmapNoInitEP11Il2CppClassPjRjj
oXg:_GC_is_heap_ptr
cGg:__GLOBAL__sub_I_Assembly_cpp
Al:_emscripten_glIsTexture
lIc:_ArrayListWrapper_CopyTo_m793444109
fk:_emscripten_glHint
QTc:_DateTime_AddMilliseconds_m1813199744_AdjustorThunk
EUb:__Z65PlayableOutputHandle_CUSTOM_INTERNAL_CALL_GetPlayableOutputTypeOfR15HPlayableOutput
NOd:_X509ChainStatus_t4278378721_marshal_pinvoke
qxd:_RSAManaged__ctor_m1680944437
Dl:_SDL_UpperBlit
ZMa:__Z35GetTextureDecodeValuesWithIntensity16TextureUsageMode17TextureColorSpace10ColorSpacef
tFc:_Byte_GetHashCode_m2885528842_AdjustorThunk
yCg:__ZN15dense_hashtableINSt3__24pairIK10KeyWrapperINS1_IPK9EventInfoP11Il2CppClassEEEjEES9_17ReflectionMapHashIS8_EN14dense_hash_mapIS9_jSD_NS9_14EqualsComparerINS0_8equal_toIS8_EEEENS0_9allocatorISB_EEE9SelectKeyESI_SK_E15set_deleted_keyERKSB_
aNg:__ZNK6il2cpp2os6Socket12GetLastErrorEv
ekb:__ZN14SafeBinaryRead20OverrideRootTypeNameEPKc
VO:__ZN14FileCacherRead16UnlockCacheBlockEj
qrd:_X509Certificate_GetUnsignedBigInteger_m3491353542
gc:_emscripten_glUniform1f
Kya:__ZNK12HandlerChain4SizeERK13FileEntryData
lc:_emscripten_glUniform1i
Yjb:__ZN13MonoBehaviour9CallAwakeEv
fCb:__ZN9ShaderLab16SerializedTagMapaSERKS0_
XC:__ZN11UnityEngine15CloudWebService16SessionContainer20RestoreSessionHeaderERKN4core12basic_stringIcNS2_20StringStorageDefaultIcEEEES8_RNS0_13SessionHeaderE
lUc:_DateTime_ToString_m1117481977
k5d:_GenericTypeParameterBuilder_GetGenericArguments_m277381309
Lib:__ZN14SafeBinaryRead21TransferSTLStyleArrayINSt3__26vectorIN30RuntimeInitializeOnLoadManager9ClassInfoE13stl_allocatorIS4_L18MemLabelIdentifier12ELi16EEEEEEvRT_17TransferMetaFlags
y_d:_DES_IsSemiWeakKey_m3967392585
kN:__ZN14MessageHandler3GetEv
zc:_emscripten_glAttachShader
sha:__ZN9GfxDevice13SetActiveTierE12GraphicsTier
vfb:__ZNSt3__26vectorIN4core12basic_stringIcNS1_20StringStorageDefaultIcEEEENS_9allocatorIS5_EEE6assignIPS5_EENS_9enable_ifIXaasr21__is_forward_iteratorIT_EE5valuesr16is_constructibleIS5_NS_15iterator_traitsISC_E9referenceEEE5valueEvE4typeESC_SC_
god:_KeyPairPersistence_get_UserPath_m3433052783
Fzf:__ZL58Decimal_t724701077_CustomAttributesCacheGenerator_MinusOneP21CustomAttributesCache
zmb:__Z18Transfer_BlittableI14SafeBinaryReadLb0E11QuaternionfEvRK29SerializationCommandArgumentsR31RuntimeSerializationCommandInfo
_xb:__Z18Transfer_BlittableI18StreamedBinaryReadILb0EELb1E12PropertyNameEvRK29SerializationCommandArgumentsR31RuntimeSerializationCommandInfo
SH:_tlsf_walk_heap
Qqd:_PKCS12_Decode_m731190390
jwe:_InternalEnumerator_1_get_Current_m1550231132_gshared
Za:invoke_vif
_a:invoke_vid
B3g:__ZNSt3__212basic_stringIcNS_11char_traitsIcEENS_9allocatorIcEEE6insertEjPKc
$a:invoke_vii
PYa:__ZN12TLSAllocatorI14StackAllocatorE16ThreadInitializeEP13BaseAllocator
KHc:_ArrayList_Sort_m2778059513
hwd:_MD2_Create_m539024737
G8e:__Z112RuntimeInvoker_Void_t1841601450_RuntimeObject_Int32_t2071877448_Int32_t2071877448_RuntimeObject_SByte_t454417549PFvvEPK10MethodInfoPvPS4_
oya:__ZN25SingleBlockMemoryFileDataD0Ev
N_a:__ZNSt3__26vectorI14ConstantStringNS_9allocatorIS1_EEE6assignINS_11__wrap_iterIPS1_EEEENS_9enable_ifIXaasr21__is_forward_iteratorIT_EE5valuesr16is_constructibleIS1_NS_15iterator_traitsISA_E9referenceEEE5valueEvE4typeESA_SA_
oVg:_GC_make_disappearing_links_disappear
SC:__ZN11UnityEngine15CloudWebService16SessionContainer21ConvertFromFolderTimeERKN4core12basic_stringIcNS2_20StringStorageDefaultIcEEEEPjPt
Vnb:__ZNSt3__26vectorI8GUIStyle13stl_allocatorIS1_L18MemLabelIdentifier1ELi16EEE7reserveEj
_Fg:__ZN6il2cpp6icalls8mscorlib6System9Threading6Thread27GetSerializedCurrentCultureEP12Il2CppThread
XJe:_Array_InternalArray__IndexOf_TisUInt32_t2149682021_m3231515987_gshared
DIb:__Z31CalculateHierarchyTransformType23TransformAccessReadOnly
wHb:__Z13RegisterClassI11TimeManagerEvv
Mu:__ZN4FMOD8ChannelI11setPositionEjj
h1e:__Z136RuntimeInvoker_IntPtr_t_RuntimeObject_Int32_t2071877448_Int32_t2071877448_Int32_t2071877448_Int32_t2071877448_MonoIOErrorU26_t1029615899PFvvEPK10MethodInfoPvPS4_
Esf:_Component_SendMessage_m913946877
jVg:_GC_set_fl_marks
KU:__ZN17BaseObjectManager13StaticDestroyEPv
_Uc:_DBNull_System_IConvertible_ToChar_m3344298044
bsd:_X509Certificate_GetObjectData_m3888130484
fib:__ZNSt3__26vectorIN15ResourceManager10DependencyE13stl_allocatorIS2_L18MemLabelIdentifier51ELi16EEEC2INS_11__wrap_iterIPS2_EEEET_SB_RKS5_PNS_9enable_ifIXaasr21__is_forward_iteratorISB_EE5valuesr16is_constructibleIS2_NS_15iterator_traitsISB_E9referenceEEE5valueEvE4typeE
QRd:_LinkStack_Push_m2660199875
Gt:__ZN4FMOD6Reverb13setPropertiesEPK22FMOD_REVERB_PROPERTIES
wHa:__ZN9DepthPass13PrepareSubsetEjRK10RenderNodeifRK17ShaderReplaceData
Klf:_X509CertificateCollection_Add_m4008705157
hp:__ZN4core20StringStorageDefaultIcE6assignEPKcj
CMg:__ZN15dense_hashtableINSt3__24pairIK10KeyWrapperIP12Il2CppObjectEN6il2cpp2gc9CachedCCWEEES5_NS7_5utils11PointerHashIS3_EEN14dense_hash_mapIS5_S9_SD_NS5_14EqualsComparerINS0_8equal_toIS4_EEEENS0_9allocatorISA_EEE9SelectKeyESI_SK_E3endEv
Oib:__Z14resize_trimmedINSt3__26vectorIi13stl_allocatorIiL18MemLabelIdentifier12ELi16EEEEEvRT_j
qDg:__ZN15dense_hashtableINSt3__24pairIK10KeyWrapperINS1_IP11Il2CppClassjEEES4_EES6_N6il2cpp8metadata14ArrayClassHashEN14dense_hash_mapIS6_S4_SB_NS6_14EqualsComparerINSA_17ArrayClassCompareEEENS0_9allocatorIS8_EEE9SelectKeyESF_SH_E9copy_fromERKSK_j
JIc:_ReadOnlyArrayListWrapper_set_Item_m2199017141
fRa:__ZN6Camera6SetFarEf
Flf:_DeriveBytes_DeriveIV_m3343375195
Usc:_X509Certificate_ToString_m1582581274
Jpc:_RNGCryptoServiceProvider_GetBytes_m167497991
a7:__ZN6prcoreL12RemapGenericI17TexFormatABGR888817TexFormatARGB8888EEvPKNS_9InnerInfoE
i$a:__ZN11GameManager17MainThreadCleanupEv
l3d:_TypeBuilder_get_Assembly_m492491492
_6b:__ZN14ParticleSystem10ResetSeedsEv
vBa:__ZZ23InitPlayerLoopCallbacksvEN41PostLateUpdateUpdateResolutionRegistrator7ForwardEv
unc:_HMACSHA512__cctor_m1167457383
pzb:__Z25scripting_array_class_get17ScriptingClassPtrj
TXb:__ZL22Transfer_ManagedObjectI9JSONWriteLb1EEvRK29SerializationCommandArgumentsR31RuntimeSerializationCommandInfo
$q:__ZNK10SampleClip22GetTypeVirtualInternalEv
Pia:__ZN9GfxDevice20DestroyRenderSurfaceER12ObjectHandleI17RenderSurface_TagP17RenderSurfaceBaseE
zV:__ZN18SpriteAtlasManagerC2Ev
dwa:__ZN9GfxDevice22UpdateComputeResourcesEjPK9TextureIDPK16TextureDimensionPKijPKjjPK15ComputeBufferIDS7_PK20ComputeBufferCounterjSC_S2_S5_S9_SF_
QYa:__ZN12TLSAllocatorI14StackAllocatorE13ThreadCleanupEv
iJe:_Array_IndexOf_TisRuntimeObject_m1815604637_gshared
USg:__ZThn4_N6il2cpp2vm13ComObjectBase16MarshalInterfaceEP13Il2CppIStreamRK10Il2CppGuidPvjS7_j
icb:__ZN4Mesh27SwizzleVertexColorsIfNeededEb
wZa:__Z27FindActiveTransformWithPathPKc
F$:__ZN7Texture5ResetEv
vsd:_SecurityParser_OnEndElement_m2909940377
sJa:__ZNK6Camera7GetNearEv
Uqa:__ZN7ApiGLES11UnmapBufferEjN2gl12BufferTargetE
dTg:__ZN6il2cpp5utilsL24Utf32CharToSurrogatePairEjRA2_Ds
Z5a:__Z25GetNextAllowedTextureSizeib13TextureFormat
VX:__ZN20LocalFileSystemWebGL4CopyER13FileEntryDataS1_
rF:__ZN19CloudServiceHandler6RetainEv
wuc:_StrongName_Equals_m67226644
B0a:__ZN12BaseRenderer20FlattenToRenderQueueER15RenderNodeQueueRK20DeprecatedSourceData
afd:_UnmanagedMemoryStream_get_Length_m587008850
H9:__Z34scripting_liveness_calculation_endPv
IOg:__ZN6il2cpp2os6ThreadC2Ev
lvc:_SecurityFrame_InitFromRuntimeFrame_m45195821
CNd:_X509Chain_IsSignedWith_m292245392
hHe:_Array_InternalArray__ICollection_Remove_TisDateTime_t693205669_m1275668216_gshared
oZb:__Z18Transfer_BlittableI8JSONReadLb0E8Vector3fEvRK29SerializationCommandArgumentsR31RuntimeSerializationCommandInfo
YRe:_ChannelServices__cctor_m3534779830
TEg:__ZN6il2cpp2vm6Thread6DetachEP12Il2CppThread
CQc:_Convert_ToInt16_m416789348
Szc:_EncoderExceptionFallback_Equals_m762170768
G4f:_Collection_1_System_Collections_IList_set_Item_m3488446830_gshared
uPg:__ZN6il2cpp2os10ThreadImpl5SleepEjb
jah:_glBindSampler__wrapper
Vdg:_UnityAction_1_Invoke_m3523417209_gshared
cf:_emscripten_set_mouseup_callback
cX:__ZNK18ScreenManagerWebGL8GetWidthEv
Yq:__ZN10SampleClipD2Ev
EUe:_SynchronizationAttribute_EnterContext_m2984912761
$$c:_CultureInfo_construct_internal_locale_from_name_m971766383
bF:__ZN11UnityEngine15CloudWebService20WebRequestRestClientC2Ev
rZc:_Enum_ToObject_m2460371738
_ld:_PrimalityTests_Test_m1088386156
c2g:_readlink
aAg:__ZN15dense_hashtableINSt3__24pairIK10KeyWrapperINS1_IPK9EventInfoP11Il2CppClassEEEjEES9_17ReflectionMapHashIS8_EN14dense_hash_mapIS9_jSD_NS9_14EqualsComparerINS0_8equal_toIS8_EEEENS0_9allocatorISB_EEE9SelectKeyESI_SK_E12resize_deltaEjj
Ase:_InternalEnumerator_1_System_Collections_IEnumerator_get_Current_m4259662004_AdjustorThunk
dPe:_Array_InternalArray__get_Item_TisKeyframe_t1449471340_m1003508933_gshared
w8b:__ZN14ParticleSystem38UpdateModulesPostSimulationIncrementalER24ParticleSystemUpdateDataR23ParticleSystemParticlesjRKf
z4e:__Z50RuntimeInvoker_Double_t4078015681_Int64_t909078037PFvvEPK10MethodInfoPvPS4_
Kqd:_StrongName_get_PublicKeyToken_m1968460885
lfb:__ZNK6Sprite9GetBoundsE8Vector2fbb
lDa:__ZNK19RenderEventsContext21CleanupCommandBuffersEv
$la:__ZN11ContextGLES6CreateEi
F8c:_BinaryReader_Dispose_m4249456877
HPc:_Double_ToString_m1085043609
Qyb:__Z19TransferField_ArrayI18StreamedBinaryReadILb0EE27Converter_SimpleNativeClassI17AnimationCurveTplIfEEEvRK23StaticTransferFieldInfoR31RuntimeSerializationCommandInfoRT0_
Lyd:_CipherSuite_createEncryptionCipher_m1926075645
BYa:__ZN14StackAllocator16FrameMaintenanceEb
a$a:__Z18ReadStringFromFilePN4core17string_with_labelILi1EEERKNS_12basic_stringIcNS_20StringStorageDefaultIcEEEE
HJ:__ZNK10GameObject20QueryComponentByTypeEPKN5Unity4TypeE
z6d:_OpCode_GetHashCode_m2974727122
Myd:_CipherSuite_createDecryptionCipher_m1118350455
Hff:_PatternCompiler_EmitReference_m1381860071
hYc:_Double_System_IConvertible_ToInt16_m4200640326
vda:__ZN11TextureData5ResetEv
dL:__ZL30InitializeCoreScriptingClassesv
_f:_glBlitFramebuffer
gmd:_BigInteger_GeneratePseudoPrime_m2606361440
spb:__Z35Transfer_Blittable_SingleValueFieldI14SafeBinaryReadhEvRT_R17GeneralMonoObjectRK23StaticTransferFieldInfo
Vkc:__ZN22BaseUnityConnectClientC2ERN11UnityEngine7Connect20BasePersistentValuesE
LSd:_RemotingServices_GetRealProxy_m620317996
MHa:__ZN13dynamic_arrayI11CulledLightLj4EE6insertEPS0_PKS0_S4_
L4a:__ZNK12CubemapArray22GetTypeVirtualInternalEv
mpg:__ZN6il2cpp2vm13MetadataCache23GetInterfaceOffsetIndexEi
Sm:FUNCTION_TABLE_vif
Tm:FUNCTION_TABLE_vid
Um:FUNCTION_TABLE_vii
V9:__Z40scripting_liveness_calculation_from_root18ScriptingObjectPtrPv
ycc:__ZN13InitialModuleD2Ev
d2:__ZN7Texture23VirtualRedirectTransferER24GenerateTypeTreeTransfer
QLg:__ZN6il2cpp8metadata15GenericMetadata20RegisterGenericClassEP18Il2CppGenericClass
e8e:__Z101RuntimeInvoker_OpFlags_t378191910_SByte_t454417549_SByte_t454417549_SByte_t454417549_SByte_t454417549PFvvEPK10MethodInfoPvPS4_
Q9g:_glDeleteFramebuffers__wrapper
kud:_BigInteger_ModInverse_m1881894572
usg:__ZN6il2cpp2vm7Runtime17GetDelegateInvokeEP11Il2CppClass
j7a:__ZN28EnlightenRendererInformation8TransferI14SafeBinaryReadEEvRT_
L6e:__Z88RuntimeInvoker_RuntimeObject_RuntimeObject_Int32_t2071877448_RuntimeObject_RuntimeObjectPFvvEPK10MethodInfoPvPS4_
iHf:__ZL69DefaultDependencyAttribute_t3858269114_CustomAttributesCacheGeneratorP21CustomAttributesCache
Wwa:__ZNK15Lz4Decompressor16DecompressMemoryEPKvPjPvS2_
Z8f:_Ray_ToString_m2019179238
Qg:_glGetAttribLocation
e5:__Z35UnityPropertySheet_MakeSortedColorsRKNSt3__23mapIN9ShaderLab16FastPropertyNameE10ColorRGBAfNS_4lessIS2_EENS_9allocatorINS_4pairIKS2_S3_EEEEEER10vector_mapIS2_S3_S5_NS6_INS7_IS2_S3_EEEEE
zVc:_Decimal_System_IConvertible_ToType_m3828527724_AdjustorThunk
$vd:_HMAC_get_Key_m2528863640
Vob:__Z29Transfer_Blittable_ArrayFieldI14SafeBinaryRead8Vector4fEvRT_R9ArrayInfoRK23StaticTransferFieldInfo
mBa:__ZZ23InitPlayerLoopCallbacksvEN51PostLateUpdateUpdateCustomRenderTexturesRegistrator7ForwardEv
q8g:_glClientWaitSync__wrapper
LVc:_Decimal_System_IConvertible_ToInt16_m3159038792
M9d:_MonoMethodInfo_GetReturnType_m2864247130
CPa:__ZN13RenderManager29SetCurrentCameraAndStackStateEP6CameraP25CameraStackRenderingState
FEg:__ZN15dense_hashtableINSt3__24pairIK10KeyWrapperINS1_IP11Il2CppClassjEEES4_EES6_N6il2cpp8metadata14ArrayClassHashEN14dense_hash_mapIS6_S4_SB_NS6_14EqualsComparerINSA_17ArrayClassCompareEEENS0_9allocatorIS8_EEE9SelectKeyESF_SH_E12resize_deltaEjj
mh:_JS_WebRequest_Release
S9c:_DirectoryNotFoundException__ctor_m2242202556
qD:__ZN11UnityEngine15CloudWebService14DataErrorEventD0Ev
Eyc:_String_CreateString_m2448464375
fPd:_X509SubjectKeyIdentifierExtension__ctor_m2959112706
zze:_Enumerator_Reset_m1147555085_AdjustorThunk
B7d:_FieldInfo_get_IsNotSerialized_m2322769148
q6b:__ZN14EmissionModule5ResetEv
MLg:__ZN6il2cpp8metadata15GenericMetadata7InflateEPK19Il2CppGenericMethodPK20Il2CppGenericContext
uCa:__ZN19ShaderPropertySheet16SetArrayPropertyEN9ShaderLab16FastPropertyNameENS_12PropertyTypeEPKvj
F9d:_MonoGenericCMethod_get_ReflectedType_m2689239043
nve:_InternalEnumerator_1_get_Current_m4083613828_gshared
wee:_UnicodeEncoding_GetString_m542738941
r9c:_Path_InsecureGetFullPath_m2635272425
vTc:_DateTime_System_IConvertible_ToUInt32_m1363211018
vYd:_RuntimeMethodHandle__ctor_m1162528746
Aoa:__ZN7Texture21GetMasterTextureLimitEv
jSa:__Z12CanAddScriptR10GameObject17ScriptingClassPtrPS1_S2_
$Cg:__ZN6il2cpp2vm10Reflection12HasAttributeEP12Il2CppObjectP11Il2CppClass
A$b:__ZN8JSONRead21TransferSTLStyleArrayI13dynamic_arrayI4AABBLj4EEEEvRT_18MemLabelIdentifier17TransferMetaFlags
QJ:__ZN9ShaderLabL25StaticInitializeShaderLabEPv
U:Math_max
htg:_il2cpp_class_get_methods
u9c:_Path_CanonicalizePath_m383914732
PHc:_ArrayList_Synchronized_m2395071980
QOg:__ZN6il2cpp2os6Thread16GetCurrentThreadEv
WMb:__ZN10GameObject13ComponentPair15SetComponentPtrEPN5Unity9ComponentE
Wed:_UnexceptionalStreamWriter_Write_m3206913035
hHb:__Z13RegisterClassI10MeshFilterEvv
g0a:__ZN10TagManager8TransferI19StreamedBinaryWriteILb0EEEEvRT_
Elb:__ZN11PreloadData23VirtualRedirectTransferER18StreamedBinaryReadILb0EE
N_d:_DESTransform_ProcessBlock_m2826669227
m5c:_Int16_CompareTo_m3493496879
A9a:__ZN6Sprite17MainThreadCleanupEv
aw:__ZN10AudioMixer14UpdateMuteSoloEv
JGg:__ZN6il2cpp2vm9Exception27RaiseNullReferenceExceptionEv
R2:__ZN9ShaderLab10SubProgram7CompileEv
Ana:__ZN7ApiGLES16SetPatchVerticesEi
scd:_MonoIOStat_t1621921065_marshal_pinvoke
uAa:__ZN10MemoryFileC2E18MemLabelIdentifierP14MemoryFileData14FilePermission
TTd:_TrackingServices_NotifyUnmarshaledObject_m1794048369
nig:__ZN6il2cpp2vm5Class20FromGenericParameterEPK22Il2CppGenericParameter
QF:__ZN19CloudServiceHandler11FlushEventsEv
kU:__ZN15GlobalCallbacksC2Ev
$Me:_Array_InternalArray__set_Item_TisLabelFixup_t4090909514_m565370771_gshared
ouc:__Z15CastclassSealedP12Il2CppObjectP11Il2CppClass
EQa:__ZN16ReflectionProbes40UpdateRealtimeReflectionProbesTimeslicedEv
Cib:__ZNK30RuntimeInitializeOnLoadManager22GetTypeVirtualInternalEv
Umg:__ZN15dense_hashtableINSt3__24pairIK10KeyWrapperIN6il2cpp5utils13dynamic_arrayIPK10Il2CppTypeLj4EEEEPFvvEEESA_NS3_8metadata19Il2CppSignatureHashEN14dense_hash_mapISA_SD_SG_NSA_14EqualsComparerINSF_22Il2CppSignatureCompareEEENS0_9allocatorISE_EEE9SelectKeyESK_SM_E12resize_deltaEjj
EKb:__ZN16ReflectionProbes15InitializeClassEv
rYg:__ZN6il2cpp5utils5MatchENSt3__212basic_stringIcNS1_11char_traitsIcEENS1_9allocatorIcEEEEjRKS7_j
jff:_MRUList_Evict_m2430323183
MOe:_Array_InternalArray__get_Item_TisRuntimeObject_m371871810_gshared
VNg:__ZN6il2cpp2vm11MethodStack17GetStackFramesRawEv
RDd:_RecordProtocol_ProcessChangeCipherSpec_m3233959862
$rf:_Component_GetComponent_m4225719715
tUb:__Z75Register_UnityEngine_Playables_PlayableHandle_INTERNAL_CALL_SetTimeInternalv
Eed:_TextWriter_Write_m576684782
jj:_glIsVertexArray
fjb:__ZNSt3__26vectorIN4core12basic_stringIcNS1_20StringStorageDefaultIcEEEE13stl_allocatorIS5_L18MemLabelIdentifier12ELi16EEEC2INS_11__wrap_iterIPS5_EEEET_SE_RKS8_PNS_9enable_ifIXaasr21__is_forward_iteratorISE_EE5valuesr16is_constructibleIS5_NS_15iterator_traitsISE_E9referenceEEE5valueEvE4typeE
Dxa:__ZN25SingleBlockMemoryFileDataC2E18MemLabelIdentifierPvjb
ea:invoke_fff
gDd:_TlsServerHello_Update_m1740270635
K6:__ZN6prcoreL12RemapGenericI17TexFormatARGB155517TexFormatRGBA8888EEvPKNS_9InnerInfoE
fkg:__ZN13Il2CppHashMapIPK19Il2CppGenericMethodPK26Il2CppGenericMethodIndicesN6il2cpp8metadata23Il2CppGenericMethodHashENS7_26Il2CppGenericMethodCompareENSt3__29allocatorINSA_4pairIK10KeyWrapperIS2_ES5_EEEEEC2EjRKS8_RKS9_
_ef:_MatchCollection_get_Item_m2609281578
uua:__ZN7ApiGLES13CreateProgramEv
$1a:__ZN11HaloManager7AddHaloEv
qfe:_UTF8Encoding__ctor_m100325490
Moa:__ZN4crnd12crn_unpackerD2Ev
vj:_emscripten_glTexImage2D
jSd:_ObjRefSurrogate_SetObjectData_m1873902916
VK:__ZN18ScriptingArguments9AddStringEPKc
sWg:_setup_header
C4g:runPostSets
Gca:__ZL23stbir__resize_arbitraryPvPKviiiS_iiiffffPfiij14stbir_datatype12stbir_filterS4_10stbir_edgeS5_16stbir_colorspace
X6b:__ZN23ParticleSystemParticles13array_reserveEj
Erb:__Z18Transfer_BlittableI24GenerateTypeTreeTransferLb1E8Vector4fEvRK29SerializationCommandArgumentsR31RuntimeSerializationCommandInfo
M5c:_Int16_ToString_m3971652088_AdjustorThunk
Gj:_pthread_detach
Tpg:__ZN6il2cpp2vm19SocketPollingThread7RunLoopEv
$Od:_X509ExtensionEnumerator_Reset_m3200687545
nWe:_MethodDictionary_AllocInternalProperties_m3261295876
Cfa:__ZNSt3__213__stable_sortIRN10vector_mapI17ScriptingClassPtrPKN5Unity4TypeENS_4lessIS2_EENS_9allocatorINS_4pairIS2_S6_EEEEE13value_compareENS_11__wrap_iterIPSB_EEEEvT0_SJ_T_NS_15iterator_traitsISJ_E15difference_typeEPNSM_10value_typeEi
TCb:__ZN9ShaderLab25SerializedTextureProperty8TransferI24GenerateTypeTreeTransferEEvRT_
oeh:_emscripten_glIsShader__wrapper
TAg:__ZN6il2cpp2gc19AppendOnlyGCHashMapINSt3__24pairIPK14Il2CppAssemblyP11Il2CppClassEEP24Il2CppReflectionAssembly17ReflectionMapHashIS9_ENS2_8equal_toIS9_EEEC2Ev
CXd:_DelegatePInvokeWrapper_CallbackHandler_t362827733
e_b:__Z18Transfer_BlittableI8JSONReadLb1EyEvRK29SerializationCommandArgumentsR31RuntimeSerializationCommandInfo
bk:_emscripten_glMatrixMode
GF:__ZN19CloudServiceHandler19StopEventDispatcherEv
Gad:_NotSupportedException__ctor_m836173213
VRd:_MethodReturnDictionary__ctor_m756139344
MC:__ZN11UnityEngine15CloudWebService14DataDispatcher16PrepareDataBlockERNS0_16SessionContainerE
Lua:__ZN18GfxFramebufferGLES5ClearE13GfxClearFlagsRK10ColorRGBAffib
dyb:__ZL26Transfer_SimpleNativeClassI18StreamedBinaryReadILb0EE10RectOffsetLb0EEvRK29SerializationCommandArgumentsR31RuntimeSerializationCommandInfo
fHa:__ZL12DepthPassJobPN21GfxDeviceAsyncCommand10ArgScratchEPKNS_3ArgE
uBb:__ZNSt3__26vectorIN9ShaderLab20SerializedSubProgram16TextureParameterENS_9allocatorIS3_EEE6assignINS_11__wrap_iterIPS3_EEEENS_9enable_ifIXaasr21__is_forward_iteratorIT_EE5valuesr16is_constructibleIS3_NS_15iterator_traitsISC_E9referenceEEE5valueEvE4typeESC_SC_
d8c:_IntPtr_Equals_m1214967011_AdjustorThunk
HHb:__Z13RegisterClassI19LowerResBlitTextureEvv
x3b:__ZN11MinMaxCurve5ResetE23ParticleSystemCurveModef
bm:FUNCTION_TABLE_iiiiiiiiiiii
W6b:__ZNK14ParticleSystem27CalculateMaxActiveParticlesEv
D1a:__ZN16GraphicsSettingsD0Ev
ePa:__ZN15LODGroupManager21CalculateLODDataArrayERK13LODParametersPK6Cameraf
n:cttz_i8
U1c:_DateTimeFormatInfo_get_FullDateTimePattern_m2607507656
GDd:_HttpsClientStream_RaiseServerCertificateValidation_m3356770426
lXc:_DelegateSerializationHolder__ctor_m3915060553
ijb:__ZN15SerializeTraitsINSt3__26vectorIN30RuntimeInitializeOnLoadManager9ClassInfoE13stl_allocatorIS3_L18MemLabelIdentifier12ELi16EEEEE8TransferI24GenerateTypeTreeTransferEEvRS7_RT_
Zk:_emscripten_glViewport
HSg:__ZN6il2cpp6icalls8mscorlib6System15MonoCustomAttrs17IsDefinedInternalEP12Il2CppObjectP20Il2CppReflectionType
Ubb:__ZN4Mesh21UnswizzleVertexColorsEb
oUc:_DateTime_ToString_m2276663647_AdjustorThunk
gq:__GLOBAL__sub_I_runtime_animation2_lump_cpp
Ygb:__ZN14PlayerSettings23VirtualRedirectTransferER18StreamedBinaryReadILb0EE
y$g:__ZN6il2cpp2os5Event5ResetEv
BMa:__Z26CombineDepthNormalsTextureRK17RenderLoopContextR13dynamic_arrayI16RenderObjectDataLj4EE
Xbg:_AesManaged__ctor_m2322442838
yLg:__ZN6il2cpp8metadata15GenericMetadata17InflateParametersEPK13ParameterInfohPK20Il2CppGenericContextb
o7c:_Int64_System_IConvertible_ToUInt32_m850395426_AdjustorThunk
$3d:_TypeBuilder_GetMethodsByName_m229541072
rnc:_HMACSHA512__ctor_m2390736870
X3d:_TypeBuilder_GetInterfaces_m1818658502
a1c:_NumberFormatter_AppendIntegerString_m868842252
vZ:__Z25SetNeedToPerformRenderingb
S4b:__ZN12LightsModule8TransferI17RemapPPtrTransferEEvRT_
_9d:_MonoMethod_GetPseudoCustomAttributes_m466965107
OKa:__ZNSt3__227__insertion_sort_incompleteIR23CompareReflectionProbesP31RuntimeReflectionProbeBlendInfoEEbT0_S5_T_
uHa:__ZN14qsort_internal30FindAndMovePivotToLastPositionIP15RODataDepthPassi17ROSorterDepthPassEEvT_S4_T0_T1_
n1b:__ZN29InitialModulePropertyBindings13GetFloatValueERK14ParticleSystemi
Vlc:__ZN20UnityWebRequestProtoI19TransportJavaScript16AtomicRefCounter14RedirectHelper14ResponseHelper15DownloadHandler13UploadHandler12HeaderHelper14AsyncOperationE35Task_FinalizeAfterDHCompleteContentEPv
nAe:_Enumerator_System_Collections_IDictionaryEnumerator_get_Value_m3005608231_gshared
N0e:__Z94RuntimeInvoker_Void_t1841601450_RuntimeObject_Int32_t2071877448_RuntimeObject_SByte_t454417549PFvvEPK10MethodInfoPvPS4_
qPa:__ZN12CullingGroup10SendEventsEPK17CullingGroupEventj
Ind:_DSAManaged_GenerateKeyPair_m2711647034
aVa:__ZN13sorted_vectorINSt3__24pairIN4core12basic_stringIcNS2_20StringStorageDefaultIcEEEES6_EEN10vector_mapIS6_S6_27compare_tstring_insensitiveIS6_E13stl_allocatorIS7_L18MemLabelIdentifier37ELi16EEE13value_compareESD_E9erase_oneIS6_EEjRKT_
a8a:__ZThn32_NK8Renderer8GetLayerEv
JKe:_Array_InternalArray__ICollection_Add_TisResourceCacheItem_t333236149_m1151081240_gshared
Ax:__ZN17AudioClipPlayable12PrepareFrameERK19DirectorVisitorInfo
oVd:_SoapServices_GetXmlTypeForInteropType_m3821579913
nch:_emscripten_glTexParameterfv__wrapper
Nef:_Match__ctor_m2452513644
_tg:_il2cpp_method_get_param_count
mGb:__ZN10systeminfo19ISOToSystemLanguageERN4core12basic_stringIcNS0_20StringStorageDefaultIcEEEE
Mzg:__ZNK15dense_hashtableINSt3__24pairIK10KeyWrapperINS1_IPK12PropertyInfoP11Il2CppClassEEEjEES9_17ReflectionMapHashIS8_EN14dense_hash_mapIS9_jSD_NS9_14EqualsComparerINS0_8equal_toIS8_EEEENS0_9allocatorISB_EEE9SelectKeyESI_SK_E3endEv
i$e:__Z69RuntimeInvoker_Boolean_t3825574718_Int32_t2071877448_SByte_t454417549PFvvEPK10MethodInfoPvPS4_
Dtc:_String_IndexOfUnchecked_m3356721554
Q6a:__ZN16LightmapSettings8TransferI14SafeBinaryReadEEvRT_
Vpa:__ZN17BufferManagerGLES13ReleaseBufferEP14DataBufferGLES
b_b:__Z18Transfer_BlittableI8JSONReadLb1EjEvRK29SerializationCommandArgumentsR31RuntimeSerializationCommandInfo
zlf:_PKCS12_Decrypt_m1557069392
FKd:_WebHeaderCollection_ToString_m1246460752
mte:_InternalEnumerator_1_System_Collections_IEnumerator_get_Current_m2842514953_AdjustorThunk
Qn:stackSave
yeb:__ZN14SpriteRenderer23VirtualRedirectTransferER24GenerateTypeTreeTransfer
wLg:__ZNK15dense_hashtableI10KeyWrapperIP18Il2CppGenericClassES3_N6il2cpp8metadata22Il2CppGenericClassHashEN14dense_hash_setIS3_S6_NS3_14EqualsComparerINS5_25Il2CppGenericClassCompareEEENSt3__29allocatorIS3_EEE8IdentityESA_SD_E12test_deletedERK30dense_hashtable_const_iteratorIS3_S3_S6_SF_SA_SD_E
pjg:__ZN6il2cpp2vm5Class14GetNestedTypesEP11Il2CppClassPPv
Unc:_MACTripleDES_Initialize_m1318099802
Nwd:_MD5SHA1_VerifySignature_m507888141
IEc:_Byte_System_IConvertible_ToChar_m4188836679
C1c:_NumberFormatter_InitDecHexDigits_m2036076025
SAe:_Enumerator_get_CurrentKey_m3839846791_AdjustorThunk
Q_b:__ZN8JSONRead21TransferSTLStyleArrayI13dynamic_arrayIaLj1EEEEvRT_18MemLabelIdentifier17TransferMetaFlags
mRa:__ZN6Camera9SetAspectEf
imc:__ZN19TransportJavaScript9DoRequestERKN4core12basic_stringIcNS0_20StringStorageDefaultIcEEEEm21UnityWebRequestMethodS6_bbP12HeaderHelperP13UploadHandlerP15DownloadHandlerP14ResponseHelperP15UnityWebRequest
f5b:__ZN8UVModule8TransferI18StreamedBinaryReadILb0EEEEvRT_
Jle:_UInt32_TryParse_m3987111861
Fdh:_emscripten_glBindVertexArray__wrapper
aEe:_Dictionary_2_InitArrays_m435313205_gshared
cSa:__ZN9Transform37InitializeTransformHierarchyRecursiveER18TransformHierarchyRii
CIb:__Z34DefaultPrepareDispatchBoundsUpdateR13RendererScene18MemLabelIdentifier
Xld:_ModulusRing_Pow_m1137250399
QMd:_X509Chain_Build_m2341271288
ADa:__ZN17MeshRenderingData4InitEP4MeshS1_iP15SharedGfxBufferS3_
eLc:_Hashtable__cctor_m2952659675
Ttc:_Evidence_get_HostEvidenceList_m2095478124
Pzd:_Context_Clear_m4000337070
Uka:__ZN13GfxDeviceGLES26SetRandomWriteTargetBufferEi15ComputeBufferID
dea:__ZN18BlockRangeInternal16PopLastNodeIndexEP10BlockRangeji
$Aa:__ZZ23InitPlayerLoopCallbacksvEN49EarlyUpdateResetFrameStatsAfterPresentRegistrator7ForwardEv
ANc:_Console_SetEncodings_m342145566
YOe:_Array_InternalArray__get_Item_TisSingle_t2076509932_m1495809753_gshared
rPb:__ZNK11ICallString6ToUTF8Ev
pif:_CaptureAssertion_get_Alternate_m2729005740
xUg:_GC_number_stack_black_listed
vHa:__ZNSt3__211__sift_downIR17ROSorterDepthPassP15RODataDepthPassEEvT0_S5_T_NS_15iterator_traitsIS5_E15difference_typeES5_
v1d:_Default_SelectMethod_m3081239996
o4:__ZN18UnityPropertySheet11UnityTexEnvC2Ev
eP:__ZN12FileAccessor4ReadEyyPvPy
O2:__ZN13dynamic_arrayI16ShaderKeywordSetLj4EE6insertEPS0_PKS0_S4_
oWe:_MethodDictionary_IsOverridenKey_m3922224650
pMc:_SyncHashtable_Contains_m3042906549
OQa:__ZN13RenderTexture9SetHeightEi
rL:__Z24scripting_class_get_name17ScriptingClassPtr
oR:__ZN13RuntimeStaticI15GUIEventManagerLb0EE13StaticDestroyEPv
_Og:__ZN6il2cpp2os6Thread15CurrentThreadIdEv
eob:__Z29Transfer_Blittable_ArrayFieldI14SafeBinaryReadjEvRT_R9ArrayInfoRK23StaticTransferFieldInfo
Irf:_Camera_FireOnPostRender_m94860165
Cd:_emscripten_set_keydown_callback
PLc:_Enumerator_get_Value_m3684748062
h0a:__ZN19StreamedBinaryWriteILb0EE21TransferSTLStyleArrayINSt3__26vectorI17SortingLayerEntryNS2_9allocatorIS4_EEEEEEvRT_17TransferMetaFlags
j3b:__ZN18ColorBySpeedModule8TransferI14SafeBinaryReadEEvRT_
mP:__ZN12FileAccessorC2Ev
bTa:__ZN9Transform35SetLocalPositionWithoutNotificationERKN4math7_float3E
T9b:__Z15UpdateRandomTplIL27ParticleSystemCurveEvalMode0EEvRK11MinMaxCurveS3_S3_R5RandNR23ParticleSystemParticlesjjRKN4math8float3x3ERKNS8_7_float4E
bgf:_PatternLinkStack_GetCurrent_m2994645935
Sec:__ZN14ParticleSystem16AssignRayBudgetsEv
PI:__ZN14StackAllocator10ReallocateEPvji
rsg:__ZN6il2cpp2vm7Runtime12GetConfigDirEv
qWe:_MethodDictionary_set_Item_m3475146889
wcc:__ZN16CustomDataModuleD2Ev
hJe:_Array_IndexOf_TisRuntimeObject_m214763038_gshared
Y2b:__ZN14VelocityModule8TransferI14SafeBinaryReadEEvRT_
a6:__ZN13RenderManager22OnWindowSizeHasChangedEv
Okb:__Z39WriteQueueForTransferSignatureIntoCacheRK31TransferFunctionScriptingTraitsRK24TransferRequestSignature17ScriptingClassPtrR23CachedSerializationDataRb
Uaa:__ZN13RenderManager18UpdateAllRenderersEv
shc:__ZN22BaseUnityConnectClient30OnEnteringStatePausedOrStoppedEv
vzg:__ZN15dense_hashtableINSt3__24pairIK10KeyWrapperINS1_IPK12PropertyInfoP11Il2CppClassEEEjEES9_17ReflectionMapHashIS8_EN14dense_hash_mapIS9_jSD_NS9_14EqualsComparerINS0_8equal_toIS8_EEEENS0_9allocatorISB_EEE9SelectKeyESI_SK_E12resize_deltaEjj
ZSa:__Z24MergeTransformComponentsR9TransformS0_b
nrf:_DelegatePInvokeWrapper_AudioConfigurationChangeHandler_t3743753033
qcd:_MonoIO_get_PathSeparator_m2635828107
shd:_MonoType_get_Name_m865859211
B$c:_CultureInfo__cctor_m2290268677
fB:__Z71Register_UnityEngine_Audio_AudioClipPlayable_INTERNAL_CALL_ValidateTypev
wUd:_RemotingConfiguration__cctor_m2129988840
JSg:__ZN6il2cpp2vm13ComObjectBase19GetRuntimeClassNameEPP15Il2CppHString__
hj:_emscripten_glVertexAttribPointer
Z8:__ZN14PreloadManager26UpdatePreloadingSingleStepENS_21UpdatePreloadingFlagsEi
yrc:_SHA512Managed_Initialize_m891287980
fuc:_SecurityException__ctor_m1484114982
Jnf:_X509Crl_GetHashName_m183504634
wBc:_Array_GetValue_m1507415734
q0c:_Object_MemberwiseClone_m2655589444
z6f:_ReadOnlyCollection_1_System_Collections_IList_get_Item_m375043207_gshared
r6:__ZN6prcoreL25inner_stretch_i8_bilinearEPKNS_9InnerInfoE
z9:__ZL30RegisterFilteredObjectCallbackPP12Il2CppObjectiPv
hae:_MonoMethod_get_IsGenericMethod_m4276550811
gD:__ZN11UnityEngine15CloudWebService16SessionContainer24GetSessionHeaderJsonDataERKN4core12basic_stringIcNS2_20StringStorageDefaultIcEEEERNS2_13StringBuilderE
UPc:_Decimal_op_Implicit_m2149927308
$Q:__ZN13RuntimeStaticI21AssetReferenceStorageLb0EE13StaticDestroyEPv
uOg:__ZN6il2cpp6icalls8mscorlib6System9AppDomain22InternalGetProcessGuidEP12Il2CppString
zGb:__ZN15dense_hashtableINSt3__24pairIKN4core12basic_stringIcNS2_20StringStorageDefaultIcEEEE10vector_setI4PPtrI11SpriteAtlasENS0_4lessISB_EE13stl_allocatorISB_L18MemLabelIdentifier79ELi16EEEEES6_20StringHash32FunctionIS6_EN14dense_hash_mapIS6_SH_SK_NS0_8equal_toIS6_EESE_ISI_LSF_79ELi16EEE9SelectKeyESN_SO_E15insert_noresizeERKSI_
eod:_KeyPairPersistence_get_UseMachineKeyStore_m560802076
xy:__ZN19AudioPlayableOutput19DeallocateResourcesEv
Zrb:__Z18Transfer_BlittableI24GenerateTypeTreeTransferLb1EjEvRK29SerializationCommandArgumentsR31RuntimeSerializationCommandInfo
kwd:_MD2Managed_Padding_m410163267
rig:__ZN6il2cpp2os12FastAutoLockD2Ev
K2a:__ZN11ColorRGBA328TransferI14SafeBinaryReadEEvRT_
ef:_emscripten_glClearDepth
aMb:__ZNK8GUILayer22GetTypeVirtualInternalEv
R3a:__ZN8Playable12SetPlayStateE9PlayState
c9a:__ZN14SafeBinaryRead21TransferSTLStyleArrayINSt3__26vectorIN15QualitySettings14QualitySettingENS1_9allocatorIS4_EEEEEEvRT_17TransferMetaFlags
ead:_File_OpenText_m4058508963
Jgb:__ZNSt3__26vectorINS_4pairIPKN5Unity4TypeE7Hash128EENS_9allocatorIS7_EEE8__appendEj
AVd:_WellKnownClientTypeEntry__ctor_m670594074
ODg:__ZN15dense_hashtableINSt3__24pairIK10KeyWrapperIP11Il2CppClassES4_EES5_N6il2cpp8metadata16SZArrayClassHashEN14dense_hash_mapIS5_S4_SA_NS5_14EqualsComparerINS9_19SZArrayClassCompareEEENS0_9allocatorIS7_EEE9SelectKeyESE_SG_EC2ERKSJ_j
kTc:_DateTime_System_IConvertible_ToSingle_m3927769066_AdjustorThunk
ODd:_RecordProtocol_SendRecord_m2977889250
nRb:__Z13IsPathCreatedRKN4core12basic_stringIcNS_20StringStorageDefaultIcEEEE
Mca:__ZL22stbir__encode_scanlineP11stbir__infoiPvPfiii
K2e:__Z136RuntimeInvoker_Void_t1841601450_Byte_t3683104436_RuntimeObject_Int64U26_t763825331_ObjectU26_t597476745_SerializationInfoU26_t4051840202PFvvEPK10MethodInfoPvPS4_
bhc:__ZN20QuadTreeNodeRenderer13StaticDestroyEPv
cE:__ZN11UnityEngine15CloudWebService20WebRequestRestClient5AbortEv
mIb:__ZN9Transform12CleanupClassEv
eZe:__Z50RuntimeInvoker_Void_t1841601450_Double_t4078015681PFvvEPK10MethodInfoPvPS4_
KXg:__ZN6il2cpp6icalls8mscorlib6System9Threading16NativeEventCalls19CloseEvent_internalE12Il2CppIntPtr
Nzd:_ClientContext_set_ClientHelloProtocol_m2246603449
Oig:__ZN6il2cpp2vmL21SetupPropertiesLockedEP11Il2CppClassRKNS_2os12FastAutoLockE
hCb:__ZNSt3__26vectorIN9ShaderLab19SerializedSubShaderENS_9allocatorIS2_EEE26__swap_out_circular_bufferERNS_14__split_bufferIS2_RS4_EE
T_e:__Z116RuntimeInvoker_RuntimeObject_RuntimeObject_Int32_t2071877448_RuntimeObject_RuntimeObject_RuntimeObject_RuntimeObjectPFvvEPK10MethodInfoPvPS4_
SEg:__ZN6il2cpp2vmL24thread_cleanup_on_cancelEPv
EZd:_SByte_ToString_m4105923225_AdjustorThunk
EXd:_StreamingContext_t1417235061_marshal_pinvoke_cleanup
F$c:_CultureInfo_ConstructCurrentUICulture_m3363349599
rne:_UInt64_CompareTo_m2422461804_AdjustorThunk
Rgd:_MonoType_GetEvent_m4160342003
S2a:__Z30ProcessDynamicBatchGeometryJobP25DynamicVBOGeometryJobDataj
THa:__ZNSt3__27__sort4IRNS_6__lessI11CulledLightS2_EEPS2_EEjT0_S6_S6_S6_T_
Xug:__ZN6il2cpp2vm14TypeNameParser26ParseArrayModifierOptionalEv
Hpf:_AudioClipPlayable_INTERNAL_CALL_GetLoopedInternal_m3082735156
rjd:_MSCompatUnicodeTable_Level3_m260824928
EM:__Z26scripting_object_get_class18ScriptingObjectPtr
G5c:_Int32_FindExponent_m3187554672
qod:_KeyPairPersistence_Load_m1355205585
I6c:_Int32_ToString_m2960866144_AdjustorThunk
jwc:_Single_CompareTo_m2081476257_AdjustorThunk
LQg:__ZN6il2cpp6icalls8mscorlib6System11Environment15internalGetHomeEv
EZa:__ZNK5Unity9Component7GetNameEv
P$b:__ZN8JSONRead21TransferSTLStyleArrayI13dynamic_arrayIfLj4EEEEvRT_18MemLabelIdentifier17TransferMetaFlags
sfc:__ZN14ParticleSystem40OnTrailGeometryJobsScheduledRenderThreadERK8JobFence
Z5b:__ZN13TriggerModule8TransferI19StreamedBinaryWriteILb0EEEEvRT_
mgb:__ZN11TimeManager8TransferI18StreamedBinaryReadILb0EEEEvRT_
bjd:_ContractionComparer_Compare_m314873025
pMa:__ZN14qsort_internal18QSortSingleJobDataIP16RenderObjectDatai26RenderDeferredObjectSorterE7SortJobEPS4_
Z6c:_Int64_System_IConvertible_ToDouble_m638786774
kv:__ZN4FMOD6System7releaseEv
JO:__Z18PathToAbsolutePathRKN4core12basic_stringIcNS_20StringStorageDefaultIcEEEE
i$f:_Enumerator_MoveNext_m3078170540_AdjustorThunk
qZe:__Z79RuntimeInvoker_Decimal_t724701077_RuntimeObject_Int32_t2071877448_RuntimeObjectPFvvEPK10MethodInfoPvPS4_
rca:__ZL13BlitImageImplR14ImageReferenceiiRKS_NS_10ColorSpaceENS_8BlitModeEb
Kac:__ZL15AccumulateNoiseILb1ELi1EEN4math8floatNx2ERKNS0_8floatNx3ERKfiS6_S6_
J7:__ZN6prcoreL17RemapGenericFloatI18TexFormatRGBAFloat17TexFormatRGBFloatEEvPKNS_9InnerInfoE
GYe:__Z64RuntimeInvoker_RuntimeObject_Int16_t4041245914_Int16_t4041245914PFvvEPK10MethodInfoPvPS4_
ida:__ZN29SerializeTraitsForStringTypesIN4core12basic_stringIcNS0_20StringStorageDefaultIcEEEEE8TransferI24GenerateTypeTreeTransferEEvRS4_RT_
rt:__ZN12AudioManager29ShutdownReinitializeAndReloadEv
jlf:_NetscapeCertTypeExtension_Decode_m2210025005
JVd:_BaseFixupRecord_DoFixup_m1821597450
qig:__ZN15dense_hashtableINSt3__24pairIK10KeyWrapperIPK22Il2CppGenericParameterEP11Il2CppClassEES6_N6il2cpp5utils11PointerHashIS4_EEN14dense_hash_mapIS6_S9_SE_NS6_14EqualsComparerINS0_8equal_toIS5_EEEENS0_9allocatorISA_EEE9SelectKeyESJ_SL_E6insertERKSA_
iad:_FileLoadException__ctor_m1356374414
gna:__ZN14DataBufferGLES16RecreateWithDataEjPKv
dRb:__Z29GetGlobalAllowNameConversionsv
RTa:__ZN8Material8SetColorEN9ShaderLab16FastPropertyNameERK10ColorRGBAf
FEe:_Dictionary_2_System_Collections_ICollection_CopyTo_m3578539931_gshared
eR:__ZN21AssetReferenceStorageC2Ev
vL:__ZL41AssemblyNameMatchesWithOrWithoutExtensionPKcS0_
yra:__ZN14GfxContextGLES43AddRenderSurfaceToDeferredFBOInvalidateListEPK17RenderSurfaceGLES
QFg:__ZN6il2cpp6icalls8mscorlib6System9Threading6Thread15Thread_internalEP12Il2CppThreadP14Il2CppDelegate
Y1:__ZN11NamedObject23VirtualRedirectTransferER14SafeBinaryRead
h9:__ZN23PreloadManagerOperation6IsDoneEv
Asg:__ZN6il2cpp2vm7Runtime15InvokeWithThrowEPK10MethodInfoPvPS5_
Xrd:_X509Certificate_get_RawData_m3000055075
YNb:__Z33GetHasChangedDeprecatedSystemMaskv
lSg:__ZN6il2cpp5utils11StringUtils11Utf16ToUtf8ERKNSt3__212basic_stringIDsNS2_11char_traitsIDsEENS2_9allocatorIDsEEEE
STc:_DateTime_AddSeconds_m722082155_AdjustorThunk
jJc:_SynchronizedArrayListWrapper_CopyTo_m956887031
Jda:__ZN21LightProbeProxyVolume18HasHardwareSupportEv
m6:__ZN6prcoreL31inner_stretch_argb8888_bilinearEPKNS_9InnerInfoE
zvb:__Z18Transfer_BlittableI18StreamedBinaryReadILb1EELb1E8BitFieldEvRK29SerializationCommandArgumentsR31RuntimeSerializationCommandInfo
ZBd:_TlsClientCertificate_get_ClientCertificate_m3062440489
Ktc:_StrongNamePublicKeyBlob_ToString_m3721281223
Ese:_InternalEnumerator_1_get_Current_m198513457_AdjustorThunk
TFa:__Z20scripting_object_new17ScriptingClassPtr
D3c:_TextInfo__ctor_m2782608694
f3f:_Queue_1_System_Collections_ICollection_CopyTo_m772787461_gshared
hVb:__Z58Register_UnityEngine_Object_Internal_CloneSingleWithParentv
M3c:_TextInfo_ToUpper_m299550697
u5b:__ZN16CustomDataModule8TransferI18StreamedBinaryReadILb0EEEEvRT_
RRc:_Convert_ToUInt16_m3265369225
P:Math_exp
wgd:_MonoEnumInfo_get_Cache_m3551569711
xn:FUNCTION_TABLE_iiifi
iOg:__ZN6il2cpp2os5posix13PosixAutoLockD2Ev
iga:__ZNSt3__26vectorINS_4pairIyP17VertexDeclarationEENS_9allocatorIS4_EEE6insertENS_11__wrap_iterIPKS4_EERS9_
ORa:__ZN13MonoBehaviour9SetScriptERK4PPtrI10MonoScriptE18ScriptingObjectPtr
TGe:_Array_InternalArray__ICollection_Contains_TisPlayableBinding_t2498078091_m4267109606_gshared
kWc:_Decimal_IsZero_m3557909184_AdjustorThunk
UGc:_Char_ToString_m1401375624
boc:_MD5CryptoServiceProvider__cctor_m3309191799
sY:__ZNK10FileSystem16LastErrorMessageEv
H8f:_ScriptPlayableOutput__ctor_m3107656159
NSe:_ConfigHandler_ReadCustomProviderData_m784203316
tud:_Kernel_DwordDivMod_m3728402123
xjb:__ZN13MonoBehaviour13AwakeFromLoadE17AwakeFromLoadMode
mqb:__ZL26Transfer_SimpleNativeClassI17RemapPPtrTransfer8GradientLb1EEvRK29SerializationCommandArgumentsR31RuntimeSerializationCommandInfo
kOb:__ZN12CachedWriter9InitWriteER15CacheWriterBase
lNb:__Z21UnsignedInt64ToStringy
jfe:_UTF7Decoder__ctor_m549434986
ITb:__Z36MonoBehaviour_CUSTOM_InvokeRepeatingP12Il2CppObjectP12Il2CppStringff
IT:__ZZN15DirectorManager15InitializeClassEvEN41FixedUpdateDirectorFixedUpdateRegistrator7ForwardEv
y2f:_List_1_IndexOf_m1434084853_gshared
Snf:_X509Crl_VerifySignature_m1390212587
QPd:_Group__ctor_m4103922028
fCa:__ZN6Camera26ClearIntermediateRenderersEj
odh:_glLinkProgram__wrapper
W6:__ZN6prcoreL12RemapGenericI17TexFormatARGB888815TexFormatBGR888EEvPKNS_9InnerInfoE
hoc:_MD5CryptoServiceProvider_ProcessFinalBlock_m1052610785
yJc:_BitArray_Set_m2878881714
s9b:__Z20UpdateCustomCurveTplIL27ParticleSystemCurveEvalMode1EEvRK11MinMaxCurveR23ParticleSystemParticlesiijjRKN4math5_int4E
J7b:__ZNK10SizeModule6UpdateER23ParticleSystemParticlesjj
MJg:__ZN6il2cpp6icalls8mscorlib6System13Globalization11CultureInfo35construct_internal_locale_from_nameEP17Il2CppCultureInfoP12Il2CppString
msb:__ZL22Transfer_ManagedObjectI24GenerateTypeTreeTransferLb1EEvRK29SerializationCommandArgumentsR31RuntimeSerializationCommandInfo
gUe:_ContextAttribute_Equals_m53324298
pj:_emscripten_set_main_loop_timing
Yoe:_WeakReference_AllocateHandle_m1783929473
bna:__ZN14DataBufferGLES12RecordRenderEv
oTa:__ZN14ImageReference10FlipImageYEv
Ys:__ZN4FMOD6System23set3DListenerAttributesEiPK11FMOD_VECTORS3_S3_S3_
H4b:__ZN21InheritVelocityModule8TransferI17RemapPPtrTransferEEvRT_
_0a:__Z32TransferEnumWithNameForceIntSizeI14SafeBinaryRead13TargetEyeMaskEvRT_RT0_PKc17TransferMetaFlags
Sq:__ZN4FMOD3DSP9setBypassEb
bbc:__Z9StartConeILN11ShapeModule14MultiModeValueE1EEvRS0_R23ParticleSystemParticlesRK19ParticleSystemStateRK27ParticleSystemEmissionStateRKN4math8float3x3ERKNSB_8float4x4Ejbj
fYa:__Z19NormalizeWheelInputf
Gke:_Type_MakeGenericType_m2765875033
tPb:__ZN11MonoManager25GetImageFromAssemblyIndexEi
Aze:_Enumerator_VerifyState_m1547102902_AdjustorThunk
g$g:__ZN6il2cpp2os20ThreadLocalValueImpl8SetValueEPv
rDa:__ZN22RenderingCommandBuffer20CleanupCommandBufferEv
n3e:__Z165RuntimeInvoker_Void_t1841601450_UInt32U26_t2197289955_Int32_t2071877448_UInt32U26_t2197289955_Int32_t2071877448_Int32_t2071877448_Int32_t2071877448_Int32_t2071877448PFvvEPK10MethodInfoPvPS4_
gXb:__Z18Transfer_BlittableI9JSONWriteLb1EtEvRK29SerializationCommandArgumentsR31RuntimeSerializationCommandInfo
jad:_FileLoadException__ctor_m918124939
Ij:___syscall85
gFa:__ZNSt3__26__sortIRPFbP10GUIElementS2_EPS2_EEvT0_S7_T_
avd:_SequentialSearchPrimeGeneratorBase_GenerateSearchBase_m2930465198
$Og:__ZN6il2cpp2os6Thread19DetachCurrentThreadEv
Lig:__ZN6il2cpp2vmL21SetupInterfacesLockedEP11Il2CppClassRKNS_2os12FastAutoLockE
Rlb:__ZN11MonoManager23VirtualRedirectTransferER24GenerateTypeTreeTransfer
t4b:__ZN24GenerateTypeTreeTransfer8TransferI13dynamic_arrayIN8UVModule10SpriteDataELj4EEEEvRT_PKc17TransferMetaFlags
rPd:_Capture__ctor_m885749277
cD:__ZN11UnityEngine15CloudWebService14DataDispatcher15SetupWebRequestEv
ved:_TextWriter__cctor_m4047845042
lic:__ZN11UnityEngine15PlatformWrapper13GetShaderCapsEv
pNa:__ZNSt3__211__sift_downIR26RenderDeferredObjectSorterP16RenderObjectDataEEvT0_S5_T_NS_15iterator_traitsIS5_E15difference_typeES5_
Qod:_SmallXmlParser_ReadCharacters_m1966365555
UFd:_InternalAsyncResult_get_CompletedWithError_m3993955322
MMb:__ZN21FixedBehaviourManager6UpdateEv
S6f:_ReadOnlyCollection_1_System_Collections_IList_Add_m527174473_gshared
p5b:__ZN15CollisionModule8TransferI18StreamedBinaryReadILb0EEEEvRT_
qJ:__ZN19ShaderPropertySheet8SetFloatEN9ShaderLab16FastPropertyNameEfNS_8SetFlagsE
vaa:__ZN19RuntimeSceneManager24BeginIntegrateMainThreadEP10UnityScene
UPg:__ZNSt3__2plIcNS_11char_traitsIcEENS_9allocatorIcEEEENS_12basic_stringIT_T0_T1_EERKS9_S6_
mfd:_LocalDataStoreSlot__cctor_m1192669356
OBb:__ZN9ShaderLab20SerializedSubProgramaSERKS0_
V4g:_roundf
Gyc:_String_CreateString_m2556700934
f0a:__ZN18StreamedBinaryReadILb0EE21TransferSTLStyleArrayINSt3__26vectorI17SortingLayerEntryNS2_9allocatorIS4_EEEEEEvRT_17TransferMetaFlags
Mig:__ZN6il2cpp2vmL24SetupTypeHierarchyLockedEP11Il2CppClassRKNS_2os12FastAutoLockE
yKa:__Z20CalculateLightMatrixRK15SharedLightDataP10Matrix4x4f
O9g:_glBlendEquationSeparate__wrapper
hYg:__ZN6il2cpp6icalls8mscorlib6System8Security12Cryptography24RNGCryptoServiceProvider13RngInitializeEP11Il2CppArray
Zcc:__ZN21RotationBySpeedModuleD0Ev
wJd:_IPAddress__cctor_m3624830012
oLd:_AsnEncodedData_EnhancedKeyUsageExtension_m1452131166
ywb:__Z19TransferField_ArrayI18StreamedBinaryReadILb1EE27Converter_SimpleNativeClassI17AnimationCurveTplIfEEEvRK23StaticTransferFieldInfoR31RuntimeSerializationCommandInfoRT0_
Hna:__ZN18GfxFramebufferGLES22MakeCurrentFramebufferENS_7BuiltinE
vQd:_Interpreter_Close_m1500459069
W1f:_List_1_set_Capacity_m895816763_gshared
dda:__ZN12CachedReader4ReadEPvj
Ise:_InternalEnumerator_1_System_Collections_IEnumerator_get_Current_m3600601141_gshared
Oqc:_SHA1Internal_HashFinal_m3188468925
i9b:__ZNK14RotationModule6UpdateERK27ParticleSystemReadOnlyStateRK19ParticleSystemStateR23ParticleSystemParticlesRKN4math7_float4Ejj
AL:__ZN19RuntimeSceneManagerD2Ev
TRe:_ChannelData_get_CustomProperties_m1470957369
sE:__ZN11UnityEngine15CloudWebService25WebRequestDownloadHandler17OnCompleteContentEv
l6:__ZN6prcore17GetIntegerBlitterE13TextureFormatS0_N14ImageReference8BlitModeE
Crf:_Camera_INTERNAL_CALL_ScreenPointToRay_m2752248646
Kyg:__ZN6il2cpp2gc19AppendOnlyGCHashMapINSt3__24pairIPK11Il2CppImageP11Il2CppClassEEP22Il2CppReflectionModule17ReflectionMapHashIS9_ENS2_8equal_toIS9_EEE11TryGetValueERKS9_PSB_
Ere:_InternalEnumerator_1_System_Collections_IEnumerator_get_Current_m1313308902_AdjustorThunk
AId:_TypeConverterAttribute__cctor_m506796812
ROe:_Array_InternalArray__get_Item_TisILTokenInfo_t149559338_m2004750537_gshared
Oye:_Comparer_1_System_Collections_IComparer_Compare_m1790257529_gshared
F8g:_glShaderSource__wrapper
$xa:__ZN25MultiBlocksMemoryFileData17AdjustBlocksCountEj
uGg:__ZNSt3__214__split_bufferIN6il2cpp2vm22EmbeddedResourceRecordERNS_9allocatorIS3_EEED2Ev
Uzd:_TlsClientHello__ctor_m1699671541
BTe:_Context_NotifyGlobalDynamicSinks_m2916447645
SSb:__Z27CullingGroup_CUSTOM_DisposeP12Il2CppObject
KDa:__ZN13ComputeShader15SetTextureParamEjRKN9ShaderLab16FastPropertyNameE9TextureID16TextureDimension
hEe:_Dictionary_2_ContainsKey_m416495915_gshared
Sl:_glStencilMask
wPg:__ZN6il2cpp2os10ThreadImpl16GetCurrentThreadEv
aLc:_Hashtable__ctor_m2337481811
bAe:_Enumerator_System_Collections_IEnumerator_get_Current_m2010873149_gshared
dUd:_RealProxy__ctor_m2505535530
KVg:_GC_push_conditional_with_exclusions
pme:_UInt32_System_IConvertible_ToUInt16_m2798641702_AdjustorThunk
eWd:_BinaryFormatter_get_DefaultSurrogateSelector_m219714691
I$e:__Z136RuntimeInvoker_Void_t1841601450_Int32_t2071877448_RuntimeObject_RuntimeObject_RuntimeObject_RuntimeObject_RuntimeObject_SByte_t454417549PFvvEPK10MethodInfoPvPS4_
Mae:_MonoProperty_GetOptionalCustomModifiers_m3827844355
Zjd:_SimpleCollator_GetSortKey_m2188419329
G3a:__ZN14RenderSettings27UpdateIndirectSpecularColorEv
thb:__ZN14PlayerSettings8TransferI18StreamedBinaryReadILb0EEEEvRT_
urg:__ZN6il2cpp6icalls8mscorlib6System8MonoType16GetMethodsByNameEP20Il2CppReflectionTypeP12Il2CppStringibS5_
DQe:_GCHandle__ctor_m2952050298
nga:__ZNSt3__27__sort3IRNS_4lessIN22BuiltinResourceManager8ResourceEEEPS3_EEjT0_S7_S7_T_
vye:_DefaultComparer_Compare_m3472472212_gshared
Jad:_MonoIO_GetLength_m2812344043
Eag:_RequestAtlasCallback_Invoke_m2414509569
gdb:__ZN10BlendShape8TransferI19StreamedBinaryWriteILb0EEEEvRT_
a8c:__Z21il2cpp_codegen_sizeofP11Il2CppClass
XZ:__Z19GetTimeSinceStartupv
rvc:_SecurityFrame_get_Assembly_m2816566490
pbg:_NetFxCoreExtensions_CreateDelegate_m2492743074
geb:__Z33MultiplyMatrixArrayWithBase4x4REFPK10Matrix4x4fS1_S1_PS_j
XBc:_Array_Sort_m2994254654
z1d:_Default_CompareCloserType_m1367126249
iIa:__ZN29RenderNodeQueuePrepareContextC2Ev
ez:__ZN10SampleClipC2E18MemLabelIdentifier18ObjectCreationMode
OCb:__ZN9ShaderLab20SerializedSubProgram16TextureParameter8TransferI24GenerateTypeTreeTransferEEvRT_
LZg:__ZN6il2cpp2os11MutexHandle4WaitEj
rQb:__ZL34GetComponentsImplementationRecurseILb1ELi1ELi1EEbR10GameObjectbRK17CompareParametersRK39GetComponentsImplementation_ReturnValue
KZg:__ZN6il2cpp2os11MutexHandle4WaitEv
nHc:_ArrayList_set_Capacity_m592558035
e8:__ZN6prcoreL17RemapGenericFloatI15TexFormatRGHalf18TexFormatARGBFloatEEvPKNS_9InnerInfoE
PZ:__Z18SimulateMouseInputi
HCa:__ZN13RenderManager23AddRemoveCamerasDelayedEv
kYb:__ZN9JSONWrite8TransferI13dynamic_arrayIdLj8EEEEvRT_PKc17TransferMetaFlags
tHe:_Array_InternalArray__ICollection_Remove_TisILTokenInfo_t149559338_m1523907845_gshared
sLc:_Hashtable_Rehash_m2877670513
NQa:__ZN13RenderTexture8SetWidthEi
Uce:_Encoding_get_ISOLatin1_m151504502
EKe:_Array_InternalArray__ICollection_Add_TisCustomAttributeTypedArgument_t1498197914_m3260005285_gshared
sKa:__Z25SetupObjectBakedOcclusionbRK15SharedLightDataRK26SharedLightmapSettingsDataRK15LightmapIndicesR17ShaderPassContext
fMc:_SyncHashtable_GetObjectData_m3774367030
WOc:_DateTime__ParseTimeSeparator_m1796113879
r4c:_Guid_GetHashCode_m1401300871
GI:__ZN9ShaderLab16FastPropertyName4InitEPKc
DZg:__GLOBAL__sub_I_Il2CppCodeRegistration_cpp
vjd:_MSCompatUnicodeTable_ToWidthCompat_m2299599532
Nhg:__ZN13Il2CppHashMapIPK22Il2CppGenericParameterP11Il2CppClassN6il2cpp5utils11PointerHashIS1_EENSt3__28equal_toIS2_EENS9_9allocatorINS9_4pairIK10KeyWrapperIS2_ES4_EEEEEC2EjRKS8_RKSB_
gid:_NumberFormatter_get_IsFloatingSource_m2830957202
y$:__ZN13RenderTexture9SetMipMapEb
EZ:__Z18GetDirectorManagerv
kqf:_PlayableHandle_INTERNAL_CALL_SetTimeInternal_m3873000891
Pid:_OperatingSystem_GetObjectData_m2276196875
kkg:__ZN14dense_hash_mapI10KeyWrapperIPK11Il2CppClassEPKcN6il2cpp5utils11PointerHashIS1_EENS4_14EqualsComparerINSt3__28equal_toIS3_EEEENSC_9allocatorINSC_4pairIKS4_S6_EEEEEC2EjRKSA_RKSF_
zyg:__ZNK15dense_hashtableINSt3__24pairIK10KeyWrapperINS1_IPK10MethodInfoP11Il2CppClassEEEjEES9_17ReflectionMapHashIS8_EN14dense_hash_mapIS9_jSD_NS9_14EqualsComparerINS0_8equal_toIS8_EEEENS0_9allocatorISB_EEE9SelectKeyESI_SK_E5beginEv
Upa:__ZN7ApiGLES19UploadBufferSubDataEjN2gl12BufferTargetEllPKv
TV:__ZNSt3__216__rotate_forwardINS_11__wrap_iterIPN4core12basic_stringIcNS2_20StringStorageDefaultIcEEEEEEEET_S9_S9_S9_
Pwc:_String_System_IConvertible_ToInt32_m1927223638
sqf:_AudioMixerPlayable_Create_m3525453973
Uyc:_ASCIIEncoding__ctor_m4127831672
Mnb:__Z19TransferField_ArrayI14SafeBinaryRead27Converter_SimpleNativeClassI8GUIStyleEEvRK23StaticTransferFieldInfoR31RuntimeSerializationCommandInfoRT0_
ulb:__ZN9TextAsset23VirtualRedirectTransferER19StreamedBinaryWriteILb0EE
kde:_UTF8Encoding__ctor_m3336862259
oYg:__ZN6il2cpp5utils10MemoryPoolC2Ej
kYg:__ZN6il2cpp5utils10MemoryPoolC2Ev
j3a:__ZN14RenderSettings5ResetEv
wGb:__ZN6Sprite9BindAtlasERK4PPtrI11SpriteAtlasE
QGg:__ZNSt3__212basic_stringIDsNS_11char_traitsIDsEENS_9allocatorIDsEEE6appendEPKDsj
ZNe:_Dictionary_2_Do_ICollectionCopyTo_TisKeyValuePair_2_t3716250094_m1740410536_gshared
gPg:__ZN6il2cpp2os10ThreadImplD2Ev
Wpd:_RSAManaged_Dispose_m3018788098
Rec:__ZN14ParticleSystem18MarkAllSubEmittersEPS_
TVb:__ZN8Gradient8TransferI9JSONWriteEEvRT_
eba:__ZN21RendererUpdateManager18OncePerFrameUpdateER13RendererScene
gPc:_DateTime_ToUniversalTime_m1815024752
MYa:__ZNK12TLSAllocatorI14StackAllocatorE22GetAllocatedMemorySizeEv
dGf:__ZL54AssemblyName_t894705941_CustomAttributesCacheGeneratorP21CustomAttributesCache
cSc:_Convert_ToUInt32_m3394039268
QSa:__ZN17RemapPPtrTransfer12PushMetaFlagE17TransferMetaFlags
Qya:__ZN12HandlerChain4NameEv
Vfb:__ZNSt3__26vectorI9InputAxisNS_9allocatorIS1_EEE10deallocateEv
p5c:_Int16_Equals_m3925135434_AdjustorThunk
QDf:__ZL60IHashCodeProvider_t1980576455_CustomAttributesCacheGeneratorP21CustomAttributesCache
fzd:_CipherSuiteCollection_get_Item_m280627160
imb:__Z44InitializeTransferFunctionScriptingTraitsForI17RemapPPtrTransferEvR31TransferFunctionScriptingTraits
wTd:_SerializationInfoEnumerator_MoveNext_m1876990879
iUa:__ZN14UnityWebStream24UpdateAllUnityWebStreamsEv
rCf:__ZL60ObsoleteAttribute_t3878847927_CustomAttributesCacheGeneratorP21CustomAttributesCache
A9e:__Z79RuntimeInvoker_Playable_t1896841784_PlayableGraph_t1041204988_Int32_t2071877448PFvvEPK10MethodInfoPvPS4_
o8b:__Z19UpdateProceduralTplIL27ParticleSystemCurveEvalMode4EEvRK20DualMinMaxPolyCurvesR23ParticleSystemParticlesPfRKN4math7_float4E
taa:__ZN18LoadSceneOperation21MustCompleteNextFrameEv
kUf:__ZL48Camera_t189460977_CustomAttributesCacheGeneratorP21CustomAttributesCache
lQa:__ZNSt3__26vectorI11CameraStackNS_9allocatorIS1_EEE8__appendEj
mme:_UInt32_System_IConvertible_ToType_m747769316
bah:_glDeleteVertexArrays__wrapper
PO:__Z13GetFileSystemv
eQ:__ZNK5Unity4Type21FindAllDerivedClassesER13dynamic_arrayIPKS0_Lj4EENS0_17TypeFilterOptionsE
nR:__ZN13RuntimeStaticI15GUIEventManagerLb0EE16StaticInitializeEPv
Veb:__ZN14SafeBinaryRead8TransferIfEEvRT_PKc17TransferMetaFlags
l2c:_DaylightTime_get_Delta_m2316831491
bie:_WaitHandle_WaitOne_m370363697
LPd:_FactoryCache_Lookup_m1681894361
kUc:_DateTime_Subtract_m698282245_AdjustorThunk
Deb:__ZThn32_N14SpriteRenderer15AddAsRenderNodeER15RenderNodeQueueRK20DeprecatedSourceData
YDa:__ZN19ShaderPropertySheet9SetMatrixEN9ShaderLab16FastPropertyNameERK10Matrix4x4fNS_8SetFlagsE
fpc:_RIPEMD160Managed_Initialize_m3365407578
vJd:_IPAddress_HostToNetworkOrder_m1092199707
v0b:__ZN15CollisionModuleD0Ev
wtc:_SecurityAttribute__ctor_m3425755778
Xsg:_il2cpp_array_element_size
sf:_glCheckFramebufferStatus
O_d:_DESTransform_ECB_m2629024873
Kxe:_InternalEnumerator_1_System_Collections_IEnumerator_get_Current_m790514740_AdjustorThunk
jjd:__Z37il2cpp_codegen_get_executing_assemblyPK10MethodInfo
LFb:__ZN9Transform23VirtualRedirectTransferER17RemapPPtrTransfer
qJe:_Array_InternalArray__IndexOf_TisByte_t3683104436_m3605266236_gshared
Yce:_UnicodeEncoding__ctor_m72484327
NIg:__ZN14dense_hash_mapI10KeyWrapperIP14Il2CppIUnknownEjN6il2cpp5utils11PointerHashIS1_EENS3_14EqualsComparerINSt3__28equal_toIS2_EEEENS9_9allocatorINS9_4pairIKS3_jEEEEE15set_deleted_keyERSF_
o1c:_NumberFormatter_ScaleOrder_m1915154678
aBg:__ZN13Il2CppHashMapIPK14Il2CppAssemblyPK22Il2CppMonoAssemblyNameN6il2cpp5utils11PointerHashIS1_EENSt3__28equal_toIS2_EENSA_9allocatorINSA_4pairIK10KeyWrapperIS2_ES5_EEEEEC2EjRKS9_RKSC_
kwe:_InternalEnumerator_1_System_Collections_IEnumerator_get_Current_m3576641073_AdjustorThunk
ZAd:_ClientSessionInfo_SetContext_m2649357891
g6c:_Int32_System_IConvertible_ToInt64_m3790029067_AdjustorThunk
kGd:_SslStreamBase_InternalReadCallback_m2524917586
KP:__ZN8Remapper6RemoveEi
C2f:_List_1_CheckCollection_m2608305187_gshared
JQa:__ZN15ReflectionProbe17UseRendererResultEP13ProbeRenderer
DBc:_Array_BinarySearch_m3270245097
X9c:_MonoIO_DeleteFile_m3273821223
fld:_BigInteger_GenerateRandom_m2507308768
aTc:_DateTime_System_IConvertible_ToDouble_m1431748426_AdjustorThunk
OGe:_Array_InternalArray__ICollection_Contains_TisUInt16_t986882611_m510319131_gshared
AWc:_Decimal_ToString_m541380585
ntg:_il2cpp_class_is_valuetype
DZc:_Enum_ToObject_m2601523252
bHa:__Z20RenderSceneDepthPassRK19SharedRendererSceneRK17ShaderReplaceDatabR17ShaderPassContext
LOa:__Z40ProcessCameraIndexListIsNodeVisibleInOutRK22SceneCullingParametersPK9SceneNodePK4AABBR9IndexList
w2a:__ZN16GraphicsSettings8TransferI17RemapPPtrTransferEEvRT_
edd:_StreamReader__ctor_m2654332332
e1f:_List_1_CheckCollection_m3968030679_gshared
Tde:_StringBuilder_ToString_m617673931
Kic:__ZN11UnityEngine7Connect13ConfigHandler12GetListenersERKN4core12basic_stringIcNS2_20StringStorageDefaultIcEEEE
eja:__ZN9GfxDevice18AllocRenderSurfaceEb
W9d:_MonoMethod_IsDefined_m2322670981
eL:__ZL27CleanupCoreScriptingClassesv
uqf:_AudioMixerPlayable_INTERNAL_CALL_CreateAudioMixerPlayableInternal_m3355685531
Zdg:_UnityAction_1_Invoke_m2563101999_gshared
CTb:__Z26AnimationCurve_CUSTOM_InitP12Il2CppObjectP11Il2CppArray
Vbh:_glUniform1uiv__wrapper
NAg:__ZN6il2cpp2vm10Reflection7IsEventEP12Il2CppObject
kM:__ZN17PersistentManager26GetStreamNameSpaceInternalEi
Er:__ZN4FMOD6System11createSoundEPKcjP22FMOD_CREATESOUNDEXINFOPPNS_5SoundE
Cwf:_Object_Destroy_m4145850038
ewg:__ZN6il2cpp2vm4Type14IsSystemDBNullEPK10Il2CppType
NJ:__ZN9ShaderLab19CommonPropertyNames13StaticCleanupEPv
rN:__Z31scripting_method_get_returntype18ScriptingMethodPtr
m7a:__ZN15SerializeTraitsI12LightmapDataE8TransferI24GenerateTypeTreeTransferEEvRS0_RT_
H8g:_glStencilOpSeparate__wrapper
Xaa:__ZN7Texture13SetAnisoLimitENS_20AnisotropicFilteringE
pba:__ZN28LightProbeProxyVolumeManager25UpdateSHCoeffsTextureDataER21LightProbeProxyVolume
Swa:__Z18CreateDecompressor15CompressionType18MemLabelIdentifier
Uz:__ZN11AudioModule16SetListenerPauseEb
jh:_emscripten_glCompressedTexSubImage2D
mra:__ZN13GfxDeviceGLES22MemoryBarrierImmediateEyN2gl17MemoryBarrierTypeE
EV:__ZZN18SpriteAtlasManagerC1EvEN46EarlyUpdateSpriteAtlasManagerUpdateRegistrator7ForwardEv
AHg:__ZN6il2cpp6icalls8mscorlib6System4Type18internal_from_nameEP12Il2CppStringbb
s8:__ZN6prcoreL26RemapGenericFloatToIntegerI18TexFormatARGBFloat17TexFormatARGB8888EEvPKNS_9InnerInfoE
HOb:__Z46GetShaderModelNumericValueFromRequirementsMask18ShaderRequirements
sLd:_AsnEncodedData_NetscapeCertType_m2899239452
mUg:_GC_write
Aff:_PatternCompiler_EmitPosition_m3013268572
ekf:_Uri_get_IsAbsoluteUri_m4123650233
D$b:__Z29Transfer_Blittable_ArrayFieldI8JSONRead10ColorRGBAfEvRT_R9ArrayInfoRK23StaticTransferFieldInfo
Pub:__Z18Transfer_BlittableI18StreamedBinaryReadILb1EELb1EiEvRK29SerializationCommandArgumentsR31RuntimeSerializationCommandInfo
aeb:__ZN16MeshSkinningData14GetBoneWeightsEi
rsc:_TripleDES_IsWeakKey_m483013953
zMd:_X509Certificate2_get_PrivateKey_m2662162956
Czg:__ZN15dense_hashtableINSt3__24pairIK10KeyWrapperINS1_IPK12PropertyInfoP11Il2CppClassEEEjEES9_17ReflectionMapHashIS8_EN14dense_hash_mapIS9_jSD_NS9_14EqualsComparerINS0_8equal_toIS8_EEEENS0_9allocatorISB_EEE9SelectKeyESI_SK_E12maybe_shrinkEv
o6e:__Z75RuntimeInvoker_RuntimeObject_RuntimeObject_Single_t2076509932_RuntimeObjectPFvvEPK10MethodInfoPvPS4_
ivb:__Z18Transfer_BlittableI18StreamedBinaryReadILb1EELb1EsEvRK29SerializationCommandArgumentsR31RuntimeSerializationCommandInfo
Vvc:_Single_System_IConvertible_ToSByte_m3757385387
Xad:_StreamAsyncResult_SetComplete_m2141125667
gte:_InternalEnumerator_1_get_Current_m245025210_AdjustorThunk
phc:__ZN22BaseUnityConnectClient17OnEnterStateReadyEv
Vda:__ZN14GrowableBufferD2Ev
bxd:_EncryptedPrivateKeyInfo_get_EncryptedData_m598672214
Urg:__ZN6il2cpp6icalls8mscorlib6System8MonoType16InternalGetEventEP20Il2CppReflectionTypeP12Il2CppStringi
rge:_Interlocked_CompareExchange_m3339239614
zPg:__ZN6il2cpp2osL23CleanupThreadIfCanceledEPv
lJ:__ZN19ShaderPropertySheet11ComputeHashEv
nmg:__ZN30dense_hashtable_const_iteratorI10KeyWrapperIPK19Il2CppGenericMethodES4_N6il2cpp8metadata23Il2CppGenericMethodHashEN14dense_hash_setIS4_S7_NS4_14EqualsComparerINS6_26Il2CppGenericMethodCompareEEENSt3__29allocatorIS4_EEE8IdentityESB_SE_EppEv
bE:__ZN11UnityEngine15CloudWebService20WebRequestRestClient6IsDoneEv
ei:_llvm_fabs_f32
GD:__ZN11UnityEngine15CloudWebService16SessionContainer16GetJsonDataBlockEjRKN4core12basic_stringIcNS2_20StringStorageDefaultIcEEEERS6_PjSA_
lCe:_Dictionary_2_System_Collections_IDictionary_set_Item_m2290664072_gshared
e2e:__Z76RuntimeInvoker_Void_t1841601450_Int64_t909078037_ResourceInfoU26_t3126209420PFvvEPK10MethodInfoPvPS4_
Hjd:_SimpleCollator__cctor_m2693747668
tWc:_Decimal_CompareTo_m2454501434_AdjustorThunk
yM:__ZN14SafeBinaryReadD2Ev
Zke:_UInt16_System_IConvertible_ToChar_m4055364664
yHb:__Z13RegisterClassI7TextureEvv
wwb:__ZN8Gradient8TransferI18StreamedBinaryReadILb1EEEEvRT_
Eme:_UInt32_ToString_m554020223_AdjustorThunk
Fi:_SDL_PauseAudio
stg:_il2cpp_class_from_type
jCc:_Array_Sort_m2323017822
yug:__ZN6il2cpp2os4File11GetStdErrorEv
MJ:__ZN9ShaderLab19CommonPropertyNames16StaticInitializeEPv
Dfd:_MissingMemberException__ctor_m3710131950
e7e:__Z91RuntimeInvoker_Void_t1841601450_RuntimeObject_Int32_t2071877448_RuntimeObject_RuntimeObjectPFvvEPK10MethodInfoPvPS4_
qCc:_Array_ConstrainedCopy_m1922927602
Zqc:_SHA256_Create_m896954069
mbb:__ZN14Texture2DArray23VirtualRedirectTransferER14SafeBinaryRead
LJa:__ZNK6Camera21CalculateCanDoShadowsEv
UOg:__ZN6il2cpp2os6Thread12SetStackSizeEj
oYe:__Z99RuntimeInvoker_Void_t1841601450_Int32_t2071877448_RuntimeObject_Int32_t2071877448_Int32_t2071877448PFvvEPK10MethodInfoPvPS4_
VMd:_X509ChainElementEnumerator_get_Current_m2232618221
MOb:__ZNK8Renderer16IsVisibleInSceneEv
zI:__Z13VFormatBufferPciPKcz
pxb:__Z18Transfer_BlittableI18StreamedBinaryReadILb0EELb1EhEvRK29SerializationCommandArgumentsR31RuntimeSerializationCommandInfo
C7f:_U3CCreateWhereIteratorU3Ec__Iterator1D_1_Dispose_m1879652802_gshared
Ole:_UInt16_ToString_m3280699191
w8:__ZN6prcoreL27StretchGenericFloatBilinearI15TexFormatRFloatEEvPKNS_9InnerInfoE
kIf:__ZL56_PropertyInfo_t1567586598_CustomAttributesCacheGeneratorP21CustomAttributesCache
jJe:_Array_IndexOf_TisCustomAttributeNamedArgument_t94157543_m745056346_gshared
wpa:__Z14PadImageBorderR14ImageReferenceii
fyg:__ZN15dense_hashtableINSt3__24pairIK10KeyWrapperINS1_IPK10MethodInfoP11Il2CppClassEEEjEES9_17ReflectionMapHashIS8_EN14dense_hash_mapIS9_jSD_NS9_14EqualsComparerINS0_8equal_toIS8_EEEENS0_9allocatorISB_EEE9SelectKeyESI_SK_E4findERSA_
rpg:__ZN6il2cpp2vm13MetadataCache28GetFieldDefaultValueForFieldEPK9FieldInfo
Ope:_ArrayReadOnlyList_1_ReadOnlyError_m2289309720_gshared
gsg:__ZN6il2cpp2vm8basepathEPKc
fR:__ZN15dense_hashtableINSt3__24pairIKiiEEi21InstanceIDHashFunctorN14dense_hash_mapIiiS4_NS0_8equal_toIiEE13stl_allocatorIS3_L18MemLabelIdentifier137ELi16EEE9SelectKeyES7_SA_E14squash_deletedEv
wt:__ZN12AudioManager39HandlePendingAudioConfigurationCallbackEv
y4f:_Collection_1_System_Collections_IList_Contains_m323652826_gshared
Bj:_emscripten_glIsFramebuffer
SYe:__Z113RuntimeInvoker_Void_t1841601450_RuntimeObject_Int32_t2071877448_RuntimeObject_Int32_t2071877448_Int32_t2071877448PFvvEPK10MethodInfoPvPS4_
mRc:_Convert_ToInt64_m954367741
Fj:_JS_Sound_SetLoopPoints
fHc:_ArrayList__ctor_m1467563650
rx:__ZN12AudioManager17ShouldSourcePauseEb
FYg:__ZN6il2cpp2vm26MetadataAllocGenericMethodEv
Nta:__ZN19ConstantBuffersGLES12RecordRenderEv
dYb:__ZN9JSONWrite8TransferI10RectOffsetEEvRT_PKc17TransferMetaFlags
cpa:__ZN4crnd12symbol_codec11decode_bitsEj
h5c:_Int16_System_IConvertible_ToUInt16_m3938662625_AdjustorThunk
At:__ZN4FMOD6System12createReverbEPPNS_6ReverbE
F9:__Z16MarkDependenciesR27GarbageCollectorThreadStatej
MOd:_X509ChainElementEnumerator_Reset_m3832280427
Lhd:_MulticastDelegate_RemoveImpl_m2024746777
Fhd:_MulticastDelegate_Equals_m3064081489
Ssd:_Activator_CreateInstance_m1465989661
IJ:__ZNK9Transform11GetPositionEv
Txf:_PlayableHandle_SetPlayStateInternal_m3829195293
PEa:__ZN23SharedMeshRenderingData18UnloadVertexStreamEi
jmf:_PKCS12_Encrypt_m2154408631
OLb:__ZN19RenderEventsContextC2Ei
UB:__Z6simd4fRKf
gk:_emscripten_glEnable
AMg:__ZN6il2cpp2gc16GarbageCollector29RegisterFinalizerForNewObjectEP12Il2CppObject
K$a:__ZN10TagManager23VirtualRedirectTransferER14SafeBinaryRead
DMa:__Z15InitLightMeshesv
HNf:__ZL97WaitHandle_t677569169_CustomAttributesCacheGenerator_WaitHandle_t677569169____Handle_PropertyInfoP21CustomAttributesCache
Im:FUNCTION_TABLE_iifiii
$gd:_MonoType_HasElementTypeImpl_m1040892148
uDa:__ZN22RenderingCommandBuffer36AcquireAndRegisterSharedMaterialDataEP8Material
ktb:__Z18Transfer_BlittableI19StreamedBinaryWriteILb0EELb1E8Vector2fEvRK29SerializationCommandArgumentsR31RuntimeSerializationCommandInfo
tHf:__ZL65ClassInterfaceAttribute_t910653559_CustomAttributesCacheGeneratorP21CustomAttributesCache
lI:__Z15CleanLogHandler7LogTypePKcz
pDb:__ZN9ShaderLab19SerializedSubShader8TransferI19StreamedBinaryWriteILb0EEEEvRT_
Ujb:__ZN6Camera17RemoveImageFilterERK11ImageFilter
Kqa:__ZNSt3__218__insertion_sort_3IR25ValueParameterArraySorterPN20GpuProgramParameters14ValueParameterEEEvT0_S6_T_
RJc:_CaseInsensitiveHashCodeProvider_AreEqual_m2456617355
wKd:_WebHeaderCollection__ctor_m4088938710
qcc:__ZN11ShapeModule17MainThreadCleanupEv
wEa:__ZNSt3__214__split_bufferI20ComputeShaderVariantRNS_9allocatorIS1_EEED2Ev
vBd:_Context_set_WriteSequenceNumber_m3356252710
p4c:_Guid_Equals_m2389236871
bK:__Z27LogRepeatingStringWithFlagsRKN4core12basic_stringIcNS_20StringStorageDefaultIcEEEE15LogMessageFlagsi
d9b:__Z9ReadCacheR13dynamic_arrayI20BatchedRaycastResultLj4EERK27ParticleSystemReadOnlyStateRK19ParticleSystemStateRK23ParticleSystemParticlesRK25CollisionModuleParametersjRKjRKf
Ghb:__ZN15ResourceManagerD0Ev
vMd:_X509ExtensionCollection__ctor_m1324282194
Jjc:__ZN18UnityConnectClient33OnPlayerSessionStateChangedStaticEPS_jyy
uDf:__ZL74CaseInsensitiveHashCodeProvider_t2307530285_CustomAttributesCacheGeneratorP21CustomAttributesCache
LE:__ZNK11UnityEngine15CloudWebService23WebRequestUploadHandler11GetProgressEv
vma:__ZN7ApiGLES4LoadE16GfxDeviceLevelGL
z7a:__ZN18StreamedBinaryReadILb0EE21TransferSTLStyleArrayI13dynamic_arrayI31EnlightenSystemAtlasInformationLj8EEEEvRT_17TransferMetaFlags
Rtc:_Evidence_get_Count_m2805157382
Xoa:__ZN4crnd12crn_unpacker22decode_color_endpointsEv
HLg:__ZN15dense_hashtableI10KeyWrapperIP18Il2CppGenericClassES3_N6il2cpp8metadata22Il2CppGenericClassHashEN14dense_hash_setIS3_S6_NS3_14EqualsComparerINS5_25Il2CppGenericClassCompareEEENSt3__29allocatorIS3_EEE8IdentityESA_SD_E15insert_noresizeERKS3_
VKb:__ZZL31RegisterOtherRendererPropertiesR22GenericPropertyBindingEN30Wrapper_RendererReceiveShadows13GetFloatValueEPv
Msf:_ContextMenu__ctor_m1669818156
Hjc:__ZN11UnityEngine7Connect20BasePersistentValues10SaveValuesER9JSONWrite
iOd:_X509CertificateEnumerator_System_Collections_IEnumerator_MoveNext_m3708362145
HGa:__Z12SetupLODFadeR9GfxDeviceR17ShaderPassContextf
i4a:__ZNK14PlayableOutput7GetTypeEv
E$e:__Z203RuntimeInvoker_Boolean_t3825574718_RuntimeObject_Int32U26_t455636984_Int32_t2071877448_Int32_t2071877448_RuntimeObject_SByte_t454417549_Int32_t2071877448_ContractionU26_t2019974048_ContextU26_t3131521781PFvvEPK10MethodInfoPvPS4_
vmf:_X501_ToString_m3328169518
qMa:__ZL24CollectForwardObjectsJobP27CollectForwardObjectsHeader
eQa:__ZNK25CameraStackRenderingState24ResolveTempToEyeTexturesEv
hOa:__Z13IsNodeVisibleRK9SceneNodeRK4AABBRK22SceneCullingParameters
NVd:_DelayedFixupRecord_FixupImpl_m4249966635
Sdh:_emscripten_glStencilMask__wrapper
dmg:__ZN15dense_hashtableI10KeyWrapperIPK19Il2CppGenericMethodES4_N6il2cpp8metadata23Il2CppGenericMethodHashEN14dense_hash_setIS4_S7_NS4_14EqualsComparerINS6_26Il2CppGenericMethodCompareEEENSt3__29allocatorIS4_EEE8IdentityESB_SE_EC2ERKSH_j
rld:_BigInteger_ToString_m3837784224
rWc:_Decimal_decimalCompare_m26009298
Bgc:__ZN16NovodexAllocator8allocateEjPKcS1_i
QLa:__Z17PrepareShadowMapsRK11CullResultsRK11ActiveLightRK10MinMaxAABB
dge:_NativeEventCalls_CreateEvent_internal_m1605829321
h_d:_CryptographicException__ctor_m297795329
eve:_InternalEnumerator_1_System_Collections_IEnumerator_get_Current_m3239681450_AdjustorThunk
nMa:__ZN9ShaderLab10GrabPassesD2Ev
Wvf:_MonoBehaviour_set_useGUILayout_m2666356651
xbb:__ZN14Texture2DArray13UploadTextureEv
waa:__ZN18AwakeFromLoadQueue25RegisterObjectInstanceIDsEv
AEc:_Buffer_BlockCopy_m1586717258
tKf:__ZL93X509Certificate_t283079845_CustomAttributesCacheGenerator_X509Certificate_GetName_m2354987368P21CustomAttributesCache
qGg:__ZNSt3__26vectorIN6il2cpp2vm22EmbeddedResourceRecordENS_9allocatorIS3_EEE21__push_back_slow_pathIS3_EEvOT_
m$c:_CompareInfo_GetSortKey_m3691382873
nVc:_DBNull_ToString_m3228904745
E0b:__ZN24OptimizedPolynomialCurve19BuildOptimizedCurveERK17AnimationCurveTplIfEf
nxd:_RC4_get_IV_m506011366
Enf:_X509Crl__ctor_m2469408229
oPd:_X509SubjectKeyIdentifierExtension_CopyFrom_m136762226
A$f:_Enumerator_System_Collections_IEnumerator_Reset_m610822832_AdjustorThunk
STb:__Z41MonoBehaviour_Set_Custom_PropUseGUILayoutP12Il2CppObjecth
FQg:__ZN6il2cpp2gc16GarbageCollector9FreeFixedEPv
mmd:_BigInteger_op_Division_m1581119694
_Wd:_CallbackHandler_Invoke_m1498072969
V_d:_DSACryptoServiceProvider__ctor_m701823690
S1d:_CustomAttributeData_GetCustomAttributes_m2421330738
vKg:__ZN30dense_hashtable_const_iteratorINSt3__24pairIK10KeyWrapperINS1_IPKcS4_EEEiEES6_24NamespaceAndNamePairHashN14dense_hash_mapIS6_iS9_NS6_14EqualsComparerI26NamespaceAndNamePairEqualsEENS0_9allocatorIS8_EEE9SelectKeyESD_SF_EppEv
Jje:_Type_get_IsEnum_m313908919
KSb:__Z44Register_UnityEngine_Component_get_transformv
Lwa:__ZN17ArchiveFileSystem12MountArchiveEPKcS1_
jXb:__Z18Transfer_BlittableI9JSONWriteLb1E8Vector4fEvRK29SerializationCommandArgumentsR31RuntimeSerializationCommandInfo
Em:FUNCTION_TABLE_viififiii
Ize:_Enumerator_System_Collections_IEnumerator_Reset_m70453843_gshared
d8a:__ZThn32_NK8Renderer14GetSubsetIndexEi
j2e:__Z58RuntimeInvoker_Byte_t3683104436_IntPtr_t_Int32_t2071877448PFvvEPK10MethodInfoPvPS4_
UNe:_Dictionary_2_Do_CopyTo_TisKeyValuePair_2_t1174980068_TisRuntimeObject_m3279061992_gshared
FJb:__ZN13ProduceHelperI15ResourceManagerLb0EE7ProduceE18MemLabelIdentifier18ObjectCreationMode
Zja:__ZN9GfxDevice15ImmediateVertexEfff
fHb:__Z13RegisterClassI8MaterialEvv
K6a:__ZNK16LightmapSettings22GetTypeVirtualInternalEv
s_c:_FieldAccessException__ctor_m3893881490
Gha:__ZN13GfxDeviceGLES15SetStencilStateEPK18DeviceStencilStatei
f9e:__Z107RuntimeInvoker_Void_t1841601450_Single_t2076509932_Single_t2076509932_Single_t2076509932_Single_t2076509932PFvvEPK10MethodInfoPvPS4_
ad:_emscripten_glUniform1iv
Nwc:_String_System_IConvertible_ToDouble_m3860911722
fXa:__ZN16MemoryFileSystemD2Ev
sCb:__ZN9ShaderLab18SerializedPropertyD2Ev
Sqe:_InternalEnumerator_1_System_Collections_IEnumerator_get_Current_m1931522460_AdjustorThunk
stc:_SecurityPermission_IsEmpty_m1869313067
bOd:_X509CertificateCollection__ctor_m3709509050
zpd:_EncryptedPrivateKeyInfo_get_Salt_m2734354394
vLg:__ZNK15dense_hashtableI10KeyWrapperIP18Il2CppGenericClassES3_N6il2cpp8metadata22Il2CppGenericClassHashEN14dense_hash_setIS3_S6_NS3_14EqualsComparerINS5_25Il2CppGenericClassCompareEEENSt3__29allocatorIS3_EEE8IdentityESA_SD_E10test_emptyERK30dense_hashtable_const_iteratorIS3_S3_S6_SF_SA_SD_E
hOg:__ZN6il2cpp2os5posix15PosixWaitObject4WaitEjb
WU:__ZN15dense_hashtableINSt3__24pairIKPKcPK4RTTIEES3_N11TypeManager23ConstCharPtrHashFunctorEN14dense_hash_mapIS3_S7_SA_NS9_19ConstCharPtrEqualToE13stl_allocatorIS8_L18MemLabelIdentifier6ELi16EEE9SelectKeyESC_SF_E12resize_deltaEjj
DWa:__Z23ConvertIntegerToTypePtrItEbPvR14SafeBinaryRead
Nlb:__ZNK11MonoManager22GetTypeVirtualInternalEv
eae:_MonoMethod_MakeGenericMethod_impl_m2063853616
ivc:__Z46il2cpp_codegen_get_marshal_directive_exceptionPKc
tEb:__ZN9ShaderLab20SerializedSubProgram14AddMatrixParamEPKcii15ShaderParamTypei
xd:_glGetActiveUniformBlockName
x4c:_Guid_AppendByte_m2890893073
O0b:__ZN31CollisionModulePropertyBindings13GetFloatValueERK14ParticleSystemi
MFc:_Char_System_IConvertible_ToType_m3106771703_AdjustorThunk
pRd:_Interval_Intersects_m3480157390_AdjustorThunk
hpg:__ZN6il2cpp2vm13MetadataCache28GetGenericContainerFromIndexEi
KQe:_GCHandle_Alloc_m1063472408
su:__ZN4FMOD7Channel20set3DConeOrientationEP11FMOD_VECTOR
vm:FUNCTION_TABLE_iiifii
b_d:_CryptoConfig_CreateFromName_m391442950
NNg:__ZN6il2cpp2vm12GenericClass11SetupEventsEP11Il2CppClass
c9:__ZN19RuntimeSceneManager18LoadSceneAsyncIntoER10UnitySceneRKN4core12basic_stringIcNS2_20StringStorageDefaultIcEEEENS_11LoadingModeEb
xMc:_SortedList__ctor_m3698381356
oJg:__ZN6il2cpp2vm15ReboxIReferenceEP14Il2CppIUnknownP11Il2CppClass
Jdd:_StreamWriter_LowLevelWrite_m4205372900
Ddg:__ZN6il2cpp6icalls8mscorlib6System7Decimal14decimalCompareEP19il2cpp_decimal_reprS5_
STg:__ZThn4_N6il2cpp2vm13CachedCCWBaseINS0_13ManagedObjectEE7ReleaseEv
fKc:_CollectionBase_System_Collections_IList_get_Item_m2370387510
Wah:_glCopyTexImage2D__wrapper
wic:__ZN11UnityEngine15PlatformWrapper21GetApplicationVersionEv
k1c:_NumberFormatter_CountTrailingZeros_m2398864634
W5:__Z18ClearByDrawingQuad13GfxClearFlagsRK10ColorRGBAffjR17ShaderPassContext
vTe:_DynamicPropertyCollection_FindProperty_m1233265924
V7:__ZN6prcoreL17RemapGenericFloatI14TexFormatRHalf15TexFormatRFloatEEvPKNS_9InnerInfoE
vGa:__Z16ShouldUseShadowsb
rT:__ZN15DirectorManager21RebuildStageCallbacksEv
W8:__ZN19RuntimeSceneManager9LoadSceneERKN4core12basic_stringIcNS0_20StringStorageDefaultIcEEEES6_S6_RK9UnityGUIDiNS_11LoadingModeE
Npa:__ZN7ApiGLES10DrawArraysE16GfxPrimitiveTypejjj
fs:__ZN10SampleClip13LoadBaseSoundEv
OMg:__ZN15dense_hashtableINSt3__24pairIK10KeyWrapperIP12Il2CppObjectEN6il2cpp2gc9CachedCCWEEES5_NS7_5utils11PointerHashIS3_EEN14dense_hash_mapIS5_S9_SD_NS5_14EqualsComparerINS0_8equal_toIS4_EEEENS0_9allocatorISA_EEE9SelectKeyESI_SK_E15insert_noresizeERKSA_
V5:__ZN22DeviceMVPMatricesStateC2ER9GfxDevice
$9b:__Z9UpdateTplIL27ParticleSystemCurveEvalMode1EEvRK11MinMaxCurveS3_S3_R23ParticleSystemParticlesjjRKN4math8float3x3ERKNS6_7_float4E
Fwc:_String__ctor_m372528291
fn:FUNCTION_TABLE_iifii
P9a:__ZNSt3__26vectorI13dynamic_arrayI8Vector2fLj4EENS_9allocatorIS3_EEE6assignINS_11__wrap_iterIPS3_EEEENS_9enable_ifIXaasr21__is_forward_iteratorIT_EE5valuesr16is_constructibleIS3_NS_15iterator_traitsISC_E9referenceEEE5valueEvE4typeESC_SC_
am:FUNCTION_TABLE_iiffi
Aa:invoke_viiifi
off:_PatternCompiler_Emit_m3700775527
qcg:_EqualityComparer_1__cctor_m3033994022_gshared
ofa:__ZNK11AssetBundle14GetPreloadDataEiR13dynamic_arrayIiLj4EE
Hqd:_EncryptedData_get_EncryptedContent_m2732115576
Ge:_JS_Sound_SetPosition
Rgf:_Assertion_set_FalseExpression_m1781616372
kPd:_X509SubjectKeyIdentifierExtension_FromHexChars_m2515150420
V_:__ZN19RenderBufferManager13GetTempBufferEii17DepthBufferFormat19RenderTextureFormatj22RenderTextureReadWrite14VRTextureUsagei23RenderTextureMemoryless
Tog:__ZL13GetSharedInstPK17Il2CppGenericInst
hCf:__ZL51IReflect_t3412036974_CustomAttributesCacheGeneratorP21CustomAttributesCache
yuf:_RenderPipelineManager_CleanupRenderPipeline_m2242901458
hsf:_Component_GetComponentsInChildren_m908027537
xhc:__ZN22BaseUnityConnectClient17SaveSessionValuesEv
iVe:_CallContextRemotingData_Clone_m2226242476
_L:__Z63ThreadAndSerializationSafeCheckSetMonoBehaviourBeingTransferredP13MonoBehaviour
tMa:__Z24SetupActiveLightsContextR21ActiveLightingContextRK12ActiveLightsRK11CullResultsP14ShadowMapCacheRK10MinMaxAABB
jVc:_DBNull_System_IConvertible_ToUInt32_m2681284284
OBg:__ZNK15dense_hashtableINSt3__24pairIK10KeyWrapperIPK22Il2CppGenericParameterEPK24MonoGenericParameterInfoEES6_N6il2cpp5utils11PointerHashIS4_EEN14dense_hash_mapIS6_SA_SF_NS6_14EqualsComparerINS0_8equal_toIS5_EEEENS0_9allocatorISB_EEE9SelectKeyESK_SM_E3endEv
$0a:__ZN6Camera8TransferI24GenerateTypeTreeTransferEEvRT_
ya:invoke_iiiiiiif
va:invoke_iiiiiiii
FNd:_X509ChainElementCollection_Contains_m3599995067
QPa:__ZN8Renderer17PendingAddToSceneEv
UK:__Z21PostprocessStacktracePKcRN4core12basic_stringIcNS1_20StringStorageDefaultIcEEEE
wFd:_SslClientStream_OnLocalPrivateKeySelection_m3649986106
xhb:__ZN18StreamedBinaryReadILb0EE21TransferSTLStyleArrayI13dynamic_arrayI16SplashScreenLogoLj4EEEEvRT_17TransferMetaFlags
zHe:_Array_InternalArray__ICollection_Remove_TisX509ChainStatus_t4278378721_m4127982424_gshared
ySb:__Z47Register_UnityEngine_Camera_get_allCamerasCountv
Spc:___clang_call_terminate
Ahc:__ZN22BaseUnityConnectClient20StartEventDispatcherEv
oqa:__ZL25ProgramUniformMatrix4x3fvPK7ApiGLESjiihPKv
Gxf:_PlayableGraph_INTERNAL_CALL_CreateScriptOutputInternal_m348659249
bCa:__ZN12InputManager13InputEndFrameEv
dMc:_SyncHashtable__ctor_m2029869827
_Eg:__ZN6il2cpp2vm6Thread5SetupEP12Il2CppThread
_4f:_Collection_1_CheckWritable_m2756357359_gshared
h2g:___munmap
_Qc:_Convert_ToInt64_m1722087499
yf:_localtime_r
f9b:__ZN14ParticleSystem13KillParticlesILb1EEEvRjbR24ParticleSystemUpdateDataR23ParticleSystemParticlesjPj
Yx:__ZN4FMOD5Sound11getDefaultsEPfS1_S1_Pi
CHf:__ZL65InterfaceTypeAttribute_t4113096249_CustomAttributesCacheGeneratorP21CustomAttributesCache
Af:_strftime
d$:__ZN7Texture33SetStoredColorSpaceNoDirtyNoApplyE17TextureColorSpace
nP:__ZN12FileAccessorD2Ev
acb:__ZN14VertexDataInfoC2Ev
n_c:_Exception_GetObjectData_m2653827630
$ag:_Vector3_Equals_m2692262876_AdjustorThunk
Pte:_InternalEnumerator_1_get_Current_m2415979394_gshared
Vvb:__ZL17Transfer_GUIStyleI18StreamedBinaryReadILb1EELb1EEvRK29SerializationCommandArgumentsR31RuntimeSerializationCommandInfo
b9b:__ZNSt3__227__insertion_sort_incompleteIR31SortCollisionEventsByGameObjectP22ParticleCollisionEventEEbT0_S5_T_
Nxf:_PlayableHandle_SetInputCount_m2001045454
Krg:__ZN6il2cpp6icalls8mscorlib6SystemL9IsPrivateEPK12PropertyInfo
u5e:__Z72RuntimeInvoker_DateTime_t693205669_DateTime_t693205669_Int32_t2071877448PFvvEPK10MethodInfoPvPS4_
U1d:_CustomAttributeData_GetCustomAttributes_m3258419955
YJ:__ZN9shadertag10InitializeEv
JGa:__ZN13BatchRenderer20RenderSingleWithPassER17ShaderPassContextPK18SharedMaterialDataP6ShaderPN9ShaderLab4PassEiPKNS7_10GrabPassesEjib15BatchBreakCause
n9a:__ZN15QualitySettings14QualitySetting8TransferI24GenerateTypeTreeTransferEEvRT_
xLe:_Array_InternalArray__ICollection_CopyTo_TisParameterModifier_t1820634920_m4127516211_gshared
kzc:_DecoderReplacementFallback__ctor_m2344783488
Z$d:_OutOfMemoryException__ctor_m239206850
CXg:__ZN6il2cpp6icalls8mscorlib6System9Threading16NativeEventCalls19ResetEvent_internalE12Il2CppIntPtr
c7e:__Z88RuntimeInvoker_RuntimeObject_RuntimeObject_RuntimeObject_RuntimeObject_Int32_t2071877448PFvvEPK10MethodInfoPvPS4_
sOb:__ZN22BlockMemoryCacheWriter14LockCacheBlockEjPPhS1_
G_b:__Z22TransferField_NonArrayI8JSONRead27Converter_SimpleNativeClassI8GUIStyleEEvRK23StaticTransferFieldInfoR31RuntimeSerializationCommandInfoRT0_
eg:_llvm_eh_typeid_for
RMb:__Z13RegisterClassI10GameObjectEvv
kng:__ZNK15dense_hashtableINSt3__24pairIK10KeyWrapperIN6il2cpp5utils13dynamic_arrayIPK10Il2CppTypeLj4EEEEPFvvEEESA_NS3_8metadata19Il2CppSignatureHashEN14dense_hash_mapISA_SD_SG_NSA_14EqualsComparerINSF_22Il2CppSignatureCompareEEENS0_9allocatorISE_EEE9SelectKeyESK_SM_E5beginEv
KDf:__ZL53HashValues_t2390200547_CustomAttributesCacheGeneratorP21CustomAttributesCache
pMd:_X509BasicConstraintsExtension_get_PathLengthConstraint_m3004531343
Jfd:_MissingMemberException__ctor_m4277447068
vbe:_StrongNameKeyPair_System_Runtime_Serialization_ISerializable_GetObjectData_m1693082120
Qxb:__Z18Transfer_BlittableI18StreamedBinaryReadILb0EELb1E8Vector4fEvRK29SerializationCommandArgumentsR31RuntimeSerializationCommandInfo
IPg:__ZN6il2cpp2vm6Method8GetParamEPK10MethodInfoj
r7c:_Int64_CompareTo_m1953686218
lOe:_BaseInvokableCall_ThrowOnInvalidArg_TisSingle_t2076509932_m3470174535_gshared
rIg:__ZN6il2cpp6icalls8mscorlib6System2IO6MonoIO4ReadE12Il2CppIntPtrP11Il2CppArrayiiPi
sdh:_glBindVertexArray__wrapper
R_d:_DSA_Create_m3450041777
O3:__ZN8Material8TransferI14SafeBinaryReadEEvRT_
_4a:__ZN12CubemapArray17UploadToGfxDeviceEv
B1b:__ZN37RotationBySpeedModulePropertyBindings13AddPropertiesER10vector_mapIi22ParticleModulePropertyNSt3__24lessIiEENS2_9allocatorINS2_4pairIiS1_EEEEE
g8:__ZN6prcoreL17RemapGenericFloatI15TexFormatRGHalf17TexFormatRGBAHalfEEvPKNS_9InnerInfoE
_Q:__ZN13RuntimeStaticI21AssetReferenceStorageLb0EE16StaticInitializeEPv
bNd:_X509Chain_CheckRevocationOnChain_m2441901351
LTg:__ZN6il2cpp2vm13ManagedObject14QueryInterfaceERK10Il2CppGuidPPv
mke:_Type_GetMethod_m3650909507
Bs:__ZN11AudioSource4StopEb
Pob:__ZN14SafeBinaryRead21TransferSTLStyleArrayI13dynamic_arrayI10Matrix4x4fLj4EEEEvRT_17TransferMetaFlags
NEc:_Byte_System_IConvertible_ToDecimal_m1036493607
ZZ:__Z25GetSplashScreenBackgroundRK5RectTIfE
VU:__ZN14dense_hash_mapIPKcPK4RTTIN11TypeManager23ConstCharPtrHashFunctorENS5_19ConstCharPtrEqualToE13stl_allocatorINSt3__24pairIKS1_S4_EEL18MemLabelIdentifier6ELi16EEEixERSB_
Fkc:__ZN13RuntimeStaticI19UnityConnectServiceLb0EE16StaticInitializeEPv
Kbe:_ResourceManager__ctor_m498829021
vua:__ZN18GlslGpuProgramGLESD2Ev
XTa:__ZN13RenderTexture14SetVolumeDepthEi
$Wd:_SerializationCallbacks__ctor_m722356782
k$b:__ZN10Matrix4x4f8TransferI8JSONReadEEvRT_
OL:__ZN17PersistentManager18ReadObjectThreadedEi
Kla:__ZN25TransformFeedbackSkinning31CleanupTransformFeedbackShadersEv
eUg:__ZN6il2cpp6icalls8mscorlib6System7Runtime16CompilerServices14RuntimeHelpers15InitializeArrayEP11Il2CppArray12Il2CppIntPtr
MFa:__Z22scripting_object_unbox18ScriptingObjectPtr
Ruf:_Input_GetMouseButton_m464100923
EId:_DefaultUriParser__ctor_m4218024811
MVc:_Decimal_System_IConvertible_ToInt16_m3159038792_AdjustorThunk
sab:__ZN10VertexData8TransferI18StreamedBinaryReadILb0EEEEvRT_
krd:_PKCS12_GetExistingParameters_m2413397265
I7f:_Nullable_1_get_Value_m1743067844_gshared
hUa:__ZN14PreloadManager16UpdatePreloadingEv
d3b:__ZN11NoiseModule8TransferI14SafeBinaryReadEEvRT_
gRg:__ZN14dense_hash_mapI10KeyWrapperIPK19Il2CppGenericMethodEP10MethodInfoN6il2cpp8metadata23Il2CppGenericMethodHashENS4_14EqualsComparerINS8_26Il2CppGenericMethodCompareEEENSt3__29allocatorINSD_4pairIKS4_S6_EEEEEC2EjRKS9_RKSC_
mZa:__ZNK21UnityDefaultAllocatorI17LowLevelAllocatorE8ContainsEPKv
nh:_emscripten_get_main_loop_timing
N9c:_DirectoryInfo__ctor_m3750996792
m9a:__ZN24GenerateTypeTreeTransfer21TransferSTLStyleArrayINSt3__26vectorIN15QualitySettings14QualitySettingENS1_9allocatorIS4_EEEEEEvRT_17TransferMetaFlags
Rfb:__ZNSt3__26vectorI9InputAxisNS_9allocatorIS1_EEE6resizeEj
QGa:__ZN13BatchRendererC2ER15RenderLoopStatsRK15RenderNodeQueuebbb
ztc:_SecurityElement_IsValidAttributeValue_m483287146
lzc:_Decoder_set_Fallback_m1780632169
H2b:__ZNK15PolynomialCurve18EvaluateIntegratedERKN4math7_float4E
Vn:getTempRet0
O1b:__ZN26SizeModulePropertyBindings13GetFloatValueERK14ParticleSystemi
ixd:_PrivateKeyInfo_RemoveLeadingZero_m3396807048
VFg:__ZN6il2cpp6icalls8mscorlib6System9ThreadingL21lookup_cached_cultureEP12Il2CppThreadi
qNa:__ZN18DeferredRenderLoopD2Ev
y0:__ZNK16TypeTreeIterator4NameEv
NO:__ZN15FileSystemEntry3SetEPKc
Lnc:_MACTripleDES__ctor_m884945242
bu:__ZN20SoundChannelInstance15ParameterBuffer5ApplyEPN4FMOD7ChannelE
Nhc:__ZN11UnityEngine15PlatformWrapper24GetRuntimePlatformStringEv
Yh:_glIsEnabled
rSg:__ZNSt3__212basic_stringIDsNS_11char_traitsIDsEENS_9allocatorIDsEEE9push_backEDs
zkb:__Z25scripting_class_get_image17ScriptingClassPtr
Lcc:__ZN8UVModuleD0Ev
ai:_emscripten_glDrawElementsInstanced
Kvd:_ARC4Managed_Dispose_m4102232694
cwd:_HMAC_Initialize_m3052649104
DLd:_OidCollection_get_Item_m1091387424
kFb:__ZN9Transform17MainThreadCleanupEv
oWg:_GC_clear_hdr_marks
neh:_emscripten_glCreateShader__wrapper
hHf:__ZL73CompilationRelaxationsAttribute_t238494011_CustomAttributesCacheGeneratorP21CustomAttributesCache
Crc:_SHA512Managed_processBlock_m3220567420
YHd:_NameObjectCollectionBase_get_Keys_m446053925
ki:_emscripten_glGetShaderiv
dv:__ZN4FMOD6System10getVersionEPj
mad:_FileLoadException_GetObjectData_m2047020314
RJe:_Array_InternalArray__IndexOf_TisSByte_t454417549_m1427585061_gshared
gOc:_Decimal_u64_m3991988111
Mlf:_X509Certificate_Parse_m1764345628
Caf:__Z70RuntimeInvoker_Void_t1841601450_Guid_t_RuntimeObject_Int32_t2071877448PFvvEPK10MethodInfoPvPS4_
Gia:__ZN9GfxDevice21ReleaseSharedMeshDataEP14SharedMeshData
Ggb:__ZNSt3__27__sort5IRNS_6__lessINS_4pairIPKN5Unity4TypeE7Hash128EES8_EEPS8_EEjT0_SC_SC_SC_SC_T_
CMc:_Enumerator_Reset_m466659019
vVg:_GC_unreachable_finalize_mark_proc
TWg:_maybe_finalize
sj:_emscripten_glGetProgramiv
dZe:__Z50RuntimeInvoker_Void_t1841601450_Single_t2076509932PFvvEPK10MethodInfoPvPS4_
SUc:_DateTimeOffset_get_DateTime_m229084964_AdjustorThunk
B3:__ZN8Material28UpdateHashesOnPropertyChangeEN9ShaderLab16FastPropertyNameE
h9c:_DirectoryInfo_get_Parent_m1198766078
OJc:_CaseInsensitiveComparer_Compare_m1192858479
Pmb:__Z18Transfer_BlittableI14SafeBinaryReadLb1E8Vector4fEvRK29SerializationCommandArgumentsR31RuntimeSerializationCommandInfo
Pka:__ZN13GfxDeviceGLES20SetComputeBufferDataE15ComputeBufferIDPKvjj
E1d:_Default_SelectMethod_m622251293
UJg:__ZN6il2cpp2vm5Image13ClassFromNameEPK11Il2CppImagePKcS6_
t5g:dynCall_vdddddd
CCb:__ZN24GenerateTypeTreeTransfer21TransferSTLStyleArrayINSt3__26vectorIN9ShaderLab14SerializedPassENS1_9allocatorIS4_EEEEEEvRT_17TransferMetaFlags
IK:__ZL32MarkLevelGameManagerDependenciesR27GarbageCollectorThreadState
Wka:__ZNK13GfxDeviceGLES26HasActiveRandomWriteTargetEv
tmc:__ZN20UnityWebRequestProtoI19TransportJavaScript16AtomicRefCounter14RedirectHelper14ResponseHelper15DownloadHandler13UploadHandler12HeaderHelper14AsyncOperationE5BeginEv
v9g:_glGetActiveUniformsiv__wrapper
SM:__ZN13MonoBehaviour19SetupScriptingCacheE17ScriptingClassPtrP10MonoScript
bBe:_ShimEnumerator_get_Current_m3610131784_gshared
bZf:__ZL74UnityEventBase_t828812576_CustomAttributesCacheGenerator_m_PersistentCallsP21CustomAttributesCache
OT:__ZZN15DirectorManager15InitializeClassEvEN52PreLateUpdateDirectorUpdateAnimationBeginRegistrator7ForwardEv
VHg:__ZN6il2cpp2vm13LivenessState18ShouldProcessValueEP12Il2CppObjectP11Il2CppClass
_Bb:__ZNSt3__26vectorIN9ShaderLab14SerializedPassENS_9allocatorIS2_EEE8__appendEj
qBb:__ZNSt3__26vectorIN9ShaderLab20SerializedSubProgram13BufferBindingENS_9allocatorIS3_EEEC2INS_11__wrap_iterIPS3_EEEET_SB_RKS5_PNS_9enable_ifIXaasr21__is_forward_iteratorISB_EE5valuesr16is_constructibleIS3_NS_15iterator_traitsISB_E9referenceEEE5valueEvE4typeE
s6a:__ZN9Texture2D23VirtualRedirectTransferER18StreamedBinaryReadILb0EE
sYc:_Double_System_IConvertible_ToUInt16_m286326038_AdjustorThunk
jVd:_TypeInfo__ctor_m1475908211
Z$a:__ZNSt3__26__treeINS_12__value_typeIN4core12basic_stringIcNS2_20StringStorageDefaultIcEEEEjEENS_19__map_value_compareIS6_S7_NS_4lessIS6_EELb1EEE13stl_allocatorIS7_L18MemLabelIdentifier6ELi16EEE7destroyEPNS_11__tree_nodeIS7_PvEE
yN:__ZN16ScriptingManager27NativeTypeForScriptingClassE17ScriptingClassPtr
cNd:_X509Chain_WrapUp_m1072032285
gnf:_X509CertificateEnumerator_System_Collections_IEnumerator_MoveNext_m1448966539
GAd:_TlsServerHelloDone__ctor_m2125611008
z_d:_DES_get_Key_m2584608215
EOa:__ZL22ScheduleSceneNodesJobsP25ScheduleSceneNodesJobDataj
_j:_emscripten_set_canvas_size
wud:_BigInteger_op_Subtraction_m972393015
IBb:__ZNSt3__26vectorIN9ShaderLab20SerializedSubProgramENS_9allocatorIS2_EEE8__appendEj
wH:__ZN20DynamicHeapAllocatorI17LowLevelAllocatorE8AllocateEji
qHa:__ZN20DynamicPropertySheet15SetVectorQueuedERKN9ShaderLab16FastPropertyNameERK8Vector4fN19ShaderPropertySheet8SetFlagsE
jyc:_String_Format_m1263743648
l3a:__ZN14RenderSettings23VirtualRedirectTransferER19StreamedBinaryWriteILb0EE
yXb:__ZL26Transfer_SimpleNativeClassI9JSONWrite10RectOffsetLb0EEvRK29SerializationCommandArgumentsR31RuntimeSerializationCommandInfo
hoa:__ZN17GenericDynamicVBO10AllocateVBEjR21DynamicVBOChunkHandle
Y1f:_List_1_get_Item_m1547593893_gshared
y9c:_Path_GetPathRoot_m1269357080
tLg:__ZN30dense_hashtable_const_iteratorI10KeyWrapperIP18Il2CppGenericClassES3_N6il2cpp8metadata22Il2CppGenericClassHashEN14dense_hash_setIS3_S6_NS3_14EqualsComparerINS5_25Il2CppGenericClassCompareEEENSt3__29allocatorIS3_EEE8IdentityESA_SD_EppEv
xk:_glMapBufferRange
k6a:__ZN9Texture2D8TransferI18StreamedBinaryReadILb0EEEEvRT_
tTb:__Z31Input_CUSTOM_GetMouseButtonDowni
pUb:__Z75Register_UnityEngine_Playables_PlayableHandle_INTERNAL_CALL_IsValidInternalv
I9d:_MonoGenericMethod_get_ReflectedType_m3194343466
tfa:__ZN13LoadOperation19IntegrateTimeSlicedEi
Bpe:_ArrayReadOnlyList_1_get_Item_m176001975_gshared
Rrd:_X501__cctor_m3795360380
fla:__ZN13GfxDeviceGLES22DispatchComputeProgramE12ObjectHandleI18ComputeProgram_TagPvE15ComputeBufferIDj
TQc:_Convert_ToInt32_m2297793940
Bda:__Z17TransformAABBSlowRK4AABBRK10Matrix4x4fRS_
f7a:__ZN15SerializeTraitsI13dynamic_arrayI7Hash128Lj8EEE19ResizeSTLStyleArrayERS2_i18MemLabelIdentifier
KCg:__ZN13Il2CppHashMapINSt3__24pairIPK9FieldInfoP11Il2CppClassEEj17ReflectionMapHashIS7_ENS0_8equal_toIS7_EENS0_9allocatorINS1_IK10KeyWrapperIS7_EjEEEEEC2EjRKS9_RKSB_
sAb:__ZN9ShaderLab21SerializedShaderState8TransferI14SafeBinaryReadEEvRT_
N2g:_ftruncate
Aqc:_RSAPKCS1SignatureFormatter_SetKey_m2365816458
Tfe:_CompressedStack__ctor_m276924800
J4:__ZN15SerializeTraitsINSt3__24pairIN4core12basic_stringIcNS2_20StringStorageDefaultIcEEEES6_EEE8TransferI24GenerateTypeTreeTransferEEvRS7_RT_
Eeh:b88
weh:b81
veh:b80
msa:__ZN7ApiGLES19CreateSparseTextureEjj14GraphicsFormatiiiiRiS1_S1_
cO:__ZN18ResourceImageGroup7CleanupEv
Beh:b85
zeh:b84
Deh:b87
Ceh:b86
Jcf:__Z68RuntimeInvoker_Void_t1841601450_Int32_t2071877448_Double_t4078015681PFvvEPK10MethodInfoPvPS4_
FLb:__ZN13ProduceHelperI4MeshLb0EE7ProduceE18MemLabelIdentifier18ObjectCreationMode
gxd:_PrivateKeyInfo_Decode_m1053025782
Uqd:_PKCS12_Decrypt_m2457743414
Z3a:__ZN8Playable19SetOutputConnectionEPS_i
qkg:__ZN15dense_hashtableINSt3__24pairIK10KeyWrapperIPK11Il2CppClassEPKcEES6_N6il2cpp5utils11PointerHashIS3_EEN14dense_hash_mapIS6_S9_SE_NS6_14EqualsComparerINS0_8equal_toIS5_EEEENS0_9allocatorISA_EEE9SelectKeyESJ_SL_EC2ERKSO_j
kl:_glDeleteShader
i_c:_Exception_GetType_m3898489832
b8:__ZN6prcoreL17RemapGenericFloatI15TexFormatRGHalf16TexFormatRGFloatEEvPKNS_9InnerInfoE
cRb:__Z27scripting_add_internal_callPKcPKv
yMe:_Array_InternalArray__Insert_TisUriScheme_t1876590943_m2728325409_gshared
uCg:__ZN13Il2CppHashMapINSt3__24pairIPK9EventInfoP11Il2CppClassEEj17ReflectionMapHashIS7_ENS0_8equal_toIS7_EENS0_9allocatorINS1_IK10KeyWrapperIS7_EjEEEEEC2EjRKS9_RKSB_
ZLg:__GLOBAL__sub_I_GarbageCollector_cpp
tnf:_X509Store_CheckStore_m1027496478
G0:__ZN13RenderTexture8TransferI24GenerateTypeTreeTransferEEvRT_
sye:_DefaultComparer_Compare_m1606207039_gshared
GZg:__ZN6il2cpp2vm9Parameter30GetDefaultParameterValueObjectEPK10MethodInfoPK13ParameterInfoPb
AGb:__ZN15dense_hashtableINSt3__24pairIKN4core12basic_stringIcNS2_20StringStorageDefaultIcEEEE10vector_setI4PPtrI11SpriteAtlasENS0_4lessISB_EE13stl_allocatorISB_L18MemLabelIdentifier79ELi16EEEEES6_20StringHash32FunctionIS6_EN14dense_hash_mapIS6_SH_SK_NS0_8equal_toIS6_EESE_ISI_LSF_79ELi16EEE9SelectKeyESN_SO_E12maybe_shrinkEv
_Me:_Array_InternalArray__set_Item_TisLabelData_t3712112744_m2253365137_gshared
dZa:__ZNK25ThreadsafeLinearAllocator22GetAllocatedMemorySizeEv
Dvf:_MonoBehaviour_Invoke_m666563676
WDd:_RecordProtocol_InternalReceiveRecordCallback_m2228921492
Qdd:_StringReader__ctor_m643998729
zJd:_IPv6Address_TryParse_m2220524278
mTe:_Context_get_DefaultContext_m2211922324
Dcb:__ZN12BoneWeights48TransferI24GenerateTypeTreeTransferEEvRT_
xxd:_RSAManaged_GetPaddedValue_m2972141669
kZ:__Z19scripting_gc_enablev
$lc:__ZN20UnityWebRequestProtoI19TransportJavaScript16AtomicRefCounter14RedirectHelper14ResponseHelper15DownloadHandler13UploadHandler12HeaderHelper14AsyncOperationE9DoRequestEv
VAa:__ZZ23InitPlayerLoopCallbacksvEN41InitializationPlayerUpdateTimeRegistrator7ForwardEv
tRd:_Interval_CompareTo_m2909556284_AdjustorThunk
Ybb:__ZN14SafeBinaryRead21TransferSTLStyleArrayI13dynamic_arrayI11ColorRGBA32Lj4EEEEvRT_17TransferMetaFlags
kQd:_Interpreter_GetLastDefined_m2450713313
ahf:_Parser_ParseAssertionType_m3316669790
cEb:__ZN9ShaderLab7Program27CreateFromSerializedProgramERKNS_17SerializedProgramE10ShaderTypeiP16PropertyNamesSetPK6Shader
YAg:__ZN6il2cpp2gc19AppendOnlyGCHashMapINSt3__24pairIPK11Il2CppImageP11Il2CppClassEEP22Il2CppReflectionModule17ReflectionMapHashIS9_ENS2_8equal_toIS9_EEEC2Ev
LL:__Z20GetPersistentManagerv
CW:__ZN21SystemInfoStringCache16StaticInitializeEPv
Uyd:_TlsStream__ctor_m4117943603
zQg:__ZN6il2cpp2gc16GarbageCollector23MakeDescriptorForObjectEPji
jbe:_ParameterModifier_t1820634920_marshal_pinvoke
Bjb:__ZNK13MonoBehaviour7GetNameEv
L9:__ZN19ScriptingInvocation28AdjustArgumentsToMatchMethodEv
FLg:__ZN15dense_hashtableI10KeyWrapperIP18Il2CppGenericClassES3_N6il2cpp8metadata22Il2CppGenericClassHashEN14dense_hash_setIS3_S6_NS3_14EqualsComparerINS5_25Il2CppGenericClassCompareEEENSt3__29allocatorIS3_EEE8IdentityESA_SD_E6insertERKS3_
Qx:__Z15_CheckFMODError11FMOD_RESULTPKciS1_
L2a:__Z20RenderMultipleMeshesRK15RenderNodeQueueRK18RenderMultipleData17ShaderChannelMask
Tvg:__ZN6il2cpp2vm4Type19GetGenericParameterEPK10Il2CppType
p6b:__ZN11ShapeModule5ResetEv
bye:_InternalEnumerator_1_get_Current_m2826780083_gshared
h$b:__ZN8JSONRead21TransferSTLStyleArrayI13dynamic_arrayI11ColorRGBA32Lj4EEEEvRT_18MemLabelIdentifier17TransferMetaFlags
Rc:_glBeginQuery
u0d:_Assembly_GetCustomAttributes_m95309865
OCa:__ZN6Camera12RenderStereoENS_10RenderFlagE8CullFlagPNS_24PerformEyeRenderFunctionE
BX:__ZN20LocalFileSystemPosix10ToAbsoluteEPKc
I2a:__ZN20TierGraphicsSettings8TransferI19StreamedBinaryWriteILb0EEEEvRT_
BZc:_Enum_ToObject_m275924358
Ul:f0
YHc:_ArrayListWrapper_set_Capacity_m2792463350
F1g:_getcwd
Zde:_StringBuilder_Append_m1128243247
XYa:__ZN25ThreadsafeLinearAllocatorD2Ev
JZ:__Z21SendMessageToEveryoneRK17MessageIdentifier11MessageData
LR:__ZN21BillboardBatchManager16StaticInitializeEPv
Gwf:_Object_get_name_m2079638459
FI:__ZN12_GLOBAL__N_138ArchiveRedirectFileSystemStaticDestroyEPv
$Zc:_EventHandler_Invoke_m1137722757
X4a:__ZN12CubemapArray34UpdateFileTextureUploadInstructionEP26FileAssetUploadInstructionj
ehd:_MonoType_IsSubclassOf_m2211166238
ed:_emscripten_glUniform3iv
lsa:__Z23CreateSparseTextureGLES9TextureIDii14GraphicsFormati
L$e:__Z98RuntimeInvoker_Void_t1841601450_Int32_t2071877448_Int32_t2071877448_RuntimeObject_SByte_t454417549PFvvEPK10MethodInfoPvPS4_
JOd:_X509ChainElementCollection_System_Collections_IEnumerable_GetEnumerator_m2559704689
ZLd:_PublicKey_get_Key_m126090744
m2b:__ZN14ParticleSystem4StopE26ParticleSystemStopBehavior
Ned:_UnexceptionalStreamReader_Peek_m1725179274
Qwa:__ZN17ArchiveFileSystem10AddStorageEP20ArchiveStorageReader
_5b:__ZN9SubModule8TransferI19StreamedBinaryWriteILb0EEEEvRT_
SFe:_EqualityComparer_1_System_Collections_IEqualityComparer_GetHashCode_m1203798961_gshared
Eig:__ZN6il2cpp2vm5Class15GetEnumBaseTypeEP11Il2CppClass
E5a:__ZNK9Texture2D16GetNpotTexelSizeEv
vac:__Z20EvaluateSlowThreadedRK11MinMaxCurveRNS_5CacheERKN4math7_float4ES7_
moa:__ZN9GfxDevice22GetDefaultVertexBufferE26GfxDefaultVertexBufferTypej
X1g:___fseeko_unlocked
P1g:_sscanf
qcb:__ZN14SafeBinaryRead21TransferSTLStyleArrayINSt3__26vectorI17BlendShapeChannelNS1_9allocatorIS3_EEEEEEvRT_17TransferMetaFlags
Z5:__Z17BeginSplashScreenv
nDb:__ZN9ShaderLab16SerializedShader8TransferI19StreamedBinaryWriteILb0EEEEvRT_
tNc:_Stack_Pop_m3788808882
rUc:_DateTime_op_Equality_m1867073872
KDg:__ZN14dense_hash_mapI10KeyWrapperIP11Il2CppClassES2_N6il2cpp8metadata16SZArrayClassHashENS3_14EqualsComparerINS5_19SZArrayClassCompareEEENSt3__29allocatorINSA_4pairIKS3_S2_EEEEE15set_deleted_keyERSD_
Tna:__ZN18GfxFramebufferGLES18GetFramebufferNameERK20GfxRenderTargetSetup
nIg:__ZN6il2cpp6icalls8mscorlib6System2IO6MonoIO11GetFileTypeE12Il2CppIntPtrPi
nT:__ZN13PlayableGraph27SchedulePlayableDestructionERK9HPlayable
y8g:_glGetFramebufferAttachmentParameteriv__wrapper
klc:__Z13RegisterClassI20UnityConnectSettingsEvv
Lnb:__Z22scripting_array_length17ScriptingArrayPtr
vtc:_SecurityElement_GetAttribute_m4288291176
ada:__ZN14SafeBinaryRead20TransferTypelessDataEjPvi
wuf:_RenderPipelineManager_get_currentPipeline_m679160301
kHf:__ZL66StringFreezingAttribute_t2691375565_CustomAttributesCacheGeneratorP21CustomAttributesCache
qWb:__ZN9rapidjson13GenericReaderINS_4UTF8IcEES2_13JSONAllocatorE10ParseFalseILj1ENS_25GenericInsituStringStreamIS2_EENS_15GenericDocumentIS2_S3_S3_EEEEvRT0_RT1_
vx:__ZN13dynamic_arrayI12SoundChannelLj4EE9push_backERKS0_
tJ:__Z19GetActiveColorSpacev
m5b:__ZN17SizeBySpeedModule8TransferI18StreamedBinaryReadILb0EEEEvRT_
vcg:_EqualityComparer_1__cctor_m1672307556_gshared
nTd:_SoapTypeAttribute_get_IsInteropXmlElement_m2941294827
tfb:__ZN14SpriteRenderer18UpdateCachedSpriteEv
qGc:_Char_System_IConvertible_ToUInt32_m1557991717_AdjustorThunk
bde:_Encoding_get_UTF8Unmarked_m628720656
g1c:_NumberFormatter_RoundBits_m1545255255
aK:__Z6StrCmpPKcS0_
MEb:__Z21CheckGpuProgramUsable20ShaderGpuProgramType
n1d:_Binder__cctor_m3736115807
RPg:__ZN6il2cpp2os9Directory20GetFileSystemEntriesERKNSt3__212basic_stringIcNS2_11char_traitsIcEENS2_9allocatorIcEEEESA_iiPi
WEe:_Dictionary_2_OnDeserialization_m2160537783_gshared
Dbf:__Z55RuntimeInvoker_Int32_t2071877448_TableRange_t2011406615PFvvEPK10MethodInfoPvPS4_
vhb:__ZN12AspectRatios8TransferI18StreamedBinaryReadILb0EEEEvRT_
ZMb:__ZN10GameObject14CopyPropertiesERS_
Vpc:_RSACryptoServiceProvider_Common_m2581564813
Ulf:_X509CertificateEnumerator_MoveNext_m4060814498
Qbd:_MemoryStream_CheckIfClosedThrowDisposed_m2253054610
Zpe:_ArrayReadOnlyList_1_GetEnumerator_m634288642_gshared
EUa:__ZNK13ScreenManager12IsFullScreenEv
q2g:_rand
$8g:_emscripten_glFramebufferRenderbuffer__wrapper
NQg:__ZN6il2cpp5utils9PathUtils7CombineIcEENSt3__212basic_stringIT_NS3_11char_traitsIS5_EENS3_9allocatorIS5_EEEERKNS0_10StringViewIS5_EERKSA_
e0e:__Z77RuntimeInvoker_Void_t1841601450_RuntimeObject_Int32_t2071877448_RuntimeObjectPFvvEPK10MethodInfoPvPS4_
aYd:_SerializationInfo_GetInt32_m4039439501
WRb:__Z60Register_UnityEngine_AsyncOperation_set_allowSceneActivationv
kOa:__Z22PrepareOptimizedPlanesPK5PlaneiPKN4math7_float4E
ZF:__ZN11UnityEngine15CloudWebService17WebFileDownloaderINS0_20WebRequestRestClientENS0_23WebRequestRestHeaderMapEE10InitializeERKN4core12basic_stringIcNS5_20StringStorageDefaultIcEEEE
JR:__ZN17UniqueIDGenerator15CreatePureIndexEv
lq:__ZN11UnityEngine9Animation28GenericAnimationBindingCache15DidReloadDomainEv
dtd:_AppDomain_InternalGetProcessGuid_m1278588156
dae:_MonoMethod_MakeGenericMethod_m3628255919
m_e:__Z116RuntimeInvoker_Boolean_t3825574718_RuntimeObject_Int32_t2071877448_RuntimeObject_Int32_t2071877448_Int32_t2071877448PFvvEPK10MethodInfoPvPS4_
Q8c:_BinaryReader_ReadBoolean_m2892291883
Uhg:__ZN15dense_hashtableINSt3__24pairIK10KeyWrapperIPK22Il2CppGenericParameterEP11Il2CppClassEES6_N6il2cpp5utils11PointerHashIS4_EEN14dense_hash_mapIS6_S9_SE_NS6_14EqualsComparerINS0_8equal_toIS5_EEEENS0_9allocatorISA_EEE9SelectKeyESJ_SL_E14squash_deletedEv
hib:__ZNSt3__26__treeINS_12__value_typeIN4core12basic_stringIcNS2_20StringStorageDefaultIcEEEE4PPtrI6ObjectEEENS_19__map_value_compareIS6_SA_NS_4lessIS6_EELb1EEE13stl_allocatorISA_L18MemLabelIdentifier51ELi16EEE7destroyEPNS_11__tree_nodeISA_PvEE
ezc:_ASCIIEncoding_GetString_m3931709239
JJ:__ZNK9Transform18TransformDirectionERK8Vector3f
Qdh:_emscripten_glClearStencil__wrapper
eog:__ZN15dense_hashtableINSt3__24pairIK10KeyWrapperIPK11Il2CppClassEPKcEES6_N6il2cpp5utils11PointerHashIS3_EEN14dense_hash_mapIS6_S9_SE_NS6_14EqualsComparerINS0_8equal_toIS5_EEEENS0_9allocatorISA_EEE9SelectKeyESJ_SL_E12resize_deltaEjj
_3g:__ZNK10__cxxabiv120__si_class_type_info27has_unambiguous_public_baseEPNS_19__dynamic_cast_infoEPvi
Z6g:_glTexSubImage3D__wrapper
IPd:_FactoryCache_Add_m2602974721
loa:__Z30AddDefaultStreamsToMeshBuffersR9GfxDeviceR11MeshBuffersj17ShaderChannelMaskS3_
HQ:__ZL16GetInterfaceImpl18UnityInterfaceGUID
b3c:_RegionInfo_construct_internal_region_from_name_m3316088619
Xig:__ZN6il2cpp2vmL17SetupFieldOffsetsENS0_15FieldLayoutKindEP11Il2CppClassjRKNSt3__26vectorIjNS4_9allocatorIjEEEE
Q0f:_List_1_System_Collections_IList_get_Item_m936612973_gshared
GSg:__ZN6il2cpp6icalls8mscorlib6System15MonoCustomAttrs27GetCustomAttributesInternalEP12Il2CppObjectP20Il2CppReflectionTypeb
L$b:__ZN8JSONRead21TransferSTLStyleArrayI13dynamic_arrayI8Vector3fLj4EEEEvRT_18MemLabelIdentifier17TransferMetaFlags
FWd:_ObjectReader_ReadAssembly_m869834280
a4d:_EnumBuilder_GetPropertyImpl_m2717304076
yt:__ZL31InitializeAudioScriptingClassesv
fFa:__Z14SortGUIByDepthP10GUIElementS0_
P5c:_NumberFormatter_NumberToString_m126384393
l8b:__Z19UpdateProceduralTplIL27ParticleSystemCurveEvalMode0EEvRK20DualMinMaxPolyCurvesR23ParticleSystemParticlesPfRKN4math7_float4E
RVe:_LogicalCallContext__ctor_m3173272863
Sfd:_MonoCustomAttrs__cctor_m2608447972
C5c:_Int32_FindSign_m3803672540
lY:__ZNK20LocalFileSystemPosix21GetAvailableDiskSpaceEPKcRy
V_e:__Z88RuntimeInvoker_RuntimeObject_Int32_t2071877448_RuntimeObject_RuntimeObject_RuntimeObjectPFvvEPK10MethodInfoPvPS4_
sMd:_X509Certificate2__ctor_m1095336775
Uha:__ZNK9GfxDevice14GetWorldMatrixEv
Aae:_MonoProperty_GetGetMethod_m1100580870
Pze:_Enumerator_System_Collections_IDictionaryEnumerator_get_Key_m1214978221_AdjustorThunk
ox:__ZN11SoundHandle13CreateChannelEb
h2e:__Z90RuntimeInvoker_Void_t1841601450_IntPtr_t_Int32_t2071877448_RuntimeObject_Int32_t2071877448PFvvEPK10MethodInfoPvPS4_
T6a:__ZN14SafeBinaryRead21TransferSTLStyleArrayI13dynamic_arrayI12LightmapDataLj4EEEEvRT_17TransferMetaFlags
xtd:_ArgumentException__ctor_m3312963299
PBb:__ZNSt3__26vectorIN9ShaderLab20SerializedSubProgram16TextureParameterENS_9allocatorIS3_EEE6assignIPS3_EENS_9enable_ifIXaasr21__is_forward_iteratorIT_EE5valuesr16is_constructibleIS3_NS_15iterator_traitsISA_E9referenceEEE5valueEvE4typeESA_SA_
Kmg:__ZN13Il2CppHashMapIN6il2cpp5utils13dynamic_arrayIPK10Il2CppTypeLj4EEEPFvvENS0_8metadata19Il2CppSignatureHashENS9_22Il2CppSignatureCompareENSt3__29allocatorINSC_4pairIK10KeyWrapperIS6_ES8_EEEEEC2EjRKSA_RKSB_
EBg:__ZN15dense_hashtableINSt3__24pairIK10KeyWrapperIPK22Il2CppGenericParameterEPK24MonoGenericParameterInfoEES6_N6il2cpp5utils11PointerHashIS4_EEN14dense_hash_mapIS6_SA_SF_NS6_14EqualsComparerINS0_8equal_toIS5_EEEENS0_9allocatorISB_EEE9SelectKeyESK_SM_E15set_deleted_keyERKSB_
VFb:__ZN6prcoreL11inner_clearILj2EEEvPhjjj
mPd:_X509SubjectKeyIdentifierExtension__ctor_m3887138480
p$f:_Enumerator_System_Collections_IEnumerator_get_Current_m2853089017_AdjustorThunk
cg:_emscripten_exit_fullscreen
NQe:_GCHandle_Free_m1639542352_AdjustorThunk
zBd:_Context_set_ClientRandom_m631392719
DOg:__ZN6il2cpp6icalls8mscorlib6System6String19InternalAllocateStrEi
F$b:__Z29Transfer_Blittable_ArrayFieldI8JSONRead11QuaternionfEvRT_R9ArrayInfoRK23StaticTransferFieldInfo
nJf:__ZL65SoapParameterAttribute_t2780084514_CustomAttributesCacheGeneratorP21CustomAttributesCache
lLb:__ZNK24RendererAnimationBinding15GenerateBindingERKN4core12basic_stringIcNS0_20StringStorageDefaultIcEEEEbRN11UnityEngine9Animation14GenericBindingE
X1a:__Z15GetFlareManagerv
eff:_Enumerator_System_Collections_IEnumerator_get_Current_m1429268283
i6f:_ReadOnlyCollection_1_System_Collections_Generic_ICollectionU3CTU3E_Clear_m388357963_gshared
u0g:___toread
KF:__ZN19CloudServiceHandler10QueueEventEPN11UnityEngine15CloudWebService14CloudEventInfoE
B4g:___cxa_is_pointer_type
Ara:__ZN4gles20DestroyRenderSurfaceEP7ApiGLESP17RenderSurfaceGLES
o$f:_Enumerator_System_Collections_IEnumerator_get_Current_m2853089017_gshared
w5:__ZN17PersistentManager40GlobalToLocalSerializedFileIndexInternalERK26SerializedObjectIdentifier
_C:__ZN11UnityEngine15CloudWebService17SessionEventQueue14ParseEventDataERKN4core12basic_stringIcNS2_20StringStorageDefaultIcEEEE
jkd:_SimpleCollator_CompareOrdinal_m2176988387
O_c:_CCGregorianCalendar_GetYear_m1289900195
N5c:_Int16_ToString_m2592645088
nvd:_ASN1_DecodeTLV_m2898581687
TA:__Z60AudioClipPlayable_CUSTOM_INTERNAL_CALL_GetPauseDelayInternalR9HPlayable
eYd:_SerializationInfoEnumerator_Reset_m2206466680
Z8g:_emscripten_glGetShaderPrecisionFormat__wrapper
OZg:__ZN6il2cpp5utils9Exception26FormatInvalidCastExceptionEPK11Il2CppClassS4_
Vib:__ZNSt3__26vectorIN30RuntimeInitializeOnLoadManager15ClassMethodInfoE13stl_allocatorIS2_L18MemLabelIdentifier12ELi16EEE8__appendEj
VIb:__ZN13ProduceHelperI10TagManagerLb0EE7ProduceE18MemLabelIdentifier18ObjectCreationMode
gUg:__ZN6il2cpp8metadataL7CompareEPK10Il2CppTypeS3_
L2d:_TypeBuilder_get_is_created_m736553860
pxd:_RSAManaged__ctor_m1370411656
P4a:__ZN12CubemapArray23VirtualRedirectTransferER17RemapPPtrTransfer
vQb:__ZL27GetComponentsImplementationILb0ELi0EEbR10GameObjectbRK17CompareParametersRK39GetComponentsImplementation_ReturnValue
fN:__Z21CreateMonoScriptCacheRKN4core12basic_stringIcNS_20StringStorageDefaultIcEEEE17ScriptingClassPtr22InitScriptingCacheTypeP6Objecti
ikb:__ZN9Scripting36IsSystemCollectionsGenericDictionaryE17ScriptingClassPtr
gif:_BalancingGroup__ctor_m2474435406
HO:__ZL16ReadTypeTreeImplILb0EEbR8TypeTreeRK16TypeTreeIteratorRPKhS6_i
AUb:__Z28PlayableOutputValidityChecksRK15HPlayableOutput
YEc:_Byte_System_IConvertible_ToInt32_m1032609763_AdjustorThunk
C3a:__ZNK22BuiltinResourceManager21GetResourceInstanceIDEPKN5Unity4TypeERKN4core12basic_stringIcNS4_20StringStorageDefaultIcEEEE
fIc:_ArrayListWrapper_IndexOf_m3574835167
GHa:__ZN28LightProbeProxyVolumeContext8CopyFromERKS_
bQa:__ZN23TransformChangeDispatch32QueueTransformChangeIfHasChangedER18TransformHierarchy
AMa:__ZN18DeferredRenderLoop15RenderFinalPassEP13RenderTextureS1_
Bra:__ZN7ApiGLES18DeleteRenderbufferERj
pqa:__ZL23ProgramUniformMatrix4fvPK7ApiGLESjiihPKv
aha:__ZN7ApiGLES13CreateTextureEjj14GraphicsFormatiiiii
xBb:__ZN9ShaderLab20SerializedSubProgram15MatrixParameter8TransferI14SafeBinaryReadEEvRT_
xQb:__ZL27GetComponentsImplementationILb0ELi1EEbR10GameObjectbRK17CompareParametersRK39GetComponentsImplementation_ReturnValue
Lfe:_UTF8Decoder__ctor_m1460357288
o1:__ZN13RenderTexture7ReleaseEv
Bdb:__ZN10MeshFilter23VirtualRedirectTransferER14SafeBinaryRead
mOc:_Convert_ToByte_m1201588964
Ldb:__ZN12MeshRenderer17MainThreadCleanupEv
KRb:__Z36AsyncOperation_Get_Custom_PropIsDoneP12Il2CppObject
hua:__ZN22CreateGpuProgramOutput12CreateParamsEv
pma:__ZNK14GfxContextGLES13GetDefaultFBOEv
yHe:_Array_InternalArray__ICollection_Remove_TisSByte_t454417549_m2474211570_gshared
VZ:__ZN14GraphicsHelper5ClearE13GfxClearFlagsRK10ColorRGBAffjR17ShaderPassContext
vtg:_il2cpp_class_is_enum
eFg:__ZN6il2cpp2vm6Thread49CheckCurrentThreadForInterruptAndThrowIfNecessaryEv
x3:__ZNSt3__23mapIN9ShaderLab16FastPropertyNameEN18UnityPropertySheet11UnityTexEnvENS_4lessIS2_EENS_9allocatorINS_4pairIKS2_S4_EEEEEixERS9_
bha:__ZNK13TranslateGLES25GetTextureTargetDimensionEj
GMe:_Array_InternalArray__set_Item_TisByte_t3683104436_m1694926640_gshared
Tff:_PatternCompiler_EmitInfo_m597931026
Gud:_ModulusRing_Multiply_m3113924743
bi:_emscripten_glVertexAttrib4f
lEb:__ZNSt3__26vectorIN20GpuProgramParameters14ConstantBufferENS_9allocatorIS2_EEE8__appendEj
Ahd:_MonoType_GetGenericArguments_m2708198481
W0f:_List_1_AddEnumerable_m2489692396_gshared
ska:__ZN9GfxDevice18SetGlobalDepthBiasEff
Jqg:__ZN6il2cpp6icalls8mscorlib6System8MonoType12get_AssemblyEP20Il2CppReflectionType
oi:_emscripten_glGetPointerv
uQ:__ZN13RuntimeStaticI37UnityShaderCompilerExtPluginConfigureLb0EE16StaticInitializeEPv
$Ig:__ZN30dense_hashtable_const_iteratorINSt3__24pairIK10KeyWrapperIP14Il2CppIUnknownEjEES5_N6il2cpp5utils11PointerHashIS3_EEN14dense_hash_mapIS5_jSB_NS5_14EqualsComparerINS0_8equal_toIS4_EEEENS0_9allocatorIS7_EEE9SelectKeyESG_SI_EppEv
O8a:__ZN8Renderer23VirtualRedirectTransferER14SafeBinaryRead
OEa:__Z27ConvertSubMeshesToTrianglesR13dynamic_arrayI7SubMeshLj4EERS_ItLj2EE
SNd:_X509Certificate2Collection__ctor_m819526826
ft:__ZN12AudioManager5ResetEv
Gef:__Z75RuntimeInvoker_RuntimeObject_Single_t2076509932_RuntimeObject_RuntimeObjectPFvvEPK10MethodInfoPvPS4_
Tvd:_KeyBuilder_Key_m3814433741
ytd:_ArgumentException__ctor_m158205422
n8:__ZN6prcoreL17RemapGenericFloatI17TexFormatRGBAHalf15TexFormatRGHalfEEvPKNS_9InnerInfoE
B6f:_ReadOnlyCollection_1_Contains_m2306259645_gshared
KQg:__ZN6il2cpp6icalls8mscorlib6System11Environment20GetWindowsFolderPathEi
uEb:__ZN9ShaderLab20SerializedSubProgram15AddTextureParamEPKcii16TextureDimension
oy:__ZNK18AudioMixerPlayable11DerivesFromE17ScriptingClassPtr
Wjf:_Uri_get_Parser_m2250631932
Ndb:__ZNK12MeshRenderer22GetTypeVirtualInternalEv
vgd:_MonoEnumInfo_get_enum_info_m1382505982
Q3:__ZN14SafeBinaryRead19TransferSTLStyleMapINSt3__23mapIN4core12basic_stringIcNS3_20StringStorageDefaultIcEEEES7_NS1_4lessIS7_EE13stl_allocatorINS1_4pairIKS7_S7_EEL18MemLabelIdentifier1ELi16EEEEEEvRT_17TransferMetaFlags
eD:__ZN11UnityEngine15CloudWebService16SessionContainer21PrepareDataErrorEventERN4core12basic_stringIcNS2_20StringStorageDefaultIcEEEE
mub:__Z19TransferField_ArrayI19StreamedBinaryWriteILb0EE27Converter_SimpleNativeClassI8GUIStyleEEvRK23StaticTransferFieldInfoR31RuntimeSerializationCommandInfoRT0_
dVd:_RemotingServices_CreateClientProxy_m768660530
VUd:_RemotingServices_RegisterInternalChannels_m1827304423
fZb:__Z35Transfer_Blittable_FixedBufferFieldI8JSONReadiEvRK29SerializationCommandArgumentsR31RuntimeSerializationCommandInfo
$dc:__ZN22ParticleSystemRenderer16UpdateCachedMeshEv
Opg:__ZNSt3__213__vector_baseIN6il2cpp2os19SocketHandleWrapperENS_9allocatorIS3_EEED2Ev
m4b:__ZN12LightsModule8TransferI24GenerateTypeTreeTransferEEvRT_
NUa:__ZN13sorted_vectorINSt3__24pairIN4core12basic_stringIcNS2_20StringStorageDefaultIcEEEEPK17MessageIdentifierEEN10vector_mapIS6_S9_NS0_4lessIS6_EENS0_9allocatorISA_EEE13value_compareESF_E10insert_oneERKSA_
Zge:_Thread_GetCachedCurrentUICulture_m5590127
nCb:__Z14resize_trimmedINSt3__26vectorIN9ShaderLab18SerializedPropertyENS0_9allocatorIS3_EEEEEvRT_j
Mkd:_Context_t2636657155_marshal_pinvoke_back
Ong:__ZN6il2cpp2vm13MetadataCache38GetMethodInfoFromMethodDefinitionIndexEi
LEc:_Byte_System_IConvertible_ToDateTime_m1583041031
TTb:__Z39MonoBehaviour_CUSTOM_GetScriptClassNameP12Il2CppObject
jgg:__ZL24UnresolvedVirtualCall_68P12Il2CppObjectS0_iS0_S0_S0_S0_S0_S0_PK10MethodInfo
jab:__ZN10VertexData8TransferI24GenerateTypeTreeTransferEEvRT_
eRg:__ZN13Il2CppHashMapIPK19Il2CppGenericMethodP10MethodInfoN6il2cpp8metadata23Il2CppGenericMethodHashENS6_26Il2CppGenericMethodCompareENSt3__29allocatorINS9_4pairIK10KeyWrapperIS2_ES4_EEEEEC2EjRKS7_RKS8_
ONa:__ZL10CullLightsRK22SceneCullingParametersR11CullResults
NBc:_Array_IndexOf_m2819632474
CNb:__Z40GetTemporaryCachePathApplicationSpecificv
Bia:__ZN9GfxDevice16EndAsyncJobFrameEv
Xtf:_PersistentCall__ctor_m2079279187
MNc:_Convert_ToBase64String_m1936815455
hk:___syscall3
kk:___syscall6
mk:___syscall4
CWc:_Decimal_ToString_m759431975
JQb:__ZN9Scripting25BroadcastScriptingMessageER10GameObjectPKc18ScriptingObjectPtr
Ck:_emscripten_glShaderBinary
C6d:_OpCode_Equals_m3738130494
Krf:_Camera_INTERNAL_CALL_RaycastTry_m1030092423
fFd:_SslStreamBase_Dispose_m747909841
QHd:_DictionaryNodeEnumerator_get_DictionaryNode_m3521889822
zwb:__ZN17AnimationCurveTplIfE8TransferI18StreamedBinaryReadILb1EEEEvRT_
MUc:_DateTimeOffset_GetHashCode_m3312197462_AdjustorThunk
$ic:__ZN18UnityConnectClientD2Ev
mKd:_ServicePoint_set_UseNagleAlgorithm_m2618011464
Nsg:_il2cpp_set_data_dir
Rjf:_Uri_get_IsUnc_m2111738174
Dpf:_AudioClipPlayable_GetClip_m1256087835_AdjustorThunk
kic:__ZN11UnityEngine15PlatformWrapper30GetGraphicsDriverLibraryStringEv
VAe:_Enumerator_VerifyState_m262343092_AdjustorThunk
$wd:_EncryptedPrivateKeyInfo_Decode_m1706190306
Exb:__Z18Transfer_BlittableI18StreamedBinaryReadILb0EELb0E4AABBEvRK29SerializationCommandArgumentsR31RuntimeSerializationCommandInfo
TRc:_Convert_ToUInt16_m1665900934
_2c:_RegionInfo__ctor_m2058831971
_3b:__ZN11ColorModule8TransferI24GenerateTypeTreeTransferEEvRT_
nCa:__Z14DrawGUITextureRK5RectTIfEP7Texture11ColorRGBA32P8Materiali
L0:__ZN15TextureSettings8TransferI24GenerateTypeTreeTransferEEvRT_
bff:_MatchCollection_GetEnumerator_m3516985966
TYb:__ZN9JSONWrite8TransferI4AABBEEvRT_PKc17TransferMetaFlags
$ce:_UTF7Encoding__ctor_m2365939916
HAb:__ZN15dense_hashtableINSt3__24pairIKiN4core17string_with_labelILi1EEEEEi18SInt32HashFunctionN14dense_hash_mapIiS5_S7_NS0_8equal_toIiEE13stl_allocatorIS6_L18MemLabelIdentifier1ELi16EEE9SelectKeyESA_SD_E12expand_arrayEjN21dense_hash_map_traits17integral_constantIbLb0EEE
u5a:__ZNK9Texture2D20GetRuntimeMemorySizeEv
Pke:_TypeInitializationException__ctor_m2993591639
Kl:_emscripten_glUniform2iv
_4c:_Int16_System_IConvertible_ToInt64_m733340257
jjg:__ZN6il2cpp2vm5Class10GetMethodsEP11Il2CppClassPPv
jce:_ResourceEnumerator_MoveNext_m2405062020
zJa:__Z30AddDefaultStreamsToMeshBuffersR9GfxDeviceR11MeshBuffersRK16DrawBuffersRange17ShaderChannelMaskS6_
ydc:__Z43ParticleSystemRenderer_RenderMultipleMeshesIL21SpriteMaskInteraction1EEvRK15RenderNodeQueueRK18RenderMultipleData17ShaderChannelMask
duc:_Hash_GetObjectData_m315532943
era:__ZN7ApiGLES17DeleteFramebufferERN2gl6HandleILNS0_10ObjectTypeE9EEES3_
lta:__ZN15UniformTFMethod13MapBoneBufferEj
jAd:_RecordProtocol_SendAlert_m2816808523
hCa:__ZN13RenderManager22RenderOffscreenCamerasEv
bed:_SynchronizedReader_Read_m1399666181
a9d:_MonoEvent_get_Name_m2796714646
VY:__Z9SetupArgviPPKc
fWb:__ZN9rapidjson13GenericReaderINS_4UTF8IcEES2_13JSONAllocatorE11ParseObjectILj0ENS_19GenericStringStreamIS2_EENS_15GenericDocumentIS2_S3_S3_EEEEvRT0_RT1_
qBd:_Context_get_SentConnectionEnd_m3114190867
Q4a:__ZN12CubemapArray23VirtualRedirectTransferER24GenerateTypeTreeTransfer
lP:__ZN12FileAccessor4OpenER15FileSystemEntry14FilePermission16FileAutoBehavior
QPg:__ZN6il2cpp2os9Directory6CreateERKNSt3__212basic_stringIcNS2_11char_traitsIcEENS2_9allocatorIcEEEEPi
aQa:__ZN23TransformChangeDispatch32QueueTransformChangeIfHasChangedERK15TransformAccess
OE:__ZNSt3__24listIP19CloudServiceHandler13stl_allocatorIS2_L18MemLabelIdentifier86ELi16EEE6removeERKS2_
_0c:_NumberFormatter_AppendNonNegativeNumber_m629862866
z5:__ZNSt3__26vectorINS_4pairIN9ShaderLab16FastPropertyNameEN18UnityPropertySheet11UnityTexEnvEEENS_9allocatorIS6_EEE21__push_back_slow_pathIKS6_EEvRT_
oce:_ResourceInfo__ctor_m2401359321_AdjustorThunk
jQg:__ZN6il2cpp2os26LibraryNamePrefixAndSuffixC2EPKcS3_
YKc:_Hashtable__ctor_m392789568
Bge:_Mutex_CreateMutex_internal_m2352956576
Xee:_UTF7Encoding__cctor_m4192443836
B:tempValue
c5c:_Int16_System_IConvertible_ToSingle_m3277935657
pL:__Z29scripting_class_from_fullnamePKcS0_S0_
YFe:_EqualityComparer_1_System_Collections_IEqualityComparer_Equals_m300683774_gshared
xze:_Enumerator_get_CurrentKey_m2387752419_AdjustorThunk
Zmg:__ZN15dense_hashtableINSt3__24pairIK10KeyWrapperIN6il2cpp5utils13dynamic_arrayIPK10Il2CppTypeLj4EEEEPFvvEEESA_NS3_8metadata19Il2CppSignatureHashEN14dense_hash_mapISA_SD_SG_NSA_14EqualsComparerINSF_22Il2CppSignatureCompareEEENS0_9allocatorISE_EEE9SelectKeyESK_SM_E9set_valueEPSE_RKSE_
ouf:_UnityEvent_FindMethod_Impl_m3303953986
Vke:_UInt16_System_IConvertible_ToBoolean_m887616848
eA:__ZN11AudioModule22CreateAudioClipFromWWWEP10IWWWStreamPKcbbi
Pde:_StringBuilder_set_Length_m3039225444
CSc:_CultureAwareComparer_GetHashCode_m3681260951
XFb:__ZN6prcoreL11inner_clearILj4EEEvPhjjj
oNa:__ZNK26RenderDeferredObjectSorterclERK16RenderObjectDataS2_
IWg:_GC_initialize_offsets
mT:__ZNK8Playable6HandleEv
uN:__ZN14MessageHandler28MessageIDToMessageIdentifierEi
bJd:_HttpRequestCreator_Create_m3607509610
Gab:__ZNK11SpriteAtlas20GetRuntimeRenderDataEPK6Sprite
xYg:__ZN6il2cpp2vm10WaitHandle19NewManualResetEventEb
Soe:_Version_GetHashCode_m880841176
S7f:_Nullable_1_ToString_m1238126148_AdjustorThunk
bd:emscriptenWebGLGetUniform
pn:FUNCTION_TABLE_iiiiiiiiiii
vPa:__ZL10CleanUpJobP20CullingGroupsJobData
vGc:_Char_CompareTo_m3044885427_AdjustorThunk
bad:_FileStream_GetSecureFileName_m508045384
Ewe:_InternalEnumerator_1_System_Collections_IEnumerator_get_Current_m2035754659_AdjustorThunk
Adb:__ZN10MeshFilter23VirtualRedirectTransferER24GenerateTypeTreeTransfer
eCa:__ZN13RenderManager15BatchModeUpdateEv
N9a:__ZN14SafeBinaryRead21TransferSTLStyleArrayI13dynamic_arrayI8Vector2fLj4EEEEvRT_17TransferMetaFlags
v5:__ZN17PersistentManager51InstanceIDToLocalSerializedObjectIdentifierInternalEiR31LocalSerializedObjectIdentifier
Gc:_glVertexAttribIPointer
H$d:_HMAC_set_HashName_m457235014
fGe:_Array_InternalArray__ICollection_Contains_TisTableRange_t2011406615_m605506746_gshared
BRc:_Decimal_op_Explicit_m729046406
c_d:_CryptoConfig_CreateFromName_m2169102076
f_d:_CryptographicUnexpectedOperationException__ctor_m3552441227
bIc:_ArrayListWrapper_Clear_m321161741
Vme:_UInt64_System_IConvertible_ToDouble_m2828923873
Wqe:_InternalEnumerator_1_get_Current_m1943362081_AdjustorThunk
i3g:__ZNKSt3__221__basic_string_commonILb1EE20__throw_length_errorEv
jee:_StringBuilder_Insert_m1733097906
ZFd:_SslStreamBase_get_HashStrength_m480059173
Qra:__ZN18GfxFramebufferGLES13ReadbackImageER14ImageReferenceiiiiii
xNc:_Enumerator_MoveNext_m1419609883
ou:__ZN4FMOD7Channel19setReverbPropertiesEPK29FMOD_REVERB_CHANNELPROPERTIES
UM:__ZN13MonoBehaviour22GetScriptFullClassNameEv
F0b:__ZN11MinMaxCurve19GetWritableMinCurveEv
lJd:_ServicePointManager_FindServicePoint_m3137356168
Lba:__ZN20SphericalHarmonicsL211AddWeightedERKS_f
k3e:__Z90RuntimeInvoker_Void_t1841601450_RuntimeObject_RuntimeObject_RuntimeObject_SByte_t454417549PFvvEPK10MethodInfoPvPS4_
Nqb:__Z19TransferField_ArrayI17RemapPPtrTransfer27Converter_SimpleNativeClassI8GUIStyleEEvRK23StaticTransferFieldInfoR31RuntimeSerializationCommandInfoRT0_
xSc:_Convert_ToUInt64_m345450801
UVb:__ZN9JSONWrite8TransferI10ColorRGBAfEEvRT_PKc17TransferMetaFlags
mtf:_Debug_Log_m920475918
Bfa:__ZL40FindScriptingClassForNativeTypeRecursivePKN5Unity4TypeE17ScriptingClassPtr
oN:__Z25scripting_method_get_name18ScriptingMethodPtr
IUb:__Z35Register_UnityEngine_Resources_Loadv
mpb:__Z19TransferField_ArrayI14SafeBinaryRead16Converter_StringEvRK23StaticTransferFieldInfoR31RuntimeSerializationCommandInfoRT0_
F2g:_rename
v8b:__ZN14ParticleSystem17SimulateParticlesER24ParticleSystemUpdateDataR23ParticleSystemParticlesjRKfPj
KWg:_GC_exit_check
Shd:_NotSupportedException__ctor_m3232764727
BId:_TypeConverterAttribute_Equals_m2330345916
xfc:__ZL24GenerateParticleGeometryIL24ParticleSystemRenderMode0ELb1ELb1EL25ParticleSystemRenderSpace4EEvPfRK22ParticleSystemTempDataRK26ParticleSystemRendererDataRK21ParticleSystemModulesRK23ParticleSystemParticlesRK31ParticleSystemParticlesTempData
g8e:__Z90RuntimeInvoker_Boolean_t3825574718_Int32_t2071877448_Int32U26_t455636984_Int32_t2071877448PFvvEPK10MethodInfoPvPS4_
D9c:_MonoIO_CreateDirectory_m379525469
cZg:__ZN6il2cpp2os12Cryptography23GetCryptographyProviderEv
Ey:__ZN19AudioPlayableOutput22OnConnectionHashChangeEv
hxc:_String_Concat_m2000667605
YRg:__ZN6il2cpp2vm6String8NewUtf16EPKDsi
nPg:__ZN6il2cpp2os10ThreadImpl12QueueUserAPCEPFvPvES2_
Sic:__ZN22BaseUnityConnectClient10QueueEventERN11UnityEngine15CloudWebService17CloudServiceEventEPKcjb
S7b:__Z9UpdateTplIL27ParticleSystemCurveEvalMode1EEvRK11MinMaxCurveR23ParticleSystemParticlesjjbjRK8Vector2f
YWe:__Z47RuntimeInvoker_Single_t2076509932_RuntimeObjectPFvvEPK10MethodInfoPvPS4_
HIb:__ZN8RendererC2E12RendererType18MemLabelIdentifier18ObjectCreationMode
ptg:_il2cpp_class_is_abstract
Ve:_emscripten_glGetError
hBg:__ZN15dense_hashtableINSt3__24pairIK10KeyWrapperIPK14Il2CppAssemblyEPK22Il2CppMonoAssemblyNameEES6_N6il2cpp5utils11PointerHashIS4_EEN14dense_hash_mapIS6_SA_SF_NS6_14EqualsComparerINS0_8equal_toIS5_EEEENS0_9allocatorISB_EEE9SelectKeyESK_SM_E14squash_deletedEv
AHa:__Z22ExtractRenderNodeQueueRK11CullResults15ExtractionFlagsR15RenderNodeQueue
iJc:_SynchronizedArrayListWrapper_CopyTo_m3318520063
zVe:_MethodCall_get_Properties_m1893707917
UQa:__ZNK13RenderTexture32CalculateNeedsInvertedProjectionEv
rYa:__ZN10systeminfo18GetOperatingSystemEv
bf:emscriptenWebGLGet
k9f:_Rect_GetHashCode_m559954498_AdjustorThunk
vP:__Z19CanReplaceComponentRN5Unity9ComponentEPKNS_4TypeEPN4core12basic_stringIcNS5_20StringStorageDefaultIcEEEE
oKb:__ZN12CubemapArray11InitTextureEiii13TextureFormatb
Y0b:__ZN32CustomDataModulePropertyBindings13SetFloatValueER14ParticleSystemif
Emg:__ZNSt3__27__sort4IRN6il2cpp5utils11collections13ArrayValueMapIPK10Il2CppType17Il2CppInteropData26InteropDataToTypeConverterNS1_8metadata14Il2CppTypeLessENSA_26Il2CppTypeEqualityComparerEE12SortComparerEPS8_EEjT0_SH_SH_SH_T_
C5f:_Collection_1_set_Item_m3803272710_gshared
CMd:_X509Certificate2_get_SignatureAlgorithm_m3069898012
h7c:_Int64_System_IConvertible_ToSingle_m1678482180
ZOb:__Z18SetIParticleSystemP15IParticleSystem
hKa:__ZL24AssignProjectorQueuesJobP30AssignProjectorQueuesJobHeader
pie:_TimeSpan_get_Hours_m3804628138
dng:__ZN15dense_hashtableINSt3__24pairIK10KeyWrapperIN6il2cpp5utils13dynamic_arrayIPK10Il2CppTypeLj4EEEEPFvvEEESA_NS3_8metadata19Il2CppSignatureHashEN14dense_hash_mapISA_SD_SG_NSA_14EqualsComparerINSF_22Il2CppSignatureCompareEEENS0_9allocatorISE_EEE9SelectKeyESK_SM_E4swapERSP_
rEb:__ZN9ShaderLab20SerializedSubProgram14SetConstBufferEPKci
a7b:__ZN11ShapeModule9ResetSeedERK27ParticleSystemReadOnlyState
Ctd:_ArgumentNullException__ctor_m911049464
Tbg:_Check_Source_m3385315029
jI:__Z40DebugStringToFilePostprocessedStacktraceRK21DebugStringToFileData
O_b:__Z29Transfer_Blittable_ArrayFieldI8JSONReadjEvRT_R9ArrayInfoRK23StaticTransferFieldInfo
Qwf:_Object_GetInstanceID_m1920497914
ewe:_InternalEnumerator_1_get_Current_m314017974_AdjustorThunk
Jf:__setLetterbox
pSd:__ZN21InterfaceFuncInvoker3IP12Il2CppObjectP6Type_t28StreamingContext_t1417235061PS1_E6InvokeEjP11Il2CppClassS1_S3_S4_S5_
ucb:__ZNSt3__26vectorI17BlendShapeChannelNS_9allocatorIS1_EEE6assignINS_11__wrap_iterIPS1_EEEENS_9enable_ifIXaasr21__is_forward_iteratorIT_EE5valuesr16is_constructibleIS1_NS_15iterator_traitsISA_E9referenceEEE5valueEvE4typeESA_SA_
mLd:_AsnEncodedData_ToString_m724151831
ECa:__ZN11TimeManager11GetRealtimeEv
Ylc:__ZN20UnityWebRequestProtoI19TransportJavaScript16AtomicRefCounter14RedirectHelper14ResponseHelper15DownloadHandler13UploadHandler12HeaderHelper14AsyncOperationE26Job_ExecuteUnityWebRequestEPS8_
ov:__ZN29AudioEffectInternalDefinitionC2EP26UnityAudioEffectDefinitionb
O8d:_MonoMethodInfo_GetDeclaringType_m4186531677
pTd:_SoapTypeAttribute_SetReflectionObject_m1566293812
C2b:__ZNK11MinMaxCurve20FindMinMaxIntegratedEv
cVd:_RemotingServices_CreateClientProxy_m1631035355
zne:_UInt64_ToString_m2892887310
Fca:_stbir_resize
lRg:__ZN15dense_hashtableINSt3__24pairIK10KeyWrapperIPK19Il2CppGenericMethodEP10MethodInfoEES6_N6il2cpp8metadata23Il2CppGenericMethodHashEN14dense_hash_mapIS6_S9_SD_NS6_14EqualsComparerINSC_26Il2CppGenericMethodCompareEEENS0_9allocatorISA_EEE9SelectKeyESH_SJ_EC2ERKSM_j
wxa:__Z37ReadDirectoryInfo_UnityWebAndUnityRawR12FileAccessorRKN20ArchiveStorageHeader6HeaderERNS1_13DirectoryInfoE
WJ:__ZNSt3__26__treeINS_12__value_typeIPKciEENS_19__map_value_compareIS3_S4_15compare_tstringIS3_ELb1EEENS_9allocatorIS4_EEE7destroyEPNS_11__tree_nodeIS4_PvEE
_Ee:_Dictionary_2_ToTValue_m1381983709_gshared
Khd:_MulticastDelegate_KPM_m1592985119
rHa:__ZN20DynamicPropertySheet14SetValueQueuedEN9ShaderLab16FastPropertyNameEN19ShaderPropertySheet12PropertyTypeEjNS2_8SetFlagsE
nJg:__ZN6il2cpp2vm12ReboxIfBoxedEP14Il2CppIUnknownP11Il2CppClass
Mta:__ZN16GeometryJobTasks20ScheduleGeometryJobsER9GfxDevicePFvP15GeometryJobDataEPK22GeometryJobInstructionjb
HWa:__ZN25PathNamePersistentManagerD2Ev
NL:__ZN17PersistentManager48IntegrateObjectAndUnlockIntegrationMutexInternalEi
yW:__ZZ29InitializeSortingGroupManagerPvEN44PostLateUpdateSortingGroupsUpdateRegistrator7ForwardEv
_n:__ZN6Object12SetHideFlagsENS_9HideFlagsE
a9g:_emscripten_glGetFramebufferAttachmentParameteriv__wrapper
MCa:__ZN13RendererScene15InitializeUmbraEv
vba:__Z28CalculateGlobalMatrixInverse23TransformAccessReadOnly
YXb:__ZN4PPtrI6ObjectE8TransferI9JSONWriteEEvRT_
Zbc:__ZN23ParticleSystemParticles17SetUsesCustomDataEi
xCf:__ZL60SecurityAttribute_t2016950496_CustomAttributesCacheGeneratorP21CustomAttributesCache
kcb:__ZN13dynamic_arrayI12BoneWeights4Lj16EE18resize_initializedEjRKS0_12ResizePolicy
dfe:_UTF7Encoding_GetCharCount_m2589913583
RM:__ZN13MonoBehaviour19ReleaseMonoInstanceEv
bcd:_MemoryStream_CalculateNewCapacity_m3533542025
Z_g:__ZN6il2cpp6icalls8mscorlib6System6Object7GetTypeEP12Il2CppObject
Ujf:_Uri_Reduce_m2577728307
Qie:_TimeSpan_Equals_m4102942751_AdjustorThunk
Zlc:__ZN12HeaderHelper14SetUnvalidatedERKN4core12basic_stringIcNS0_20StringStorageDefaultIcEEEES6_b
Jr:__ZN4FMOD6SoundI7releaseEv
reb:__ZN14SpriteRenderer13AwakeFromLoadE17AwakeFromLoadMode
kya:__ZN10MemoryFile9SetLengthEy
Lle:_UInt16_ToString_m2038947049_AdjustorThunk
gcc:__ZN11ShapeModule17DidModifyMeshDataEv
Zug:__ZN6il2cpp2vm14TypeNameParser25ParseAssemblyNameOptionalEv
ykb:__Z28scripting_class_is_interface17ScriptingClassPtr
Yg:_glTexStorage2D
fEb:__ZNK9ShaderLab10SubProgram14EnsureCompiledEv
yXd:_ObjectManager_RecordFixup_m3572285566
wMc:_SortedList_InitTable_m460350503
eN:__Z18BuildScriptClassId17ScriptingClassPtr
Yse:_InternalEnumerator_1_get_Current_m4279678504_AdjustorThunk
F4f:_Collection_1_System_Collections_IList_get_Item_m2415649949_gshared
UKb:__ZN8Renderer28HandleParentHierarchyChangesEPK23TransformAccessReadOnlyj
vY:__ZL31DeleteLastPathNameComponentImplRKN4core12basic_stringIcNS_20StringStorageDefaultIcEEEEPKc
UGb:__Z13RegisterClassI18DelayedCallManagerEvv
cjc:__ZN18UnityConnectClient15GetCloudServiceEv
$qb:__Z18Transfer_BlittableI24GenerateTypeTreeTransferLb0EiEvRK29SerializationCommandArgumentsR31RuntimeSerializationCommandInfo
skb:__ZL28SerializationCommandGroupForRK31TransferFunctionScriptingTraits17ScriptingClassPtr17ScriptingFieldPtrRK20CoreScriptingClasses
M$a:__ZN10TagManager32RegisterDefaultTagsAndLayerMasksEv
Yxf:_PlayableHandle_SetDuration_m1990009798_AdjustorThunk
kog:__ZN15dense_hashtableINSt3__24pairIK10KeyWrapperIPKcEP11Il2CppClassEES5_N6il2cpp5utils11StringUtils12StringHasherIS4_EEN14dense_hash_mapIS5_S8_SE_NS5_14EqualsComparerINSB_13VmStringUtils21CaseSensitiveComparerEEENS0_9allocatorIS9_EEE9SelectKeyESJ_SL_E15insert_noresizeERKS9_
Mge:_SynchronizationLockException__ctor_m549086841
AHc:_ArrayList_InsertRange_m1478230997
wma:__ZN4gles8InitCapsEP7ApiGLESP12GraphicsCapsR16GfxDeviceLevelGL
j6:__ZN6prcore14BlitImageFloatERK14ImageReferenceRS0_NS0_8BlitModeE
Pda:__Z24CalculateVertexLightDataRK15SharedLightDataR14GfxVertexLight
Gh:_glEnable
u9:__ZN15dense_hashtableINSt3__24pairIKiiEEi21InstanceIDHashFunctorN14dense_hash_mapIiiS4_NS0_8equal_toIiEE13stl_allocatorIS3_L18MemLabelIdentifier1ELi16EEE9SelectKeyES7_SA_E12maybe_shrinkEv
qFa:__ZNK25CameraStackRenderingState21GetImageEffectTextureEb
zYd:_RuntimeMethodHandle__ctor_m2437574937_AdjustorThunk
IWb:__Z35Transfer_Blittable_FixedBufferFieldI9JSONWriteiEvRK29SerializationCommandArgumentsR31RuntimeSerializationCommandInfo
kle:_UInt16_System_IConvertible_ToInt64_m2835280558_AdjustorThunk
R8f:_Quaternion_GetHashCode_m2270520528_AdjustorThunk
GTf:__ZL53g_UnityEngine_Assembly_CustomAttributesCacheGeneratorP21CustomAttributesCache
xcc:__ZN11TrailModuleD2Ev
aib:__ZNSt3__26vectorI4PPtrI6ObjectE13stl_allocatorIS3_L18MemLabelIdentifier51ELi16EEE6assignINS_11__wrap_iterIPS3_EEEENS_9enable_ifIXaasr21__is_forward_iteratorIT_EE5valuesr16is_constructibleIS3_NS_15iterator_traitsISD_E9referenceEEE5valueEvE4typeESD_SD_
fXe:__Z94RuntimeInvoker_Boolean_t3825574718_Int32_t2071877448_SByte_t454417549_ExceptionU26_t1467204777PFvvEPK10MethodInfoPvPS4_
NEe:_Dictionary_2_InitArrays_m2270022740_gshared
Mhc:__ZN11UnityEngine7Connect15DeviceInfoEvent16CollectExtraInfoEv
uee:_UnicodeEncoding_GetChars_m3765282346
X7c:_IntPtr__ctor_m4104029105
qxe:_InternalEnumerator_1_System_Collections_IEnumerator_get_Current_m771161214_AdjustorThunk
Igd:_MonoType_get_attributes_m1493788675
AYg:__ZN6il2cpp6icalls8mscorlib6System10Reflection9FieldInfo25internal_from_handle_typeE12Il2CppIntPtrS5_
uQc:_Convert_ToDouble_m4236754739
i9g:_emscripten_glScissor__wrapper
SDf:__ZL48Stack_t1043988394_CustomAttributesCacheGeneratorP21CustomAttributesCache
tn:FUNCTION_TABLE_viifi
un:FUNCTION_TABLE_viiff
mB:__Z75AudioPlayableGraphExtensions_CUSTOM_INTERNAL_CALL_InternalCreateAudioOutputR14HPlayableGraphP12Il2CppStringP15HPlayableOutput
Z8d:_MonoEvent_GetAddMethod_m4289563120
ZBf:__ZL37Type_t_CustomAttributesCacheGeneratorP21CustomAttributesCache
Rug:__ZN6il2cpp2vm14TypeNameParser5ParseEb
ilc:__ZN23UnityPurchasingSettingsC2Ev
HYc:_Double_ToString_m1864290157
Mve:_InternalEnumerator_1_get_Current_m4154059426_AdjustorThunk
dKg:__ZNK24NamespaceAndNamePairHashclERKNSt3__24pairIPKcS3_EE
Lca:__ZL37stbir__resample_horizontal_downsampleP11stbir__infoiPf
S9:__ZNK5Unity9Component38MarkGameObjectAndComponentDependenciesER27GarbageCollectorThreadState
yI:__ZL16OutOfMemoryErrorjj18MemLabelIdentifieriPKc
kAd:_RecordProtocol_SendRecord_m132002114
FN:__ZNK11TypeManager15ClassNameToRTTIEPKcb
pyb:__Z18Transfer_BlittableI18StreamedBinaryReadILb0EELb1EdEvRK29SerializationCommandArgumentsR31RuntimeSerializationCommandInfo
zah:_emscripten_glVertexAttrib2fv__wrapper
U3c:_Guid__ctor_m2599802704
Bad:_FileStream_get_CanRead_m4148920720
$oa:__ZN4crnd12symbol_codec32decode_receive_static_data_modelERNS_25static_huffman_data_modelE
n2c:_GregorianCalendar_set_CalendarType_m2438362222
AXb:__Z18Transfer_BlittableI9JSONWriteLb0EaEvRK29SerializationCommandArgumentsR31RuntimeSerializationCommandInfo
AC:__ZN11UnityEngine15CloudWebService14DataDispatcher34OnSessionContainerArchivedAndReadyERNS0_16SessionContainerE
Y2c:_NumberFormatInfo_GetFormat_m3247563525
T8b:__ZN23ParticleSystemParticles20SetUsesTriggerEventsEb
dzd:_CipherSuiteCollection__ctor_m2154226461
htb:__Z18Transfer_BlittableI19StreamedBinaryWriteILb0EELb0E8Vector3fEvRK29SerializationCommandArgumentsR31RuntimeSerializationCommandInfo
rAa:__ZN20ArchiveStorageReader9ReadBlockEjyyPvPy
g$d:_DSAParameters_t1872138834_marshal_pinvoke
Vzg:__ZN6il2cpp2vm10Reflection14GetEventObjectEP11Il2CppClassPK9EventInfo
tAd:_TlsStream_Write_m2271546135
E$c:_CultureInfo_ConstructInternalLocaleFromCurrentLocale_m1342751405
M9b:__Z25GetTransformationMatricesPN4math8float3x3ES1_bbRK10Matrix4x4fS4_
Bde:_Latin1Encoding_GetString_m3553289597
bb:invoke_viidi
WHb:__ZN9TextAssetC2E18MemLabelIdentifier18ObjectCreationMode
vtf:_Display_RecreateDisplayList_m3412638488
DEg:__ZNK15dense_hashtableINSt3__24pairIK10KeyWrapperIP11Il2CppClassES4_EES5_N6il2cpp8metadata16SZArrayClassHashEN14dense_hash_mapIS5_S4_SA_NS5_14EqualsComparerINS9_19SZArrayClassCompareEEENS0_9allocatorIS7_EEE9SelectKeyESE_SG_E12test_deletedEj
g_b:__Z18Transfer_BlittableI8JSONReadLb0EdEvRK29SerializationCommandArgumentsR31RuntimeSerializationCommandInfo
hg:_glTexSubImage3D
xkd:_SimpleCollator_LastIndexOfOrdinalIgnoreCase_m550798345
Vha:__ZNK9GfxDevice13GetViewMatrixEv
caa:__ZN17RemapPPtrTransferC2E24TransferInstructionFlagsb
AO:__ZN8TypeTree8BlobReadERPKhS1_ib
tCe:_Dictionary_2_System_Collections_Generic_ICollectionU3CSystem_Collections_Generic_KeyValuePairU3CTKeyU2CTValueU3EU3E_Remove_m3080541539_gshared
naa:__ZN18LoadSceneOperation23GetAllowSceneActivationEv
J0a:__ZN6CameraD0Ev
Yld:_ModulusRing_Multiply_m386339435
FU:__ZN31CanvasBatchIntermediateRenderer16StaticInitializeEPv
aQc:_Decimal_op_Implicit_m4246329390
Etd:_ArgumentNullException__ctor_m2252076819
rSa:__ZN10GameObjectC2E18MemLabelIdentifier18ObjectCreationMode
IHd:_ListDictionary_GetEnumerator_m1511032609
WWd:_SerializationInfo__ctor_m4016423422
Xpa:__ZL18ProgramUniform1uivPK7ApiGLESjiihPKv
I1b:__ZN27ShapeModulePropertyBindings13GetFloatValueERK14ParticleSystemi
zKb:__ZN14Texture2DArray13RebuildMipMapEv
ekg:__ZN13Il2CppHashSetIPK17Il2CppGenericInstN6il2cpp8metadata21Il2CppGenericInstHashENS4_24Il2CppGenericInstCompareENSt3__29allocatorI10KeyWrapperIS2_EEEEC2EjRKS5_RKS6_
fnb:__Z18Transfer_BlittableI14SafeBinaryReadLb1EaEvRK29SerializationCommandArgumentsR31RuntimeSerializationCommandInfo
sEb:__ZN9ShaderLab20SerializedSubProgram14AddVectorParamEPKcii15ShaderParamTypei
qeh:_emscripten_glIsFramebuffer__wrapper
TPe:_ResourceSet_ReadResources_m1669023823
Nrd:_PKCS12_RemoveCertificate_m1590055870
pFg:__ZN6il2cpp2vm6Thread7SetNameEP12Il2CppThreadP12Il2CppString
HZ:__ZN13ScreenManager18SetAllowCursorLockEb
UD:__ZN11UnityEngine15CloudWebService10RestClientINS0_23WebRequestRestHeaderMapEE16SetRequestHeaderERKN4core12basic_stringIcNS4_20StringStorageDefaultIcEEEESA_
Sib:__ZN30RuntimeInitializeOnLoadManager15ClassMethodInfo8TransferI14SafeBinaryReadEEvRT_
F7b:__ZN23ParticleSystemParticles14element_assignEjj
xA:__ZL22InitializeModule_Audiov
DXa:__ZN16MemoryFileSystem8IsLockedERK13FileEntryData
EYe:__Z86RuntimeInvoker_Int32_t2071877448_Int16_t4041245914_Int32_t2071877448_Int32_t2071877448PFvvEPK10MethodInfoPvPS4_
_Pe:_SatelliteContractVersionAttribute__ctor_m2605651717
nk:_emscripten_glBindRenderbuffer
FWg:_GC_dirty_init
JBc:_Array_Copy_m1969461849
oWd:_MessageFormatter_ReadMethodResponse_m4134629501
jNg:__ZN6il2cpp2vm5Field14GetValueObjectEP9FieldInfoP12Il2CppObject
Yid:_CodePointIndexer_ToIndex_m2133868653
PZc:_Environment_get_OSVersion_m1247315981
oS:__ZN6Object17FindObjectsOfTypeEPKN5Unity4TypeER13dynamic_arrayIPS_Lj4EEb
Rjb:__ZN13MonoBehaviour17RemoveFromManagerEv
i1a:__ZN12ImageFilters14AddImageFilterERK11ImageFilter
x9a:__ZL11DecodeValuePPKcS0_
sBe:_ShimEnumerator_MoveNext_m2013866013_gshared
kH:__ZN13MemoryManagerC2Ev
Usa:__ZN12SkinMeshInfo10DeallocateEPS_
xAa:__ZN20ArchiveStorageReader28AcquireAndPrefillUnusedBlockEjPNS_11CacheResultE
sKb:__Z12NHxRoughnessIA4_tEvP9Texture2DPT_iiii
PS:__ZN18AsyncUploadManagerD2Ev
HFb:__ZN9Transform5ResetEv
Usb:__Z22TransferField_NonArrayI24GenerateTypeTreeTransfer16Converter_StringEvRK23StaticTransferFieldInfoR31RuntimeSerializationCommandInfoRT0_
xZ:__Z17MainLoopKeepalivePv
Wef:_MatchCollection__ctor_m1944681790
snc:_HMACSHA512__ctor_m1667460019
nPa:__Z24ScheduleCullingAllGroupsR8JobFenceRK22SceneCullingParameters4PPtrI6CameraERK13CullingOutputRK13dynamic_arrayIP12CullingGroupLj4EERKS_
F0g:_printf_core
zOa:__Z14CalcHullBoundsPK8Vector3fPKhhRK5PlaneRK10Matrix4x4fR10MinMaxAABB
jUd:_RealProxy__ctor_m2147093603
Xx:__ZNK14SoundHandleAPI12GetFrequencyEv
mHa:__Z19SetupLODFadeKeywordR17ShaderPassContexti
nsa:__ZL25CheckCopyTextureArgumentsRK7ApiGLESP11GLESTextureS3_
W1b:__ZN24UVModulePropertyBindings13AddPropertiesER10vector_mapIi22ParticleModulePropertyNSt3__24lessIiEENS2_9allocatorINS2_4pairIiS1_EEEEE
IS:__ZN13dynamic_arrayI26EnlightenSystemInformationLj8EE6insertEPS0_PKS0_S4_
Mhd:_MulticastNotSupportedException__ctor_m2164514827
XSc:_DateTime_System_IConvertible_ToChar_m2489529194_AdjustorThunk
xsb:__Z29Transfer_Blittable_ArrayFieldI24GenerateTypeTreeTransferyEvRT_R9ArrayInfoRK23StaticTransferFieldInfo
Gu:__ZN4FMOD7SystemI9playSoundE17FMOD_CHANNELINDEXPNS_5SoundEbPPNS_7ChannelE
bpf:_AttributeHelperEngine_GetRequiredComponents_m120894667
PG:__GLOBAL__sub_I_runtime_graphics_mesh2_lump_cpp
DYf:__ZL68PreferBinarySerialization_t2472773525_CustomAttributesCacheGeneratorP21CustomAttributesCache
Oug:__ZN6il2cpp2os4File4ReadEPNS0_10FileHandleEPciPi
it:__ZN12AudioManager23VirtualRedirectTransferER18StreamedBinaryReadILb0EE
$bb:__ZN10VertexData13SwapEndianessEv
U2g:_realloc
U0b:__ZN27ColorModulePropertyBindings13GetFloatValueERK14ParticleSystemi
r6g:dynCall_viif
lqb:__ZL26Transfer_SimpleNativeClassI17RemapPPtrTransfer8GradientLb0EEvRK29SerializationCommandArgumentsR31RuntimeSerializationCommandInfo
Pfc:__ZL32TransformParticleMeshAnimatedUVsILb1EEvRK16ParticleMeshDataiRK22ParticleSystemTempDataRK31ParticleSystemParticlesTempData11ColorRGBA32RK26ParticleSystemRendererDataRK21ParticleSystemModulesRK10Matrix4x4fRK10Matrix3x3fRK8Vector3fRK23ParticleSystemParticlesjPPhPPf
Kqg:__ZN6il2cpp6icalls8mscorlib6System8MonoType14get_attributesEP20Il2CppReflectionType
Jgd:_MonoType_GetDefaultConstructor_m925465120
rke:_Type_IsArrayImpl_m3073208555
CE:__ZN13UploadHandlerD2Ev
Glf:_DeriveBytes_Derive_m1435464935
YK:__Z20scripting_string_newPKc
yzd:_CipherSuiteCollection_Add_m3114709461
w9c:_Directory_GetCurrentDirectory_m44486537
ys:__ZN17AudioCustomFilterD2Ev
xra:__ZN18GfxFramebufferGLES18ReleaseFramebufferEP17RenderSurfaceBaseP14GfxContextGLES
tTe:_Context_GetDynamicPropertyCollection_m1987747444
FMd:_X509Certificate2_get_Version_m1927399907
qMb:__ZN13ProduceHelperI6CameraLb0EE7ProduceE18MemLabelIdentifier18ObjectCreationMode
_F:__ZN19CloudServiceHandler34HandleSaveFileWebRequestPlayerLoopEv
js:__Z31GetParentSampleClipFromInstancePN11SoundHandle8InstanceE
pRa:__ZN6Camera22StandaloneCustomRenderENS_10RenderFlagEP6ShaderRKN4core12basic_stringIcNS3_20StringStorageDefaultIcEEEEPNS_21PerformRenderFunctionE
u$g:__ZN6il2cpp2os16ThreadLocalValue8GetValueEPPv
rog:__ZN6il2cpp2vm13MetadataCache14GetGenericInstEPKPK10Il2CppTypej
krc:_SHA384Managed_Initialize_m712692291
VRe:_ChannelInfo__ctor_m2502026239
yc:_glUniform1uiv
TUb:__Z52Object_CUSTOM_GetOffsetOfInstanceIDInCPlusPlusObjectv
Tn:setThrew
kKb:__ZL21BuildEmptyCubeTexturePKci11ColorRGBA3217TextureColorSpace
tAb:__ZN14SafeBinaryRead21TransferSTLStyleArrayINSt3__26vectorIN9ShaderLab20SerializedSubProgramENS1_9allocatorIS4_EEEEEEvRT_17TransferMetaFlags
nZb:__Z15Transfer_StringI8JSONReadLb1EEvRK29SerializationCommandArgumentsR31RuntimeSerializationCommandInfo
F7:__ZN6prcoreL17RemapGenericFloatI17TexFormatRGBFloat15TexFormatRGHalfEEvPKNS_9InnerInfoE
EIa:__Z25DoForwardShaderRenderLoopR17RenderLoopContextR13dynamic_arrayI16RenderObjectDataLj4EERK11CullResultsbbbN6Camera10RenderFlagE
KA:__Z31AudioClip_Get_Custom_PropLengthP12Il2CppObject
Wqd:_PKCS12_GetSymmetricAlgorithm_m1812022677
tfe:_UTF8Encoding_GetByteCount_m2372933408
qTe:_Context_get_NeedsContextSink_m1907794755
Svd:_ARC4Managed_GenerateKey_m716135508
Xwe:_InternalEnumerator_1_get_Current_m3179981210_gshared
VYa:__ZN13BaseAllocator13TryDeallocateEPv
tBc:_Array_CreateInstance_m1054139389
r1a:__ZNSt3__26vectorIN12FlareManager10FlareEntryENS_9allocatorIS2_EEE21__push_back_slow_pathIKS2_EEvRT_
B0g:_sprintf
Dqc:_SHA1_Create_m4086509717
$9d:_MonoMethodInfo_GetMethodInfo_m3298558752
Vs:__ZN13AudioListener17RemoveFromManagerEv
Sc:_glAttachShader
gGa:__ZNK6Camera19GetProjectionMatrixEv
HXc:_StackTrace__ctor_m2404985356
OM:__Z38PreallocateObjectFromPersistentManagerib
jTc:_DateTime_System_IConvertible_ToSingle_m3927769066
RG:__GLOBAL__sub_I_runtime_interfaces_lump_cpp
B5a:__ZNK9Texture2D20GetUnscaledTextureIDEv
Ykf:_ExtendedKeyUsageExtension_ToString_m1081992020
vbh:_glFenceSync__wrapper
Bhd:_MonoType_get_ContainsGenericParameters_m3229732653
k3f:_Queue_1_Peek_m1463479953_gshared
s1b:__ZNK14ParticleSystem7GetLoopEv
Qpf:_AudioClipPlayable_INTERNAL_CALL_GetStartDelayInternal_m3715907549
G5a:__ZNK9Texture2D26CanReuploadDataToGfxDeviceEv
fzb:__ZN18StreamedBinaryReadILb0EE21TransferSTLStyleArrayI13dynamic_arrayI4AABBLj4EEEEvRT_17TransferMetaFlags
L3e:__Z119RuntimeInvoker_Int32_t2071877448_RuntimeObject_Int32_t2071877448_Int32_t2071877448_CharU26_t1894467670_SByte_t454417549PFvvEPK10MethodInfoPvPS4_
ele:_UInt16_System_IConvertible_ToDouble_m4100549304_AdjustorThunk
Raa:__Z29ClearRepeatingLogMessageStatev
Pvc:_Single_System_IConvertible_ToInt16_m962677079
cS:__ZN21EnlightenSceneMappingaSERKS_
M$g:__ZNK6il2cpp8metadata21Il2CppGenericInstHashclEPK17Il2CppGenericInst
bwc:_Single_System_IConvertible_ToUInt32_m2447833283
mwa:__ZN7ApiGLESD2Ev
aTa:__ZN9Transform47ClearTransformHierarchyAndApplyToSerializedDataEv
sve:_InternalEnumerator_1_get_Current_m4083613828_AdjustorThunk
NWa:__ZN17PersistentManager9AddStreamEv
F6g:dynCall_fidi
_wg:__ZN15dense_hashtableINSt3__24pairIK10KeyWrapperINS1_IPK9FieldInfoP11Il2CppClassEEEjEES9_17ReflectionMapHashIS8_EN14dense_hash_mapIS9_jSD_NS9_14EqualsComparerINS0_8equal_toIS8_EEEENS0_9allocatorISB_EEE9SelectKeyESI_SK_E12resize_deltaEjj
_Pb:__ZNK13MonoBehaviour13GetScriptTypeEv
z$:__ZN13RenderTexture12SetDimensionE16TextureDimension
T9f:_ScriptableObject_CreateInstance_m3921674852
Hd:_SDL_FreeRW
lpd:_PKCS1_OS2IP_m1273945439
Mqc:_SHA1Internal_FillBuff_m891541953
Lzg:__ZNK15dense_hashtableINSt3__24pairIK10KeyWrapperINS1_IPK12PropertyInfoP11Il2CppClassEEEjEES9_17ReflectionMapHashIS8_EN14dense_hash_mapIS9_jSD_NS9_14EqualsComparerINS0_8equal_toIS8_EEEENS0_9allocatorISB_EEE9SelectKeyESI_SK_E5beginEv
LCa:__ZN13RendererScene26ApplyPendingAddRemoveNodesEv
u1c:_NumberFormatter_FormatExponential_m3975285307
v:tempBigInt
Pd:_emscripten_glVertexAttrib1fv
ZAb:__ZNSt3__26vectorIN9ShaderLab20SerializedSubProgram12UAVParameterENS_9allocatorIS3_EEE7reserveEj
nof:_AnimationCurve_Init_m1486386337
ssf:_Component_GetComponents_m3712441745
ANf:__ZL99Thread_t241561612_CustomAttributesCacheGenerator_Thread_t241561612____ExecutionContext_PropertyInfoP21CustomAttributesCache
Deg:_UnityAction_4_Invoke_m3312096275_gshared
DQa:__ZN16ReflectionProbes16UpdateSampleDataEv
eac:__Z9UpdateTplIL27ParticleSystemCurveEvalMode1EEvRK11MinMaxCurveR23ParticleSystemParticlesjjPKN4math8floatNx3E
Vlb:__ZN14SafeBinaryRead21TransferSTLStyleArrayI10vector_setI4PPtrI10MonoScriptENSt3__24lessIS4_EE13stl_allocatorIS4_L18MemLabelIdentifier76ELi16EEEEEvRT_17TransferMetaFlags
mRe:_SafeHandle_Finalize_m1839546519
U_b:__ZN8JSONRead21TransferSTLStyleArrayINSt3__26vectorI10RectOffset13stl_allocatorIS3_L18MemLabelIdentifier1ELi16EEEEEEvRT_S5_17TransferMetaFlags
$Te:_Context_AllocateNamedDataSlot_m3200404053
e3e:__Z64RuntimeInvoker_Void_t1841601450_RuntimeObject_Single_t2076509932PFvvEPK10MethodInfoPvPS4_
ELd:_X509EnhancedKeyUsageExtension_Decode_m3866320499
q1c:_NumberFormatter_AppendIntegerStringWithGroupSeparator_m1401773574
lvg:__ZNK6il2cpp2vm14TypeNameParser10NextWillBeEcb
ke:_JS_Sound_Play
U$e:__Z181RuntimeInvoker_Void_t1841601450_RuntimeObject_Int32_t2071877448_Int32_t2071877448_RuntimeObject_Int32_t2071877448_Int32_t2071877448_RuntimeObject_Int32_t2071877448_Int32_t2071877448PFvvEPK10MethodInfoPvPS4_
Wzb:__ZN9ShaderLab16SerializedShader8TransferI14SafeBinaryReadEEvRT_
dLb:__ZN19ShaderPropertySheet16SetVectorIndexedEN9ShaderLab16FastPropertyNameEifRK8Vector4fNS_8SetFlagsE
lp:__ZN14SafeBinaryRead21TransferSTLStyleArrayIN4core12basic_stringIcNS1_20StringStorageDefaultIcEEEEEEvRT_17TransferMetaFlags
FUd:_RemotingConfiguration_RegisterWellKnownServiceType_m2491506630
mIf:__ZL55_TypeBuilder_t2783404358_CustomAttributesCacheGeneratorP21CustomAttributesCache
HF:__ZN11UnityEngine15CloudWebService14DataDispatcher4StopEv
m3b:__ZN15CollisionModule16CheckConsistencyEv
$Ab:__ZNSt3__26vectorIN9ShaderLab20SerializedSubProgram12UAVParameterENS_9allocatorIS3_EEE8__appendEj
j2:__ZN17ScriptingGCHandle7AcquireE18ScriptingObjectPtr25ScriptingGCHandleWeakness
aTe:_LifetimeServices_set_LeaseTime_m1487876644
O2d:_ConstructorBuilder_not_supported_m3687319507
IA:__ZN19AudioPlayableOutputC2EjP13PlayableGraph
Uvc:_Single_System_IConvertible_ToInt64_m3555853323_AdjustorThunk
P5g:dynCall_iifiii
vca:__Z21HasAlphaTextureFormat13TextureFormat
Mz:__ZN12AudioManager6UpdateEv
qca:__ZN14ImageReference9BlitImageERKS_NS_8BlitModeE
ROb:__Z26ApplyBlendShapesToVerticesR12SkinMeshInfoRKN4math5_int4EPNS1_8floatNx3ES6_
$Ae:_ShimEnumerator_get_Key_m1171725158_gshared
Nkb:__ZN23CachedSerializationDataD2Ev
hQa:__ZNK25CameraStackRenderingState31CalculateStereoCameraTargetTypeEv
p3a:__ZN14RenderSettings23VirtualRedirectTransferER14SafeBinaryRead
vPg:__ZN6il2cpp2os10ThreadImpl15CurrentThreadIdEv
yfb:__ZN12InputManagerD0Ev
FZg:__ZN6il2cpp6icalls8mscorlib6System11Diagnostics10StackTrace9get_traceEP15Il2CppExceptionib
F2c:_NumberFormatInfo_set_NumberNegativePattern_m1050626150
oee:_UnicodeEncoding_GetBytes_m1337660232
Nxb:__Z18Transfer_BlittableI18StreamedBinaryReadILb0EELb1EtEvRK29SerializationCommandArgumentsR31RuntimeSerializationCommandInfo
Z2g:_posix_memalign
tLb:__ZN13ProduceHelperI12MeshRendererLb0EE7ProduceE18MemLabelIdentifier18ObjectCreationMode
wrf:_Camera_get_eventMask_m4241372419
TN:__ZNK15MonoScriptCache7ReleaseEv
Vig:__ZN6il2cpp2vm5Class13HasReferencesEP11Il2CppClass
zf:_glBindTexture
p1g:_snprintf
Ufc:__ZN14qsort_internal5QSortIP16ParticleSortDataiPFbRKS1_S4_EEEvT_S7_T0_T1_
u5d:_ILGenerator__cctor_m3943061018
pIc:_ArrayListWrapper_Clone_m1506311066
C9:__Z36scripting_liveness_calculation_begin17ScriptingClassPtriPFvPP12Il2CppObjectiPvES3_PFvvES7_
iua:__ZN16UniformCacheGLES6CreateERK20GpuProgramParameters
Cfe:_UTF8Encoding_Fallback_m811555654
mne:_UInt64_CompareTo_m3513742483
$Je:_Array_InternalArray__IndexOf_TisPlayableBinding_t2498078091_m398853908_gshared
rTe:_DynamicPropertyCollection_get_HasProperties_m2092159924
V8:__ZN19RuntimeSceneManager14LoadSceneAsyncERKN4core12basic_stringIcNS0_20StringStorageDefaultIcEEEES6_S6_RK9UnityGUIDiNS_11LoadingModeEbRP10UnityScene
_8g:_emscripten_glGetProgramInfoLog__wrapper
JP:__ZN17PersistentManager23DestroyFromFileInternalEi
QIa:__Z19SetupMotionMatricesR6CameraR18RPDataMotionVector
HZc:_Enum_ToString_m2112979707
$Rd:_MonoMethodMessage_get_MethodName_m3580519713
vXd:_ObjectManager_RecordArrayElementFixup_m2602188984
eJe:_Array_FindLastIndex_TisRuntimeObject_m986818300_gshared
d3:__ZN22CreateGpuProgramOutputC2Ev
nOd:_X509Chain__ctor_m2242540866
Pbd:_MemoryStream_InternalConstructor_m2423667240
ZSd:_SoapMethodAttribute_SetReflectionObject_m3431595769
YLb:__ZN8GUILayer12CleanupClassEv
ga:invoke_vidi
BSg:__ZN6il2cpp5utils11StringUtils15StringDuplicateEPKc
gSa:__Z15CanAddComponentR10GameObjectPKN5Unity4TypeE
w2:__ZNK9ShaderLab21ShaderRasterStateDesc16ToGfxRasterStateEPK19ShaderPropertySheetS3_R14GfxRasterState
n_d:_CspParameters__ctor_m2480441577
B$g:__ZN6il2cpp2os9EventImplC2Ebb
rbc:__Z12RangedRandomR5RandNRKiS2_
CTe:_DynamicPropertyCollection_NotifyMessage_m840388347
Ejf:_Uri_ParseUri_m5711497
W8e:__Z98RuntimeInvoker_RuntimeObject_RuntimeObject_RayU26_t3651946800_Single_t2076509932_Int32_t2071877448PFvvEPK10MethodInfoPvPS4_
JI:__Z20IsMatrixBuiltinParamPKcPi
MKb:__ZN8Renderer19PostInitializeClassEv
PXg:__ZN6il2cpp6icalls8mscorlib6System8Delegate23CreateDelegate_internalEP20Il2CppReflectionTypeP12Il2CppObjectP22Il2CppReflectionMethodb
A1d:_Default_check_type_m2363631305
bkb:__ZN18DelayedCallManager18CancelCallDelayed2E4PPtrI6ObjectEPF15CallObjectStatePS1_PvES7_
wde:_Latin1Encoding_GetCharCount_m3101226234
_Ya:__ZN25ThreadsafeLinearAllocator10ReallocateEPvji
Amb:__Z18Transfer_BlittableI14SafeBinaryReadLb1E11QuaternionfEvRK29SerializationCommandArgumentsR31RuntimeSerializationCommandInfo
vW:__ZN18SpriteAtlasManagerD0Ev
zae:_MonoProperty_GetAccessors_m3704698731
qXg:_GC_disable
ncb:__ZN10Matrix4x4f8TransferI14SafeBinaryReadEEvRT_
efd:_UnmanagedMemoryStream_ReadByte_m2501145010
yWd:_ObjectRecord_UnchainFixup_m3025030310
aQ:__Z6AppendRKN4core12basic_stringIcNS_20StringStorageDefaultIcEEEEPKc
Zub:__Z18Transfer_BlittableI18StreamedBinaryReadILb1EELb0E8Vector3fEvRK29SerializationCommandArgumentsR31RuntimeSerializationCommandInfo
V8e:__Z81RuntimeInvoker_RuntimeObject_Ray_t2469606224_Single_t2076509932_Int32_t2071877448PFvvEPK10MethodInfoPvPS4_
Lld:_Kernel_LeftShift_m1507484288
mSb:__Z37Camera_Get_Custom_PropAllCamerasCountv
Abb:__ZN14Texture2DArray8TransferI18StreamedBinaryReadILb0EEEEvRT_
zFg:__ZN6il2cpp6icalls8mscorlib6System5Array9GetLengthEP11Il2CppArrayi
iNa:__Z18ApplyOcclusionMaskR19ProbeOcclusionCacheRK17LightProbeContextRK10RenderNodeb
hbd:_FileStreamAsyncResult__ctor_m1096228032
Ta:invoke_fiiii
fVc:_DBNull_System_IConvertible_ToSByte_m1228193074
$4f:_Collection_1__ctor_m2818834331_gshared
d8e:__Z68RuntimeInvoker_UInt16_t986882611_UInt16_t986882611_UInt16_t986882611PFvvEPK10MethodInfoPvPS4_
xPg:__ZN6il2cpp2os10ThreadImpl22CreateForCurrentThreadEv
eOe:_Component_GetComponents_TisRuntimeObject_m3784130262_gshared
suc:_SecurityElement__ctor_m1988489885
Iad:_FileStream_FlushBuffer_m2594140542
nTg:__ZN6il2cpp2vm8Profiler12GCHeapResizeEx
A5g:dynCall_viiifi
$qa:__ZN18GfxFramebufferGLES20ActiveContextChangedEPP17RenderSurfaceBaseS2_
Xqa:__Z19PluginsRenderMarkeri
Slf:_X509CertificateEnumerator_get_Current_m3129374511
ZKg:__ZNSt3__214__split_bufferIN6il2cpp2vm5Image20EmbeddedResourceDataERNS_9allocatorIS4_EEEC2EjjS7_
xHf:__ZL57DispIdAttribute_t607560947_CustomAttributesCacheGeneratorP21CustomAttributesCache
Hs:__ZN12AudioManager17RemoveAudioSourceEP11AudioSource
dtf:_CullingGroup_Finalize_m3172731580
gcg:_AesManaged_get_KeySize_m2773901127
bPe:_Array_InternalArray__get_Item_TisUInt64_t2909196914_m2580870875_gshared
Rfe:_UTF8Decoder_GetChars_m3819660582
BB:__ZN5physx14PxLightCpuTask12addReferenceEv
C7a:__ZN21EnlightenSceneMapping8TransferI19StreamedBinaryWriteILb0EEEEvRT_
yMg:__ZN6il2cpp2gc16GarbageCollector19InitializeFinalizerEv
zrb:__Z35Transfer_Blittable_FixedBufferFieldI24GenerateTypeTreeTransferxEvRK29SerializationCommandArgumentsR31RuntimeSerializationCommandInfo
KJ:__Z20CalculateSqrDistanceRK8Vector3fRK4AABB
xw:__Z32AudioMixerDuckingProcessCallbackP21UnityAudioEffectStatePfS1_jii
p2d:_CustomAttributeTypedArgument_GetHashCode_m999147081_AdjustorThunk
PJb:__ZN26CustomRenderTextureManagerD2Ev
Rad:_FileStream_Read_m3880951166
nt:__ZN12AudioManager8TransferI24GenerateTypeTreeTransferEEvRT_
fdc:__ZN16CustomDataModuleD0Ev
e6:__Z25GetBytesFromTextureFormat13TextureFormat
gpf:_AudioClipPlayable__ctor_m1273139759
gi:_emscripten_webgl_init_context_attributes
PN:__Z32scripting_class_get_assemblyname17ScriptingClassPtr
Aic:__ZN11UnityEngine15PlatformWrapper15GetVRDeviceNameEv
uag:_StackTraceUtility__cctor_m1132099289
Mie:_TimeSpan_Equals_m2029123271_AdjustorThunk
Qog:__ZN6il2cpp2vm13MetadataCache23GetInvokerMethodPointerEPK10MethodInfoPK20Il2CppGenericContext
qva:__ZN9GfxDevice21RegisterNativeTextureE9TextureIDi16TextureDimension
Qpa:__Z27BufferUpdateCausesStallGLESPK14DataBufferGLES
SYg:__ZN6il2cpp6icalls8mscorlib6System10Reflection4Emit11TypeBuilder20create_generic_classEP27Il2CppReflectionTypeBuilder
ni:_emscripten_glUniformMatrix4fv
FDg:__ZN15dense_hashtableINSt3__24pairIK10KeyWrapperINS1_IP11Il2CppClassjEEES4_EES6_N6il2cpp8metadata14ArrayClassHashEN14dense_hash_mapIS6_S4_SB_NS6_14EqualsComparerINSA_17ArrayClassCompareEEENS0_9allocatorIS8_EEE9SelectKeyESF_SH_E13set_empty_keyERKS8_
UEb:__ZN12ScriptMapperD2Ev
p3b:__ZN9SubModule8TransferI14SafeBinaryReadEEvRT_
J0b:__ZN14ParticleSystem15AddCustomLightsERK27LocalLightCullingParametersRK11CullResultsR12ActiveLightsRi9LightType
Llf:_X509Certificate_PEM_m49854707
Vkf:_ExtendedKeyUsageExtension_Decode_m901297139
aWg:_GC_check_leaked
ADb:__ZN9ShaderLab20SerializedSubProgram16TextureParameter8TransferI19StreamedBinaryWriteILb0EEEEvRT_
t_a:__ZNK7Hash12812PackToUInt32Ev
JRb:__Z37AsyncOperation_CUSTOM_InternalDestroyP12Il2CppObject
PF:__ZN11UnityEngine15CloudWebService16SessionContainer8AddEventEPNS0_14CloudEventInfoE
kua:__Z4TrimRKN4core12basic_stringIcNS_20StringStorageDefaultIcEEEES5_
yCf:__ZL55GuidAttribute_t222072359_CustomAttributesCacheGeneratorP21CustomAttributesCache
a2d:_CustomAttributeNamedArgument_Equals_m2691468532
X9a:__ZN10VertexData8TransferI14SafeBinaryReadEEvRT_
ppa:__ZN11TextureData17GetImageReferenceEii
iNc:_Stack__ctor_m2410583781
y1d:_Default_GetBetterMethod_m4255740863
Z2d:_ConstructorBuilder_GetILGenerator_m1731893569
$Kg:__ZNSt3__214__split_bufferIN6il2cpp2vm5Image20EmbeddedResourceDataERNS_9allocatorIS4_EEED2Ev
VL:__ZL20SortItemByInstanceIDRKN18AwakeFromLoadQueue4ItemES2_
U6d:_TypeBuilder_create_runtime_class_m2719530260
Ipc:_RNGCryptoServiceProvider_RngClose_m2921734810
Obc:__ZN14ParticleSystem24StartParticlesProceduralERS_R23ParticleSystemParticlesfffjj
hkc:__ZN20UnityConnectSettings8TransferI24GenerateTypeTreeTransferEEvRT_
Ljd:_SimpleCollator_IsHalfKana_m4255579023
mue:_InternalEnumerator_1_get_Current_m3206960238_AdjustorThunk
cAa:__Z16FlaggedAsSkippedIN4core12basic_stringIcNS0_20StringStorageDefaultIcEEEEEbRK13FileEntryInfoRKT_19FileEnumerationFlag
UR:__ZL31InitializeRendererUpdateManagerPv
O5e:__Z106RuntimeInvoker_RuntimeObject_Int16_t4041245914_RuntimeObject_BooleanU26_t3168250738_BooleanU26_t3168250738PFvvEPK10MethodInfoPvPS4_
NAd:_ClientSessionInfo_Dispose_m2571428025
ZDd:_RecordProtocol_decryptRecordFragment_m2510859489
ngb:__ZN11TimeManager8TransferI19StreamedBinaryWriteILb0EEEEvRT_
ybd:_DelegatePInvokeWrapper_ReadDelegate_t3184826381
pic:__ZN11UnityEngine15PlatformWrapper27GetGraphicsCapsSupportFlagsEv
wWc:_Decimal_Equals_m1115043331
Iub:__ZN12NativeBufferI16Converter_StringE15SetupForWritingER9ArrayInfo
b8g:___cxa_end_catch__wrapper
Afc:__ZL24GenerateParticleGeometryIL24ParticleSystemRenderMode0ELb1ELb0EL25ParticleSystemRenderSpace4EEvPfRK22ParticleSystemTempDataRK26ParticleSystemRendererDataRK21ParticleSystemModulesRK23ParticleSystemParticlesRK31ParticleSystemParticlesTempData
QRa:__ZN13MonoBehaviour22DoScriptRebuildWarningEv
oSb:__Z38Camera_CUSTOM_INTERNAL_CALL_RaycastTryP12Il2CppObjectRK3Rayfi
XMb:__ZNK10GameObject22GetComponentPtrAtIndexEi
HQe:_GCHandle_get_Target_m2327042781
M4g:_llvm_cttz_i32
$Ld:_PublicKey_DecodeDSA_m1169363495
KNe:_Array_Sort_TisRuntimeObject_m143182644_gshared
xGg:__ZN6il2cpp5utils9PathUtils7CombineIcEENSt3__212basic_stringIT_NS3_11char_traitsIS5_EENS3_9allocatorIS5_EEEERKSA_SC_
gId:_NameObjectCollectionBase_BaseGet_m667273025
F2e:__Z104RuntimeInvoker_RuntimeObject_Byte_t3683104436_RuntimeObject_SByte_t454417549_RuntimeObject_RuntimeObjectPFvvEPK10MethodInfoPvPS4_
cZb:__ZN9JSONWrite8TransferI13dynamic_arrayIiLj4EEEEvRT_PKc17TransferMetaFlags
$K:__Z18ConvertUTF16toUTF8PPKtS0_PPhS2_15ConversionFlags
SQg:__ZN6il2cpp2os20PathErrnoToErrorCodeERKNSt3__212basic_stringIcNS1_11char_traitsIcEENS1_9allocatorIcEEEEi
ake:_TypeLoadException__ctor_m1903359728
wdg:__ZL16my_g_bit_nth_msfj
Fnc:_KeySizes__ctor_m3526899007
Z4c:_Int16_System_IConvertible_ToInt32_m191782913_AdjustorThunk
Gag:_SpriteAtlasManager__cctor_m1344469326
OYf:__ZL69ArgumentCache_t4810721_CustomAttributesCacheGenerator_m_FloatArgumentP21CustomAttributesCache
aAc:_EncoderReplacementFallback__ctor_m2208438262
$Fa:__Z23SetupStereoFlareElementP11FlareVertexRK8Vector2fS3_S3_RK11ColorRGBA32RK10Matrix4x4fRK8Vector3fb
m0b:__ZN9rapidjson8internal6u64toaEyPc
H9c:_Directory_GetFiles_m4036267478
dZc:_Enum_System_IConvertible_ToType_m2669300536
Dra:__ZL19BlitFramebufferImplRN4gles23BlitFramebufferDrawQuadER9GfxDevice9TextureIDRK8Vector4f
r6f:_ReadOnlyCollection_1_System_Collections_IList_Add_m2333231354_gshared
K6d:_OpCodes__cctor_m939885911
mKb:__ZN14Texture2DArray11InitTextureEiii13TextureFormatb
CEd:_RSASslSignatureDeformatter_SetHashAlgorithm_m4048969080
bsc:_SymmetricAlgorithm_set_Padding_m3081984460
Yfb:__ZN9InputAxis8TransferI18StreamedBinaryReadILb0EEEEvRT_
$2b:__ZN11ForceModule8TransferI14SafeBinaryReadEEvRT_
fYd:_StreamingContext_t1417235061_marshal_pinvoke_back
DHc:_ArrayList_RemoveAt_m2578928333
sQe:_COMException__ctor_m488488930
alf:_GeneralNames_get_DNSNames_m2721668874
zac:__ZN11NoiseModule17CalculateNoiseJobILi3ELb1ELb1EEEvP12NoiseJobData
VYc:_Enum_System_IConvertible_ToByte_m38374586
s7g:_emscripten_glFrustum__wrapper
pEd:_ReceiveRecordAsyncResult_get_CompletedWithError_m2670396551
hWc:_Decimal_Equals_m1798565377
C3d:_TypeBuilder_check_created_m2929267877
x6e:__Z121RuntimeInvoker_Int64_t909078037_Int32_t2071877448_Int32_t2071877448_Int32_t2071877448_Int32_t2071877448_Int32_t2071877448PFvvEPK10MethodInfoPvPS4_
TCa:__Z20SyncFenceCullResultsR11CullResults
$sa:__ZN15TextureTFMethod20IsBoneCountSupportedEi
SHe:_PlayableHandle_IsPlayableOfType_TisAudioMixerPlayable_t1831808911_m1065481197_AdjustorThunk
qTd:_ObjRef__ctor_m1486312270
iTc:_DateTime_System_IConvertible_ToSByte_m2575078084_AdjustorThunk
Qqb:__Z22TransferField_NonArrayI17RemapPPtrTransfer27Converter_SimpleNativeClassI8GUIStyleEEvRK23StaticTransferFieldInfoR31RuntimeSerializationCommandInfoRT0_
tIb:__ZNK17AnimationCurveTplIfE20EvaluateWithoutCacheEfRf
YOg:__ZN6il2cpp2os6Thread12QueueUserAPCEPFvPvES2_
A3:__ZN19ShaderPropertySheet10SetTextureERK23FastTexturePropertyNameP7Texture
E5f:_Collection_1_IsValidItem_m1304951912_gshared
wPc:_Convert_ToDateTime_m4161927553
I3d:_TypeBuilder_GetConstructors_m774120094
Mp:__ZN17AnimationCurveTplIfE8TransferI14SafeBinaryReadEEvRT_
$fc:__ZN22ParticleSystemRenderer15InitializeClassEv
z_c:_Calendar_get_EraNames_m452820602
f9a:__ZNSt3__26vectorIN15QualitySettings14QualitySettingENS_9allocatorIS2_EEE6assignIPS2_EENS_9enable_ifIXaasr21__is_forward_iteratorIT_EE5valuesr16is_constructibleIS2_NS_15iterator_traitsIS9_E9referenceEEE5valueEvE4typeES9_S9_
kEa:__ZNK19ShaderPropertySheet11HasPropertyERKN9ShaderLab16FastPropertyNameE
VSc:_DateTime_System_IConvertible_ToByte_m2670443498_AdjustorThunk
cH:__GLOBAL__sub_I_runtime_utilities4_lump_cpp
Kud:_BigInteger_op_Addition_m1734797151
b4d:_EnumBuilder_CreateNotSupportedException_m62763134
Olc:__ZNK12HeaderHelper3GetERKN4core12basic_stringIcNS0_20StringStorageDefaultIcEEEE
jNd:_X509Chain_CheckRevocation_m2480313486
Voc:_RijndaelManagedTransform_TransformBlock_m2558865851
Pfb:__ZN9InputAxis8TransferI14SafeBinaryReadEEvRT_
iM:__ZNK21ExecutionOrderManager30GetCustomAwakeFromLoadQueueForEPKN5Unity4TypeE
llc:__Z27RegisterModule_UnityConnectv
OAg:__ZN6il2cpp2vm10Reflection27GetCustomAttributesCacheForEP25Il2CppReflectionParameter
Jhe:_Scheduler_Remove_m1930366072
eUd:_RealProxy__ctor_m3041043303
K0c:_NumberFormatter_Init_m2654758994
Uv:__ZN10ObjectPoolIN4FMOD12ChannelGroupENS0_13ChannelGroupIEE7SetSizeEi
Emd:_PrimalityTest_BeginInvoke_m966469054
eW:__ZN15dense_hashtableINSt3__24pairIKN4core12basic_stringIcNS2_20StringStorageDefaultIcEEEE13dynamic_arrayI4PPtrI6SpriteELj4EEEES6_20StringHash32FunctionIS6_EN14dense_hash_mapIS6_SC_SF_NS0_8equal_toIS6_EE13stl_allocatorISD_L18MemLabelIdentifier79ELi16EEE9SelectKeyESI_SL_E9copy_fromERKSO_j
Yme:_UInt64_System_IConvertible_ToInt16_m2797150165_AdjustorThunk
POe:_Array_InternalArray__get_Item_TisLabelData_t3712112744_m863115768_gshared
D6c:_Int32_Parse_m753946802
xCg:__ZN14dense_hash_mapI10KeyWrapperINSt3__24pairIPK9EventInfoP11Il2CppClassEEEj17ReflectionMapHashIS8_ENS9_14EqualsComparerINS1_8equal_toIS8_EEEENS1_9allocatorINS2_IKS9_jEEEEE15set_deleted_keyERSH_
p7d:_UnmanagedMarshal_ToMarshalAsAttribute_m3695569337
Bob:__Z14resize_trimmedINSt3__26vectorI17AnimationCurveTplIfE13stl_allocatorIS3_L18MemLabelIdentifier1ELi16EEEEEvRT_j
gQa:__ZN25CameraStackRenderingState19SetupLastEyeCamerasERK11CameraStack
mRb:__Z12GUIDToStringRK9UnityGUID
Zmc:__GLOBAL__sub_I_runtime_vr_plugininterface_lump_cpp
gs:__ZN11SoundHandleC2ERKS_
Tac:__Z9UpdateTplIL27ParticleSystemCurveEvalMode2EEvRK11MinMaxCurveR23ParticleSystemParticlesPfRKN4math7_float4Ejj
_ng:__ZNK6il2cpp5utils11collections13ArrayValueMapIPK10Il2CppType17Il2CppInteropData26InteropDataToTypeConverterNS_8metadata14Il2CppTypeLessENS8_26Il2CppTypeEqualityComparerEE10find_firstERKS5_
D$:__ZN13RenderTexture13AwakeFromLoadE17AwakeFromLoadMode
jmd:_BigInteger_op_Addition_m1196561843
gTe:_FormatterData__ctor_m3974986124
Uoc:_RijndaelManagedTransform_get_CanReuseTransform_m3735256596
yKc:_Comparer__cctor_m1327316974
C9c:_MonoIO_ExistsFile_m1421941572
sUc:_DateTime_op_GreaterThanOrEqual_m3818963848
hTa:__ZN6Camera25StandaloneRenderToCubemapEP7TextureiPFvPK9SceneNodePK4AABBR9IndexListPvESA_j
t3a:__ZN14RenderSettings18TransferDeprecatedI14SafeBinaryReadEEvRT_
xI:__ZN12TLSAllocatorI14StackAllocatorE8AllocateEji
dN:__ZN16ScriptingManager18GetMonoScriptCacheEi
r_e:__Z62RuntimeInvoker_Void_t1841601450_RuntimeObject_Int64_t909078037PFvvEPK10MethodInfoPvPS4_
nkg:__ZN15dense_hashtableINSt3__24pairIK10KeyWrapperIPK11Il2CppClassEPKcEES6_N6il2cpp5utils11PointerHashIS3_EEN14dense_hash_mapIS6_S9_SE_NS6_14EqualsComparerINS0_8equal_toIS5_EEEENS0_9allocatorISA_EEE9SelectKeyESJ_SL_E15set_deleted_keyERKSA_
lnb:__Z18Transfer_BlittableI14SafeBinaryReadLb1EyEvRK29SerializationCommandArgumentsR31RuntimeSerializationCommandInfo
a9b:__ZNSt3__27__sort5IR31SortCollisionEventsByGameObjectP22ParticleCollisionEventEEjT0_S5_S5_S5_S5_T_
IVb:__ZN8JSONRead8TransferIfEEvRT_PKc17TransferMetaFlagsb
mpe:_U3CGetEnumeratorU3Ec__Iterator0_Reset_m2980566576_gshared
x3g:__ZNSt3__212basic_stringIcNS_11char_traitsIcEENS_9allocatorIcEEE6appendEPKcj
JFf:__ZL54TypeBuilder_t3308873219_CustomAttributesCacheGeneratorP21CustomAttributesCache
U7:__ZN6prcoreL17RemapGenericFloatI18TexFormatARGBFloat17TexFormatRGBAHalfEEvPKNS_9InnerInfoE
E4d:_GenericTypeParameterBuilder_GetAttributeFlagsImpl_m3338182267
ZB:__ZN13Simd4iFactoryIN6detail9FourTupleEEC2Eiiii
Ydd:_SynchronizedReader__ctor_m1408327515
gof:_X509Store_LoadCrl_m1146720614
rs:__ZN9AudioClip7WWWOpenEPKciPjPPvS4_
c7a:__ZN15SerializeTraitsI33EnlightenTerrainChunksInformationE8TransferI14SafeBinaryReadEEvRS0_RT_
aLb:__ZNK32RendererMaterialAnimationBinding9BindValueER6ObjectRKN11UnityEngine9Animation14GenericBindingERNS3_10BoundCurveE
Rca:__ZL18stbir__support_onef
i2f:_List_1_System_Collections_IList_Remove_m2040310137_gshared
QXb:__Z26Transfer_UnityEngineObjectI9JSONWriteLb0EEvRK29SerializationCommandArgumentsR31RuntimeSerializationCommandInfo
Mcc:__ZN14VelocityModuleD2Ev
iAc:_EncoderReplacementFallback_CreateFallbackBuffer_m3579126537
dme:_UInt32_System_IConvertible_ToInt16_m2251335934_AdjustorThunk
qdc:__Z39ParticleSystemRenderer_RenderBillboardsIL21SpriteMaskInteraction0EEvRK15RenderNodeQueuej17ShaderChannelMaski
gDc:_Boolean_System_IConvertible_ToType_m3990189691
ua:invoke_vdd
Hm:FUNCTION_TABLE_fiii
tYc:_Double_System_IConvertible_ToUInt32_m624993430
qJb:__ZNK30SpriteRendererAnimationBinding12GetPPtrValueERKN11UnityEngine9Animation10BoundCurveE
Hhe:_Scheduler_Add_m376749205
FPa:__Z29PluginsIssueRenderingExtEvent26UnityRenderingExtEventTypePv
hKg:__ZN15dense_hashtableINSt3__24pairIK10KeyWrapperINS1_IPKcS4_EEEiEES6_24NamespaceAndNamePairHashN14dense_hash_mapIS6_iS9_NS6_14EqualsComparerI26NamespaceAndNamePairEqualsEENS0_9allocatorIS8_EEE9SelectKeyESD_SF_E12resize_deltaEjj
aKb:__Z14RandomRotationP9Texture2DPhiiii
Ujd:_SimpleCollator_IsIgnorable_m2485013022
RUc:_DateTimeOffset_ToString_m2121173678_AdjustorThunk
l6e:__Z74RuntimeInvoker_RuntimeObject_RuntimeObject_Int16_t4041245914_RuntimeObjectPFvvEPK10MethodInfoPvPS4_
Bi:_JS_WebRequest_SetResponseHandler
ddh:_glDeleteProgram__wrapper
uSb:__Z50Register_UnityEngine_Camera_INTERNAL_get_pixelRectv
k7:__ZN6prcoreL18BlitFloatToIntegerERK14ImageReferenceRS0_
dsd:_X509CertificateCollection_get_Item_m410866272
iF:__ZN11UnityEngine15CloudWebService14RestDownloader17OnCompleteContentEv
twg:__ZN15dense_hashtableINSt3__24pairIK10KeyWrapperINS1_IPK14Il2CppAssemblyP11Il2CppClassEEEjEES9_17ReflectionMapHashIS8_EN14dense_hash_mapIS9_jSD_NS9_14EqualsComparerINS0_8equal_toIS8_EEEENS0_9allocatorISB_EEE9SelectKeyESI_SK_E15insert_noresizeERKSB_
p6e:__Z75RuntimeInvoker_RuntimeObject_RuntimeObject_Double_t4078015681_RuntimeObjectPFvvEPK10MethodInfoPvPS4_
F5e:__Z200RuntimeInvoker_Boolean_t3825574718_RuntimeObject_RuntimeObject_RuntimeObject_Int32_t2071877448_DateTimeU26_t3448131235_SByte_t454417549_BooleanU26_t3168250738_SByte_t454417549_ExceptionU26_t1467204777PFvvEPK10MethodInfoPvPS4_
Ga:invoke_viffi
YT:__ZNSt3__26vectorI20ProcessCallbackGroupNS_9allocatorIS1_EEEC2ERKS4_
LMg:__ZN6il2cpp2gcL10CleanupCCWEPvS1_
Ja:invoke_vifff
xTb:__Z53Register_UnityEngine_Input_INTERNAL_get_mousePositionv
Qbh:_glGetVertexAttribiv__wrapper
je:_emscripten_request_fullscreen
RX:__ZN20LocalFileSystemWebGL6DeleteER13FileEntryDatab
VVc:_Decimal_System_IConvertible_ToUInt16_m1621568250
le:_emscripten_glDisableVertexAttribArray
Cie:_TimeSpan_get_TotalMinutes_m1645177229_AdjustorThunk
Lna:__ZN4gles23ClearCurrentFramebufferEP7ApiGLESbbbRK10ColorRGBAffi
we:_emscripten_glDeleteObjectARB
Apa:__Z14DecompressDXT3iiiPKjPj
Oed:_UnexceptionalStreamReader_Read_m3839775235
D7b:__ZN12LightsModule5StartER23ParticleSystemParticlesjj
l8:__ZN6prcoreL17RemapGenericFloatI17TexFormatRGBAHalf18TexFormatARGBFloatEEvPKNS_9InnerInfoE
$Yc:_Enum_System_IConvertible_ToInt32_m2459904362
s6e:__Z61RuntimeInvoker_RuntimeObject_Double_t4078015681_RuntimeObjectPFvvEPK10MethodInfoPvPS4_
P3e:__Z211RuntimeInvoker_Int32_t2071877448_RuntimeObject_Int32_t2071877448_Int32_t2071877448_Int32_t2071877448_Int32_t2071877448_RuntimeObject_DecoderFallbackBufferU26_t3597875002_ByteU5BU5DU26_t790777611_SByte_t454417549PFvvEPK10MethodInfoPvPS4_
Nzc:_DecoderReplacementFallbackBuffer_Reset_m2576819665
LLc:_Enumerator__cctor_m298562758
Ogd:_MonoType_GetConstructors_internal_m2709619723
Huc:_WindowsIdentity_Dispose_m2649088337
Ygd:_MonoType_GetMethodImpl_m593754598
gCb:__ZNSt3__26vectorIN9ShaderLab20SerializedSubProgramENS_9allocatorIS2_EEE6assignIPS2_EENS_9enable_ifIXaasr21__is_forward_iteratorIT_EE5valuesr16is_constructibleIS2_NS_15iterator_traitsIS9_E9referenceEEE5valueEvE4typeES9_S9_
PZb:__Z18Transfer_BlittableI8JSONReadLb0E8BitFieldEvRK29SerializationCommandArgumentsR31RuntimeSerializationCommandInfo
rVd:_SoapServices_RegisterInteropXmlType_m2949236705
Uvb:__ZL17Transfer_GUIStyleI18StreamedBinaryReadILb1EELb0EEvRK29SerializationCommandArgumentsR31RuntimeSerializationCommandInfo
Jyc:_String_CharCopy_m2550399897
d7e:__Z234RuntimeInvoker_RuntimeObject_Int16_t4041245914_RuntimeObject_Int32_t2071877448_Int32_t2071877448_Int32_t2071877448_SByte_t454417549_SByte_t454417549_SByte_t454417549_SByte_t454417549_Int16_t4041245914_SByte_t454417549_SByte_t454417549PFvvEPK10MethodInfoPvPS4_
pAb:__ZN9ShaderLab14SerializedPass8TransferI14SafeBinaryReadEEvRT_
Kz:__ZN12AudioManager16SetListenerPauseEb
GGg:__ZN6il2cpp2vm9Exception25RaiseOutOfMemoryExceptionERKNS_5utils10StringViewIDsEE
Y4f:_Collection_1_IsValidItem_m2254106115_gshared
R3d:_TypeBuilder_GetEvent_m3876348075
da:invoke_viiiiiiiiiii
e0g:___syscall_ret
Khe:_Scheduler__ctor_m3716265742
hpd:_MACAlgorithm_Final_m4076939925
avg:__ZNSt3__212basic_stringIcNS_11char_traitsIcEENS_9allocatorIcEEE6assignINS_11__wrap_iterIPKcEEEENS_9enable_ifIXaasr21__is_forward_iteratorIT_EE5valuesr38__libcpp_string_gets_noexcept_iteratorISC_EE5valueERS5_E4typeESC_SC_
Cab:__ZN11ChannelInfo8TransferI19StreamedBinaryWriteILb0EEEEvRT_
ire:_InternalEnumerator_1_System_Collections_IEnumerator_get_Current_m3583252352_gshared
s3d:_EnumBuilder_get_FullName_m2818393911
i3c:_RegionInfo_get_IsMetric_m3995025969
ZYg:__GLOBAL__sub_I_Runtime_cpp_29035
qTb:__Z34Register_UnityEngine_Gradient_Initv
JOb:__Z15WriteLineVertexILb0EEvRPhRKN4math8float4x4ERKNS2_7_float3ERK11ColorRGBA32RKffRKNS2_7_float2E
z4b:__ZN13InitialModule8TransferI17RemapPPtrTransferEEvRT_
cPe:_Array_InternalArray__get_Item_TisUriScheme_t1876590943_m1821482697_gshared
Ntd:_BigInteger__ctor_m3239748086
mX:__ZN13ScreenManager23SetIsOrientationEnabledE18EnabledOrientationb
Zfb:__ZN9InputAxis8TransferI19StreamedBinaryWriteILb0EEEEvRT_
kIb:__ZN13ProduceHelperI9TransformLb0EE7ProduceE18MemLabelIdentifier18ObjectCreationMode
Csf:_Component_SendMessageUpwards_m19741277
XKe:_Array_InternalArray__ICollection_Add_TisHitInfo_t1761367055_m2956071622_gshared
CSa:__ZN10GameObject23VirtualRedirectTransferER18StreamedBinaryReadILb0EE
mXd:_ObjectRecord_get_IsUnsolvedObjectReference_m2202692850
JPd:_FactoryCache_Cleanup_m4130035987
w4b:__ZN14ParticleSystem8TransferI17RemapPPtrTransferEEvRT_
lbc:__Z11StartCircleILN11ShapeModule14MultiModeValueE3EEvRS0_R23ParticleSystemParticlesRK19ParticleSystemStateRK27ParticleSystemEmissionStateRKN4math8float3x3ERKNSB_8float4x4Ejbj
IHb:__ZN13ProduceHelperI19LowerResBlitTextureLb0EE7ProduceE18MemLabelIdentifier18ObjectCreationMode
WLa:__ZNSt3__26vectorI16ShadowCasterData13stl_allocatorIS1_L18MemLabelIdentifier2ELi16EEE21__push_back_slow_pathIKS1_EEvRT_
Hme:_UInt32_ToString_m1783596809
Cnf:_X509ExtensionCollection_get_Item_m4212651995
x6f:_ReadOnlyCollection_1_System_Collections_IList_RemoveAt_m525136953_gshared
C7:__ZN6prcoreL17RemapGenericFloatI17TexFormatRGBFloat18TexFormatRGBAFloatEEvPKNS_9InnerInfoE
Mme:_UInt64_System_IConvertible_ToBoolean_m3012279573_AdjustorThunk
Bke:_Type_get_IsGenericTypeDefinition_m2147901038
Mya:__ZN12HandlerChain10ToAbsoluteEPKc
g0c:_GregorianCalendar__ctor_m3794576475
Cme:_UInt32_TryParse_m4283512434
BCe:__ZN21InterfaceFuncInvoker2Ib8IntPtr_tS0_E6InvokeEjP11Il2CppClassP12Il2CppObjectS0_S0_
Zr:__ZN9AudioClip11CreateSoundEv
F5f:_Collection_1_ConvertItem_m2185647560_gshared
hje:_TimeSpan_op_Inequality_m257547441
pge:_ExecutionContext_GetObjectData_m1456913356
LCg:__ZN14dense_hash_mapI10KeyWrapperINSt3__24pairIPK9FieldInfoP11Il2CppClassEEEj17ReflectionMapHashIS8_ENS9_14EqualsComparerINS1_8equal_toIS8_EEEENS1_9allocatorINS2_IKS9_jEEEEEC2EjRKSB_RKSF_
fwf:_Object_set_hideFlags_m2204253440
lyg:__ZNK15dense_hashtableINSt3__24pairIK10KeyWrapperINS1_IPK10MethodInfoP11Il2CppClassEEEjEES9_17ReflectionMapHashIS8_EN14dense_hash_mapIS9_jSD_NS9_14EqualsComparerINS0_8equal_toIS8_EEEENS0_9allocatorISB_EEE9SelectKeyESI_SK_E13find_positionERSA_
Xka:__ZN13GfxDeviceGLES20CreateComputeProgramEPKhj
$1c:_DateTimeFormatInfo_get_RoundtripPattern_m562440017
Jkc:__ZN11UnityEngine7Connect16PersistentValues13RestoreValuesER8JSONRead
sAa:__ZN20ArchiveStorageReader31TryToReadDirectoryFromBlockDataEyPKvj
_Xc:_Double_System_IConvertible_ToByte_m3004284950_AdjustorThunk
sJg:__ZN6il2cpp2vmL11GetIdentityEP14Il2CppIUnknown
Iod:_SmallXmlParser_ReadCDATASection_m2558307107
LVg:_GC_push_gc_structures
KId:_ServicePointManager_get_ServerCertificateValidationCallback_m1409951209
Yrg:__ZN6il2cpp6icalls8mscorlib6SystemL8IsPublicEPK9EventInfo
cNc:_Enumerator_get_Current_m1271212567
WSg:__ZThn4_N6il2cpp2vm13ComObjectBase18ReleaseMarshalDataEP13Il2CppIStream
lfc:__ZN22ParticleSystemRenderer23UpdateVertexInputLayoutEv
yJd:_IPAddress_ParseIPV6_m2209709575
Vab:__ZNSt3__213__stable_sortIRNS_4lessI4PPtrI11SpriteAtlasEEENS_11__wrap_iterIPS4_EEEEvT0_SA_T_NS_15iterator_traitsISA_E15difference_typeEPNSD_10value_typeEi
J_e:__Z92RuntimeInvoker_RuntimeObject_Int32_t2071877448_Int32_t2071877448_RuntimeObject_RuntimeObjectPFvvEPK10MethodInfoPvPS4_
$J:__ZN8keywords6CreateEPKc
S:Math_imul
sfb:__ZN14SpriteRenderer15SetupPropertiesEv
t9a:__ZN11PlayerPrefs6GetIntERKN4core12basic_stringIcNS0_20StringStorageDefaultIcEEEEi
Lmg:__ZN6il2cpp5utils13dynamic_arrayIPK10Il2CppTypeLj4EEC2ERKS5_
BLc:_Hashtable_ContainsKey_m2716576664
vff:_PatternCompiler_EmitCategory_m1696942454
_1b:__ZN30VelocityModulePropertyBindings13GetFloatValueERK14ParticleSystemi
eWc:_Decimal_decimalFloorAndTrunc_m3655683429
oLe:_Array_InternalArray__ICollection_CopyTo_TisInt32_t2071877448_m984622488_gshared
RK:__ZN18ScriptingArguments9AddObjectE18ScriptingObjectPtr
uC:__ZN11UnityEngine15CloudWebService16SessionContainerD2Ev
$na:__ZN17GenericDynamicVBOC2ER9GfxDevice13GfxBufferModejj
ND:__ZN11UnityEngine15CloudWebService17SessionEventQueue10PurgeItemsEj
oRa:__ZN6Camera16StandaloneRenderENS_10RenderFlagEP6ShaderRKN4core12basic_stringIcNS3_20StringStorageDefaultIcEEEE
wAc:_Array_System_Collections_IList_get_Item_m2088124007
QAc:_Array_GetLength_m2083296647
pJc:_SynchronizedArrayListWrapper_ToArray_m1522185111
fja:__ZN9GfxDevice20DeallocRenderSurfaceEP17RenderSurfaceBase
Aoe:_ValueType_ToString_m3796301715
Fqa:__ZN20GpuProgramParameters36UpdatePrepareValuesMaximumBufferSizeEv
S5b:__ZN20ExternalForcesModule8TransferI19StreamedBinaryWriteILb0EEEEvRT_
q0a:__ZN12BaseRenderer23RendererBecameInvisibleEv
Vsb:__Z29Transfer_Blittable_ArrayFieldI24GenerateTypeTreeTransferfEvRT_R9ArrayInfoRK23StaticTransferFieldInfo
N_e:__Z76RuntimeInvoker_RuntimeObject_RuntimeObject_SByte_t454417549_SByte_t454417549PFvvEPK10MethodInfoPvPS4_
bUa:__ZN19CustomRenderTexture9AddParentE4PPtrIS_E
i8a:__ZN8Gradient8TransferI14SafeBinaryReadEEvRT_
y4:__ZNSt3__26vectorIN4core12basic_stringIcNS1_20StringStorageDefaultIcEEEE13stl_allocatorIS5_L18MemLabelIdentifier1ELi16EEE7reserveEj
OId:_FileWebRequest__ctor_m4003648606
bZc:_Enum_System_IConvertible_ToSByte_m3488526280
zTg:__GLOBAL__sub_I_Assembly_cpp_28484
Tvf:_MonoBehaviour_StopAllCoroutines_m1675795839
Qng:__ZNK15dense_hashtableI10KeyWrapperIPK19Il2CppGenericMethodES4_N6il2cpp8metadata23Il2CppGenericMethodHashEN14dense_hash_setIS4_S7_NS4_14EqualsComparerINS6_26Il2CppGenericMethodCompareEEENSt3__29allocatorIS4_EEE8IdentityESB_SE_E4findERKS4_
KX:__ZNK20LocalFileSystemPosix9IsSymLinkERK13FileEntryData
FUg:_GC_new_free_list_inner
eFe:_DefaultComparer_Equals_m85211180_gshared
Qgd:_MonoType_InternalGetEvent_m532443236
D_b:__ZN8JSONRead8TransferI10RectOffsetEEvRT_PKc17TransferMetaFlagsb
vD:__ZN9JSONWrite8TransferIN11UnityEngine15CloudWebService14DataErrorEvent15FileErrorDetailEEEvRT_PKc17TransferMetaFlags
izc:_Decoder__ctor_m2623573910
Pu:__ZN12SoundManager20RegisterModifiedClipEP10SampleClip
Hlg:__ZN15dense_hashtableI10KeyWrapperIPK17Il2CppGenericInstES4_N6il2cpp8metadata21Il2CppGenericInstHashEN14dense_hash_setIS4_S7_NS4_14EqualsComparerINS6_24Il2CppGenericInstCompareEEENSt3__29allocatorIS4_EEE8IdentityESB_SE_E13set_empty_keyERKS4_
Uod:_SmallXmlParser_IsNameChar_m1561000202
umf:_X501__cctor_m2610532554
dAe:_Enumerator_VerifyState_m3173176371_gshared
w5a:__ZN7Cubemap23VirtualRedirectTransferER18StreamedBinaryReadILb0EE
rAd:_RecordProtocol_EncodeRecord_m3884270352
lTc:_DateTime_System_IConvertible_ToType_m3821835592
hSc:_Convert_ToUInt32_m776714429
mxa:__ZN12FileAccessor4SeekEx10FileOrigin
Prb:__ZL26Transfer_SimpleNativeClassI24GenerateTypeTreeTransfer17AnimationCurveTplIfELb0EEvRK29SerializationCommandArgumentsR31RuntimeSerializationCommandInfo
q7a:__ZN24GenerateTypeTreeTransfer8TransferI13dynamic_arrayI33EnlightenTerrainChunksInformationLj4EEEEvRT_PKc17TransferMetaFlags
U7b:__Z9UpdateTplIL27ParticleSystemCurveEvalMode2EEvRK11MinMaxCurveR23ParticleSystemParticlesjjbjRK8Vector2f
aS:__ZN16LightmapSettings20DidChangeActiveSceneEP10UnitySceneS1_
ksg:__ZN6il2cpp5utils9PathUtils8BasenameIcEENSt3__212basic_stringIT_NS3_11char_traitsIS5_EENS3_9allocatorIS5_EEEERKSA_
ew:__ZN10AudioMixer11SetupGroupsEv
DSe:_ClientIdentity_CreateObjRef_m3625915063
Hpd:_PrivateKeyInfo_DecodeRSA_m1427048948
SGg:__ZN6il2cpp2vm9Exception23GetInvalidCastExceptionERKNS_5utils10StringViewIDsEE
C0d:_Assembly_FillName_m1934025015
Gxc:_String_IndexOf_m2126171214
R7c:_Int64_ToString_m1544341651_AdjustorThunk
R3c:_Guid_CheckNull_m2903986431
Wec:__ZN14ParticleSystem15InitializeClassEv
ZL:__Z63ThreadAndSerializationSafeCheckGetMonoBehaviourBeingTransferredv
pXg:_GC_enable
mCd:_TlsClientCertificateVerify_ProcessAsSsl3_m3377063356
iZc:_Enum_GetName_m1226611481
jbb:__ZN14Texture2DArray23VirtualRedirectTransferER18StreamedBinaryReadILb0EE
aif:_Literal_CompileLiteral_m276843152
P6a:__ZN16LightmapSettings23VirtualRedirectTransferER14SafeBinaryRead
sLa:__ZN14qsort_internal30FindAndMovePivotToLastPositionIP20ShadowCasterSortDatai26ShadowCasterSortDataSorterEEvT_S4_T0_T1_
lmg:__ZNK15dense_hashtableI10KeyWrapperIPK19Il2CppGenericMethodES4_N6il2cpp8metadata23Il2CppGenericMethodHashEN14dense_hash_setIS4_S7_NS4_14EqualsComparerINS6_26Il2CppGenericMethodCompareEEENSt3__29allocatorIS4_EEE8IdentityESB_SE_E3endEv
lmb:__Z18Transfer_BlittableI14SafeBinaryReadLb1EiEvRK29SerializationCommandArgumentsR31RuntimeSerializationCommandInfo
Tea:__ZN17PersistentManager13GetAllFileIDsERKN4core12basic_stringIcNS0_20StringStorageDefaultIcEEEER13dynamic_arrayIxLj8EE
QBc:_Array_LastIndexOf_m4096535198
tHc:_ArrayList_Add_m1719188324
oYc:_Double_System_IConvertible_ToSByte_m1653690240_AdjustorThunk
b7e:__Z59RuntimeInvoker_RuntimeObject_Byte_t3683104436_RuntimeObjectPFvvEPK10MethodInfoPvPS4_
Vj:_glGetStringi
U$c:_CultureInfo_set_NumberFormat_m1618950525
Ebb:__ZN18StreamedBinaryReadILb0EE21TransferSTLStyleArrayI13dynamic_arrayI8Vector4fLj4EEEEvRT_17TransferMetaFlags
uNd:_X509Store__ctor_m1573680316
JNd:_X509Chain_get_CertificateCollection_m324631835
oJe:_Array_InternalArray__IndexOf_TisClientCertificateType_t4001384466_m1168139450_gshared
hE:__ZN11UnityEngine15CloudWebService20WebRequestRestClient18GetResponseHeadersEv
$de:_StringBuilder_Append_m3618697540
Wrc:_SymmetricAlgorithm_set_IV_m4262655606
j2d:_CustomAttributeNamedArgument_GetHashCode_m3715408876_AdjustorThunk
OMd:_X509Certificate2_AppendBuffer_m3517242299
xPa:__Z35IntersectSpherePlaneBoundsOptimizedRKN4math7_float4EPS1_i
Q$c:_CultureInfo_get_IsNeutralCulture_m3874876470
UWc:_Delegate_CreateDelegate_m3813023227
lkf:_Uri_get_AbsoluteUri_m2120317928
CR:__Z22CleanupLODGroupManagerPv
Ek:_glUniform3fv
Whb:__ZNSt3__218__insertion_sort_3IRN15ResourceManager10Dependency6SorterEPS2_EEvT0_S6_T_
A6e:__Z53RuntimeInvoker_Int32_t2071877448_TimeSpan_t3430258949PFvvEPK10MethodInfoPvPS4_
fPb:__ZNK8Gradient19InitializeOptimizedER17OptimizedGradient
FYe:__Z64RuntimeInvoker_RuntimeObject_Int32_t2071877448_Int16_t4041245914PFvvEPK10MethodInfoPvPS4_
zgd:_IntComparer_Compare_m3057931085
_Ja:__ZNK16LightmapSettings31GetRealtimeLightmapDecodeValuesEv
Dw:__ZN5audio5mixer12SetSuspendedERNS0_16AudioMixerMemoryEb
haa:__ZN17PersistentManager21UnloadNonDirtyStreamsEv
GHg:__ZN6il2cpp2vm13LivenessStateC2EP11Il2CppClassjPFvPP12Il2CppObjectiPvES7_PFvvESB_
HPe:_Array_ConvertAll_TisRuntimeObject_TisRuntimeObject_m2423585546_gshared
WDa:__ZN12ImageFilters4BlitER17ShaderPassContextP7TextureP13RenderTextureiPK18SharedMaterialDataPKcP6ShaderiNS_9BlitFlagsE11CubemapFaceRK8Vector2fSH_
dLd:_Oid__ctor_m1936781897
XD:__ZN11UnityEngine15CloudWebService10RestClientINS0_23WebRequestRestHeaderMapEED2Ev
LPe:_ResourceSet__ctor_m1222864106
_k:_emscripten_glDepthMask
dpa:__ZN4crnd25static_huffman_data_model22prepare_decoder_tablesEv
rud:_ModulusRing_Difference_m662924064
HW:__ZL22CleanupUnityWebStreamsPv
Cxb:__Z18Transfer_BlittableI18StreamedBinaryReadILb0EELb0E10ColorRGBAfEvRK29SerializationCommandArgumentsR31RuntimeSerializationCommandInfo
LHd:_ListDictionary_Add_m4276262662
fS:__Znaj
upc:_RIPEMD160Managed_GGG_m1639995340
Ddh:_emscripten_glEnableClientState__wrapper
dJ:__ZN17MessageIdentifierC2EPKcNS_7OptionsEPKN5Unity4TypeES1_
SZg:__ZN6il2cpp6icalls8mscorlib4Mono8Security12Cryptography18KeyPairPersistence15_ProtectMachineEP12Il2CppString
JAc:_Array_System_Collections_IList_Remove_m2438892375
zdd:_TextWriter__ctor_m2225796097
K_a:__ZN14SafeBinaryRead8TransferI14ConstantStringEEvRT_PKc17TransferMetaFlags
S9f:_ScriptableObject_Internal_CreateScriptableObject_m1778903390
D1:__ZNK6Camera16GetStereoEnabledEv
DKb:__ZN12LightManager15InitializeClassEv
D2:__ZN9ShaderLab11shaderprops16GetComputeBufferEPK19ShaderPropertySheetS3_NS_16FastPropertyNameE
cL:__ZN18ScriptingArgumentsC2Ev
pje:_TimeZone_IsDaylightSavingTime_m875882154
l9g:_emscripten_glBlendFuncSeparate__wrapper
gzd:_CipherSuiteCollection_System_Collections_IList_set_Item_m750275607
zma:__Z17HasSampledTexture14GraphicsFormat13formatSupport
pFa:__ZNK25CameraStackRenderingState27GetStereoImageEffectTextureEb
Eqc:_SHA1CryptoServiceProvider__ctor_m3127563759
Fo:__ZN8Vector3f8TransferI14SafeBinaryReadEEvRT_
rn:FUNCTION_TABLE_ii
e0a:__ZN10TagManager8TransferI18StreamedBinaryReadILb0EEEEvRT_
qXb:__Z18Transfer_BlittableI9JSONWriteLb0E8BitFieldEvRK29SerializationCommandArgumentsR31RuntimeSerializationCommandInfo
Gme:_UInt32_ToString_m3894907091_AdjustorThunk
K$c:_CultureInfo_get_TextInfo_m1582311326
hKe:_Array_ForEach_TisRuntimeObject_m1849351808_gshared
yod:_SmallXmlParser_Error_m1832158746
HRc:_Convert_ToSingle_m3241295474
_Wa:__Z24CreateDirectoryRecursiveRKN4core12basic_stringIcNS_20StringStorageDefaultIcEEEE
bDb:__ZN9ShaderLab20SerializedSubProgram8TransferI18StreamedBinaryReadILb0EEEEvRT_
$cd:_StreamAsyncResult_get_AsyncWaitHandle_m4218169359
W7g:b40
oda:__ZN9Texture3D8TransferI19StreamedBinaryWriteILb0EEEEvRT_
uGa:__ZNK6Camera22CalculateRenderingPathEv
KYb:__ZN9JSONWrite8TransferI5RectTIfEEEvRT_PKc17TransferMetaFlags
Vra:__Z13ConvertMipmap14GraphicsFormatPKvS_Pviiii
orc:_SHA384Managed_processBlock_m3232296629
Wrd:_X509Certificate_get_PublicKey_m714501701
i0:__Z14IsHalfRTFormat19RenderTextureFormat
Uxc:_String_LastIndexOf_m290475879
qAb:__ZN14SafeBinaryRead19TransferSTLStyleMapINSt3__23mapIN4core12basic_stringIcNS3_20StringStorageDefaultIcEEEEiNS1_4lessIS7_EENS1_9allocatorINS1_4pairIKS7_iEEEEEEEEvRT_17TransferMetaFlags
Wwe:_InternalEnumerator_1_System_Collections_IEnumerator_get_Current_m1658267053_gshared
EXg:__ZN6il2cpp6icalls8mscorlib6System9Threading16NativeEventCalls20CreateEvent_internalEbbP12Il2CppStringPb
Qme:_UInt64_System_IConvertible_ToChar_m1930853313_AdjustorThunk
hCd:_TlsClientCertificate_SendCertificates_m1096074091
kMc:_SyncHashtable_get_Item_m408601391
J3f:_Stack_1_System_Collections_ICollection_CopyTo_m2104527616_gshared
gee:_StringBuilder_AppendFormat_m1666670800
sMa:__ZN18DeferredRenderLoop13RenderGBufferEP13RenderTexturePS1_b8JobFencePK25DeferredRenderLoopScratchRi
RFg:__ZN6il2cpp6icalls8mscorlib6System9ThreadingL11ThreadStartEPv
fU:__ZN15DirectorManager12OnSampleTimeEv
Bsd:_AttrListImpl_GetName_m1919558736
b1:__ZN12CachedReader10Align4ReadEv
kHg:__ZN6il2cpp2vm9Exception28GetMarshalDirectiveExceptionEPKc
Ehd:_MulticastDelegate_GetObjectData_m3187757658
m_a:__ZNK9Behaviour22GetTypeVirtualInternalEv
zQa:__Z21GetScriptingArraySize17ScriptingArrayPtr
gfc:__ZNSt3__27__sort4IRN10vector_mapIi22ParticleModulePropertyNS_4lessIiEENS_9allocatorINS_4pairIiS2_EEEEE13value_compareEPS7_EEjT0_SD_SD_SD_T_
bka:__ZN9GfxDevice17ImmediateTexCoordEifff
sgf:_Parser_ParseRegularExpression_m2390577313
nCc:_Array_double_swapper_m1175307080
jOd:_X509CertificateEnumerator_System_Collections_IEnumerator_Reset_m327358896
cuc:_Hash__ctor_m2554411450
f1c:_NumberFormatter_AppendDigits_m1308372770
Kvc:_Single_System_IConvertible_ToDateTime_m2510003459_AdjustorThunk
kXc:_Delegate_RemoveImpl_m3666700529
m7g:_emscripten_glUniform4f__wrapper
cId:_NameObjectCollectionBase_OnDeserialization_m3478980442
PQe:_GCHandle_Equals_m170815541_AdjustorThunk
sB:__Z78Register_UnityEngine_Audio_AudioPlayableOutput_INTERNAL_CALL_InternalSetTargetv
SIa:__ZNK6Camera16GetProjectionFarEv
Gp:__Z24InverseTransformRotationRK23TransformAccessReadOnlyRKN4math7_float4E
Cfd:_MissingFieldException__ctor_m1161042282
j4a:__ZNK14PlayableOutput11DerivesFromE17ScriptingClassPtr
tda:__ZN7Texture34CreateFileTextureUploadInstructionE18TextureUploadFlagsj
LDa:__ZN13ComputeShader14SetBufferParamEjRKN9ShaderLab16FastPropertyNameE15ComputeBufferID
HSe:_ConfigHandler_CheckPath_m2296459741
qP:__Z23AsyncReadForceCloseFileRKN4core12basic_stringIcNS_20StringStorageDefaultIcEEEE
tA:__ZN16BaseVideoTexture19UpdateVideoTexturesEv
R2a:__Z28BuildSingleStreamChannelInfo17ShaderChannelMaskRK20VertexChannelsLayoutS_S2_P11ChannelInfo
Sba:__ZNK16LightmapSettings23HasLightProbeTetrahedraEv
H8b:__ZNK18ColorBySpeedModule12UpdateSingleERK22ParticleSystemParticleR11ColorRGBA32
uBd:_Context_get_WriteSequenceNumber_m243492531
D9a:__ZN6Sprite23VirtualRedirectTransferER19StreamedBinaryWriteILb0EE
VFf:__ZL51Assembly_t4268412390_CustomAttributesCacheGeneratorP21CustomAttributesCache
Nxc:_String_LastIndexOfAny_m1473637802
oxg:__ZNK15dense_hashtableINSt3__24pairIK10KeyWrapperINS1_IPK9FieldInfoP11Il2CppClassEEEjEES9_17ReflectionMapHashIS8_EN14dense_hash_mapIS9_jSD_NS9_14EqualsComparerINS0_8equal_toIS8_EEEENS0_9allocatorISB_EEE9SelectKeyESI_SK_E5beginEv
V2:__ZNK9ShaderLab7Program19HasMatchingVariantsERK13dynamic_arrayI16ShaderKeywordSetLj4EE
ena:__ZN14DataBufferGLES11CopySubDataEPKS_jjj
Dd:_emscripten_glVertexPointer
rwa:__ZNSt3__26__treeI20DeviceDepthStateGLES11memcmp_lessIS1_S1_ENS_9allocatorIS1_EEE7destroyEPNS_11__tree_nodeIS1_PvEE
xsg:__ZN6il2cpp2vm7Runtime47RaiseExecutionEngineExceptionIfMethodIsNotFoundEPK10MethodInfo
_La:__Z17GetFrustumPortionPK8Vector3fffPS_
QIg:__ZN15dense_hashtableINSt3__24pairIK10KeyWrapperIP14Il2CppIUnknownEjEES5_N6il2cpp5utils11PointerHashIS3_EEN14dense_hash_mapIS5_jSB_NS5_14EqualsComparerINS0_8equal_toIS4_EEEENS0_9allocatorIS7_EEE9SelectKeyESG_SI_E14squash_deletedEv
ASc:_CultureAwareComparer_Compare_m2587353351
sec:__Z9UpdateTplIL22MinMaxGradientEvalMode1EL12GradientMode0ELS1_1EEvRK23ParticleSystemParticlesP11ColorRGBA32RK14MinMaxGradientRK23OptimizedMinMaxGradient
l1b:__ZN37InheritVelocityModulePropertyBindings13SetFloatValueER14ParticleSystemif
D_c:_CCGregorianCalendar_is_leap_year_m567513478
OCc:_Attribute_IsDefined_m2118467641
Gpd:_PrivateKeyInfo_Normalize_m3959595934
LUc:_DateTimeOffset_GetHashCode_m3312197462
ENb:__ZN16StreamedResource8TransferI24GenerateTypeTreeTransferEEvRT_
wta:__ZN10Matrix3x3f15InvertTransposeEv
K5b:__ZN14EmissionModule8TransferI19StreamedBinaryWriteILb0EEEEvRT_
bHe:_Array_InternalArray__ICollection_Remove_TisKeyValuePair_2_t1174980068_m2768765894_gshared
Fhb:__ZN15ResourceManagerD2Ev
lpb:__Z29Transfer_Blittable_ArrayFieldI14SafeBinaryRead8Vector3fEvRT_R9ArrayInfoRK23StaticTransferFieldInfo
Sle:_UInt32_System_IConvertible_ToBoolean_m91295134
vge:_Monitor_Monitor_test_synchronised_m1542589500
tqd:_SymmetricTransform_TransformFinalBlock_m4192185386
E3c:_TextInfo__ctor_m1263401274
nVg:_GC_print_finalization_stats
b7a:__ZN15SerializeTraitsI13dynamic_arrayI33EnlightenTerrainChunksInformationLj4EEE19ResizeSTLStyleArrayERS2_i18MemLabelIdentifier
PJd:_IPAddress_ToString_m267966740
jp:__ZNSt3__26vectorIN4core12basic_stringIcNS1_20StringStorageDefaultIcEEEENS_9allocatorIS5_EEE8__appendEj
eqf:_AudioClipPlayable_SetPauseDelayInternal_m3827440449
shb:__ZN26PlayerSettingsSplashScreen8TransferI17RemapPPtrTransferEEvRT_
Lue:_InternalEnumerator_1_get_Current_m3922357178_gshared
grg:__ZN6il2cpp6icalls8mscorlib6SystemL17CollectTypeFieldsINS_5utils10functional10TrueFilterEEEvP11Il2CppClassPKS7_iRNSt3__26vectorIP9FieldInfoNSB_9allocatorISE_EEEERKT_
Hje:_Type_get_IsValueType_m1733572463
qGb:__Z13GetTagManagerv
DHe:_Array_InternalArray__ICollection_Remove_TisUInt16_t986882611_m65494986_gshared
Bdg:__ZL10roundUp128PyS_
eC:__ZN11UnityEngine15CloudWebService17CloudJobSchedulerD0Ev
Iwc:_String_System_IConvertible_ToBoolean_m2696751322
qaa:__ZN18LoadSceneOperation7PerformEv
Quf:_GUILayer_INTERNAL_CALL_HitTest_m693512502
xrf:_Camera_get_pixelRect_m2084185953
jie:_TimeSpan__ctor_m1888018443_AdjustorThunk
gMc:_SyncHashtable_get_Count_m3694444082
Cvg:__ZNSt3__26vectorINS_12basic_stringIcNS_11char_traitsIcEENS_9allocatorIcEEEENS4_IS6_EEE8allocateEj
Tua:__ZN22VertexDeclarationCache5ClearEv
wch:_emscripten_glUniform2i__wrapper
_Ua:__ZN17PersistentManager12SetPathRemapERKN4core12basic_stringIcNS0_20StringStorageDefaultIcEEEES6_
GNa:__ZN6Camera24PrepareCullingParametersERK23CameraCullingParameters13RenderingPathR11CullResults
Caa:__ZN19RuntimeSceneManager22EndIntegrateMainThreadEP10UnitySceneNS_11LoadingModeE
Fqb:__Z26Transfer_UnityEngineObjectI17RemapPPtrTransferLb0EEvRK29SerializationCommandArgumentsR31RuntimeSerializationCommandInfo
Vxc:_String_IsNullOrEmpty_m2802126737
yFc:_Byte_Parse_m1442736478
z7c:_Int64_Parse_m3258022240
Hxc:_String_IndexOfOrdinal_m3591623977
g_d:_CryptoConfig_EncodeLongNumber_m2352037787
kke:_Type_GetMethod_m475234662
yRe:_ActivationServices_get_ConstructionActivator_m1726426854
Osb:__Z29Transfer_Blittable_ArrayFieldI24GenerateTypeTreeTransfer4AABBEvRT_R9ArrayInfoRK23StaticTransferFieldInfo
LNf:__ZL52Activator_t1850728717_CustomAttributesCacheGeneratorP21CustomAttributesCache
pWg:_GC_adj_bytes_allocd
VKe:_Array_InternalArray__ICollection_Add_TisKeyframe_t1449471340_m887263954_gshared
$Le:_Array_InternalArray__Insert_TisDateTime_t693205669_m1484996356_gshared
iWc:_Decimal_Equals_m1798565377_AdjustorThunk
yZb:__Z18Transfer_BlittableI8JSONReadLb0EsEvRK29SerializationCommandArgumentsR31RuntimeSerializationCommandInfo
lcd:_MonoIO_get_ConsoleInput_m2976499023
G6d:_OpCode_get_Size_m481593949_AdjustorThunk
IJc:_BitArrayEnumerator_checkVersion_m3839504595
cBc:_Array_GetUpperBound_m1352329707
sIb:__ZNK17AnimationCurveTplIfE20FindIndexForSamplingERKNS0_5CacheEfRiS4_
Rzd:_RecordProtocol__ctor_m168945279
IUc:_DateTimeOffset_Equals_m3728302791_AdjustorThunk
LLa:__ZN20SphericalHarmonicsL219AddDirectionalLightERKN4math7_float3ERKNS0_7_float4E
gje:_TimeSpan_op_GreaterThanOrEqual_m3997050520
_T:__Z26ScheduleJobForEachInternalR8JobFencePFvPvjES1_iPFvS1_E11JobPriority
ULd:_OidEnumerator_MoveNext_m1889267785
ABa:__ZZ23InitPlayerLoopCallbacksvEN41PostLateUpdateProfilerEndFrameRegistrator7ForwardEv
sPb:__ZN9Scripting18RaiseMonoExceptionEPKcz
m6a:__ZN9Texture2D8TransferI19StreamedBinaryWriteILb0EEEEvRT_
bLb:__ZN9ShaderLab16FastPropertyName15InitBy28BitHashEj
Svc:_Single_System_IConvertible_ToInt32_m3269519527_AdjustorThunk
Kqc:_SHA1Internal_ProcessBlock_m4070037334
Yca:__ZN17PersistentManager17IsObjectAvailableEi
LXg:__ZN6il2cpp6icalls8mscorlib6System10Reflection14MonoMethodInfo15get_method_infoE12Il2CppIntPtrP16Il2CppMethodInfo
Mee:_UTF32Encoding_GetDecoder_m2714144074
ITd:_ObjRef_GetObjectData_m3081609242
hcb:__ZN17PackedFloatVector12UnpackFloatsEPfiiii
$ac:__Z16EmitterStoreDataRKN4math8float3x3ERKNS_8float4x4ER23ParticleSystemParticlesRK19ParticleSystemStatejRNS_8floatNx3ESC_R5RandNfffbb
H5f:_ReadOnlyCollection_1__ctor_m3671019970_gshared
Yka:__ZN13GfxDeviceGLES21DestroyComputeProgramER12ObjectHandleI18ComputeProgram_TagPvE
OPc:_Convert_ToDecimal_m2007036836
GR:__ZN17UniqueIDGenerator16DestroyPureIndexEj
QN:__ZL21AppendNestedClassName17ScriptingClassPtrRN4core17string_with_labelILi1EEE
RAb:__ZN14SafeBinaryRead21TransferSTLStyleArrayINSt3__26vectorIN9ShaderLab20SerializedSubProgram12UAVParameterENS1_9allocatorIS5_EEEEEEvRT_17TransferMetaFlags
FTe:_Context_NotifyDynamicSinks_m1367144344
nD:__ZN24TextDOMTransferWriteBaseI9JSONWriteE12PushMetaFlagEi
vZb:__Z18Transfer_BlittableI8JSONReadLb1E10ColorRGBAfEvRK29SerializationCommandArgumentsR31RuntimeSerializationCommandInfo
z2b:__ZN16MinMaxPolyCurves26FindMinMaxDoubleIntegratedEv
E8:__ZN6prcoreL26RemapGenericIntegerToFloatI17TexFormatARGB888815TexFormatRFloatEEvPKNS_9InnerInfoE
OTe:_Context_GetServerContextSinkChain_m390126977
pvg:__ZN6il2cpp2vm17TypeNameParseInfoD2Ev
Udd:_StringReader_Read_m513112775
V7a:__ZNK8Renderer8GetLayerEv
Y1a:__ZN12FlareManager11DeleteFlareEi
H4f:_Collection_1_Add_m2613548553_gshared
dIa:__ZNK6Camera20GetReplacementShaderEv
O8g:_glProgramBinary__wrapper
sVc:_Decimal__ctor_m569480123_AdjustorThunk
gJd:_HttpWebRequest__cctor_m3013631978
nZg:__ZNSt3__26__treeINS_12__value_typeINS_12basic_stringIcNS_11char_traitsIcEENS_9allocatorIcEEEEPFvvEEENS_19__map_value_compareIS7_SA_NS_4lessIS7_EELb1EEENS5_ISA_EEE4findIS7_EENS_15__tree_iteratorISA_PNS_11__tree_nodeISA_PvEEiEERKT_
cBb:__ZNSt3__26vectorIN9ShaderLab20SerializedSubProgram14ConstantBufferENS_9allocatorIS3_EEE7reserveEj
Hca:__ZL23stbir__calculate_memoryP11stbir__info
W2e:__Z83RuntimeInvoker_Void_t1841601450_Int64_t909078037_Int32_t2071877448_Int64_t909078037PFvvEPK10MethodInfoPvPS4_
rcg:_EqualityComparer_1_System_Collections_IEqualityComparer_GetHashCode_m487741360_gshared
Y$b:__ZNK9rapidjson12GenericValueINS_4UTF8IcEE13JSONAllocatorE6AcceptINS_12PrettyWriterI16TempBufferWriterS2_S2_S3_EEEEbRT_
YZb:__ZL26Transfer_SimpleNativeClassI8JSONRead10RectOffsetLb1EEvRK29SerializationCommandArgumentsR31RuntimeSerializationCommandInfo
kPe:_Component_GetComponentInChildren_TisRuntimeObject_m1823576579_gshared
MRe:_UrlAttribute_Equals_m1587451932
aXb:__Z18Transfer_BlittableI9JSONWriteLb1EsEvRK29SerializationCommandArgumentsR31RuntimeSerializationCommandInfo
R5c:_Int16_ToString_m4099416068_AdjustorThunk
i$d:_DSAParameters_t1872138834_marshal_pinvoke_cleanup
Jx:__ZN13AudioPlayable21ClearOutputConnectionEi
FCa:__ZN13RenderManager37RenderCamerasWithScriptableRenderLoopEi
Wmd:_ASN1_Element_m2600236165
VS:__ZN23InstancedPropInfoStaticL16RegisterCallbackEPv
XMg:__ZN6il2cpp2os19ReleaseSocketHandleEj
Zz:__ZN11AudioModule16GetDSPSampleRateEv
Z6d:_TypeBuilder_GetPropertyImpl_m1854119335
i3d:_TypeBuilder_get_next_table_index_m1415870184
A4g:___cxa_can_catch
cvd:_SequentialSearchPrimeGeneratorBase_GenerateNewPrime_m296245934
CGc:_Char_GetUnicodeCategory_m4273361321
q8b:__ZN14ParticleSystem4EmitEPS_RK21SubEmitterEmitCommand
Nz:__ZN10AudioMixer6UpdateEf
tfd:_Math_Round_m565516458
wTe:_Identity_get_ClientDynamicProperties_m767245959
cOg:__ZN6il2cpp2os5posix15PosixWaitObjectC2ENS2_4TypeE
pGa:__ZN6Camera21PostMultiCustomRenderENS_10RenderFlagEb
Q6d:_TypeBuilder_create_generic_class_m986834171
usa:__ZN12_GLOBAL__N_112UploadImagesEP7ApiGLESjji14GraphicsFormatPKhjS2_iiii16TextureUsageModePh
aga:__ZN23ShaderVariantCollection13WarmupShadersEv
hBd:_Context_set_ProtocolNegotiated_m1177527245
Wle:_UInt32_System_IConvertible_ToChar_m1056040486
vN:__Z25GetCommonScriptingClassesv
HL:__ZN10UnityScene43RegisterLevelGameManagersWithManagerContextEv
Taa:__Z27scripting_gc_collect_unsafei
cA:__ZN11AudioModule20SuspendVideoTexturesEv
yKb:__ZN12CubemapArrayC2E18MemLabelIdentifier18ObjectCreationMode
nOc:_Convert_ToByte_m395020137
jsb:__Z26Transfer_UnityEngineObjectI24GenerateTypeTreeTransferLb0EEvRK29SerializationCommandArgumentsR31RuntimeSerializationCommandInfo
Hed:_TextWriter_WriteLine_m1754475888
Nda:__ZN15SharedLightData7PrecalcEv
Fba:__ZN10Matrix4x4fmLERKS_
o8f:_InvokableCall_1_Invoke_m769918017_gshared
HOe:_Array_InternalArray__get_Item_TisDouble_t4078015681_m2215331088_gshared
eAa:__ZN15ArchiveReadFileD0Ev
mqd:_SymmetricTransform_TransformBlock_m1524716432
vic:__ZN11UnityEngine15PlatformWrapper18GetOperatingSystemEv
RWc:_Delegate_return_type_match_m4278947849
HLa:__Z30FindDirectAttenuationFromProbeP18ForwardLightsBlockbiRK10RenderNodeRK23FindForwardLightsParamsf
GNc:_GC_SuppressFinalize_m953228702
KFd:_InternalAsyncResult_get_ProceedAfterHandshake_m552962842
LQe:_GCHandle_Free_m1639542352
m0e:__Z63RuntimeInvoker_RuntimeObject_Int32_t2071877448_SByte_t454417549PFvvEPK10MethodInfoPvPS4_
QZg:__ZN6il2cpp6icalls8mscorlib4Mono8Security12Cryptography18KeyPairPersistence10_CanSecureEP12Il2CppString
Mdc:__ZN22ParticleSystemRenderer23VirtualRedirectTransferER14SafeBinaryRead
Fug:__ZN6il2cpp2os4File11GetFileStatERKNSt3__212basic_stringIcNS2_11char_traitsIcEENS2_9allocatorIcEEEEPNS0_8FileStatEPi
I5b:__ZN13InitialModule8TransferI19StreamedBinaryWriteILb0EEEEvRT_
Eha:__ZN13GfxDeviceGLES14SetRasterStateEPK17DeviceRasterState
GLd:_OidCollection_Add_m3712419303
DAd:_TlsServerHello__ctor_m3032108168
m0:__ZN14SafeBinaryRead11EndTransferEv
yFf:__ZL98ILGenerator_t99948092_CustomAttributesCacheGenerator_ILGenerator_Mono_GetCurrentOffset_m3553856682P21CustomAttributesCache
Inb:__ZN14SafeBinaryRead8TransferI8MonoPPtrEEvRT_PKc17TransferMetaFlags
M6b:__ZN11MinMaxCurve11ResetCurvesEv
tEd:_RecordProtocol_SendChangeCipherSpec_m3542001341
nGg:__ZNSt3__26vectorIcNS_9allocatorIcEEEC2Ej
jod:_KeyPairPersistence_CanSecure_m2251009700
CSd:_ReturnMessage_get_Properties_m531965085
B4d:_GenericTypeParameterBuilder_IsSubclassOf_m563999142
o_c:_Exception_ToString_m627574695
v7d:_AddEventAdapter_Invoke_m3970567975
tag:_StackTraceUtility_PostprocessStacktrace_m2866903298
iSe:_CrossAppDomainChannel_RegisterCrossAppDomainChannel_m43456045
aMe:_Array_InternalArray__Insert_TisDecimal_t724701077_m1429254816_gshared
nie:_TimeSpan_get_Days_m1002111510
Dfa:__ZNSt3__218__stable_sort_moveIRN10vector_mapI17ScriptingClassPtrPKN5Unity4TypeENS_4lessIS2_EENS_9allocatorINS_4pairIS2_S6_EEEEE13value_compareENS_11__wrap_iterIPSB_EEEEvT0_SJ_T_NS_15iterator_traitsISJ_E15difference_typeEPNSM_10value_typeE
Lzb:__ZN6Shader21AwakeFromLoadThreadedEv
G7:__ZN6prcoreL17RemapGenericFloatI17TexFormatRGBFloat17TexFormatRGBAHalfEEvPKNS_9InnerInfoE
J$b:__ZN8JSONRead21TransferSTLStyleArrayI13dynamic_arrayI8Vector2fLj4EEEEvRT_18MemLabelIdentifier17TransferMetaFlags
a$g:__ZN6il2cpp2os9SemaphoreC2Eii
ore:_InternalEnumerator_1_get_Current_m2960188445_AdjustorThunk
Knb:__ZNSt3__26vectorI8MonoPPtr13stl_allocatorIS1_L18MemLabelIdentifier1ELi16EEE8__appendEj
UGa:__ZN14qsort_internal30FindAndMovePivotToLastPositionIP17RODataReplacementi19ROSorterReplacementEEvT_S4_T0_T1_
pta:__ZN15UniformTFMethod20IsBoneCountSupportedEi
Nsc:_X509Certificate_GetExpirationDateString_m2351894475
Kad:_FileStream_get_Position_m465478322
$lg:__ZN14dense_hash_setI10KeyWrapperIPK19Il2CppGenericMethodEN6il2cpp8metadata23Il2CppGenericMethodHashENS4_14EqualsComparerINS6_26Il2CppGenericMethodCompareEEENSt3__29allocatorIS4_EEEC2EjRKS7_RKSA_
b6g:dynCall_viidi
eMe:_Array_InternalArray__Insert_TisInt64_t909078037_m3039874636_gshared
DEd:_RSASslSignatureDeformatter_SetKey_m1150106904
nL:__ZN24ScriptingMethodFiltering17FilterOnSignatureENS_18MethodSearchFilterE
a6b:__ZN11TrailModule8TransferI19StreamedBinaryWriteILb0EEEEvRT_
ukf:_Uri_IsAlpha_m558908574
VW:__ZN18ScreenManagerWebGL13SetLockCursorE14CursorLockMode
Wgd:_MonoType_GetMethodsByName_m1854415088
Tpd:_RSAManaged_EncryptValue_m4089823119
D$g:__ZN6il2cpp2os9EventImpl5ResetEv
zbd:_ReadDelegate_Invoke_m2091885836
uDe:_Dictionary_2_Add_m3435012856_gshared
$ah:b58
abh:b59
H9g:b52
I9g:b53
o9g:b50
E9g:b51
Tah:b56
Uah:b57
Rah:b54
Sah:b55
PSc:_DateTime__ctor_m3604679583_AdjustorThunk
gpd:_MACAlgorithm_Core_m2390605245
ZGb:__ZN10GameObject12CleanupClassEv
iia:__ZN9GfxDevice25SetShaderPropertiesSharedERK19ShaderPropertySheet
$kb:__ZN10MonoScript17MainThreadCleanupEv
woa:__ZN18AsyncUploadManager19AsyncResourceUploadER9GfxDeviceii9TextureID
LLb:__ZL25InitializeDefaultMaterialv
vAd:_TlsStream_Write_m2055734301
Qea:__ZN17PersistentManager12UnloadStreamERKN4core12basic_stringIcNS0_20StringStorageDefaultIcEEEEb
xdc:__Z43ParticleSystemRenderer_RenderMultipleMeshesIL21SpriteMaskInteraction2EEvRK15RenderNodeQueueRK18RenderMultipleData17ShaderChannelMask
D_d:_DESTransform__ctor_m4096028381
Utg:_il2cpp_unity_liveness_calculation_from_statics
Che:_Scheduler_get_Instance_m1989471839
SKd:_WebProxy_GetProxy_m1249556681
ZKd:_WebRequest_System_Runtime_Serialization_ISerializable_GetObjectData_m3377822910
u8a:__ZN8Renderer8TransferI17RemapPPtrTransferEEvRT_
j8g:_glBlitFramebuffer__wrapper
mgg:__ZL24UnresolvedVirtualCall_71P12Il2CppObjectS0_S0_iS0_S0_S0_PK10MethodInfo
bRa:__Z24LookRotationToQuaternionRK8Vector3fS1_P11Quaternionf
$Qa:__ZN16ReflectionProbes9GetCameraEv
hEb:__ZL18IsGpuProgramUsable20ShaderGpuProgramTypePK6Shader
Wdc:__ZN22ParticleSystemRenderer8TransferI14SafeBinaryReadEEvRT_
vtd:_ArgumentException__ctor_m2105824819
h$f:_Enumerator_MoveNext_m3078170540_gshared
$Ng:__ZN6il2cpp2vm11MethodStack23CleanupForCurrentThreadEv
s$f:_Enumerator_VerifyState_m825848279_AdjustorThunk
u2a:__ZN20TierGraphicsSettings8TransferI24GenerateTypeTreeTransferEEvRT_
gng:__ZN15dense_hashtableINSt3__24pairIK10KeyWrapperIN6il2cpp5utils13dynamic_arrayIPK10Il2CppTypeLj4EEEEPFvvEEESA_NS3_8metadata19Il2CppSignatureHashEN14dense_hash_mapISA_SD_SG_NSA_14EqualsComparerINSF_22Il2CppSignatureCompareEEENS0_9allocatorISE_EEE9SelectKeyESK_SM_E16reset_thresholdsEv
dpb:__ZN14SafeBinaryRead21TransferSTLStyleArrayI13dynamic_arrayI4AABBLj4EEEEvRT_17TransferMetaFlags
$4:__ZN18UnityPropertySheet8TransferI19StreamedBinaryWriteILb0EEEEvRT_
RCd:_TlsServerCertificate_checkServerIdentity_m3836435780
OU:__ZNSt3__26__treeINS_12__value_typeIiN11TypeManager18TypeCallbackStructEEENS_19__map_value_compareIiS4_NS_4lessIiEELb1EEENS_9allocatorIS4_EEE7destroyEPNS_11__tree_nodeIS4_PvEE
Vqd:_PKCS12_Decrypt_m2353135969
huf:_PersistentCallGroup_Initialize_m3908067069
b9d:_MonoEvent_ToString_m386956596
HNe:_Array_Sort_TisRuntimeObject_m3309514378_gshared
E1:__ZL19GetCameraTargetRectRK6Camerabb
r7b:__ZN14ParticleSystem8Update1bER24ParticleSystemUpdateDatafNS_11UpdateFlagsEi
URa:__ZN13dynamic_arrayIN10GameObject13ComponentPairELj4EE6insertEPS1_RKS1_
lZa:__ZN21UnityDefaultAllocatorI17LowLevelAllocatorE10DeallocateEPv
BG:__GLOBAL__sub_I_runtime_camera2_lump_cpp
Sp:__ZN15PackedIntVector8TransferI14SafeBinaryReadEEvRT_
A7d:_FieldInfo_get_IsLiteral_m267898096
RFd:_SslStreamBase_EndNegotiateHandshake_m1732321201
Xs:__ZN13AudioListener8DoUpdateEv
iOc:__Z13bankers_roundd
jhb:__ZN14SafeBinaryRead8TransferI5RectTIfEEEvRT_PKc17TransferMetaFlags
Mh:_emscripten_glGenFramebuffers
tLc:_Hashtable_CopyTo_m2778915805
JU:__ZN17BaseObjectManager16StaticInitializeEPv
H2d:_ConstructorBuilder_get_IsCompilerContext_m2796899803
nib:__ZN18StreamedBinaryReadILb0EE19TransferSTLStyleMapINSt3__28multimapIN4core12basic_stringIcNS4_20StringStorageDefaultIcEEEE4PPtrI6ObjectENS2_4lessIS8_EE13stl_allocatorINS2_4pairIKS8_SB_EEL18MemLabelIdentifier51ELi16EEEEEEvRT_17TransferMetaFlags
btg:_il2cpp_class_is_subclass_of
JOc:_DateTime_CoreParse_m2014268103
GXb:__Z18Transfer_BlittableI9JSONWriteLb0EyEvRK29SerializationCommandArgumentsR31RuntimeSerializationCommandInfo
one:_UInt64_Equals_m1243465002
vmc:__ZNK20UnityWebRequestProtoI19TransportJavaScript16AtomicRefCounter14RedirectHelper14ResponseHelper15DownloadHandler13UploadHandler12HeaderHelper14AsyncOperationE19GetDownloadProgressEv
ZIe:_Array_BinarySearch_TisRuntimeObject_m3361740551_gshared
R4a:__ZN12CubemapArray23VirtualRedirectTransferER14SafeBinaryRead
Ie:___cxa_free_exception
v5c:_Int32_ProcessTrailingWhitespace_m2812079777
NKd:_WebProxy__ctor_m3679722173
gKg:__ZN15dense_hashtableINSt3__24pairIK10KeyWrapperINS1_IPKcS4_EEEiEES6_24NamespaceAndNamePairHashN14dense_hash_mapIS6_iS9_NS6_14EqualsComparerI26NamespaceAndNamePairEqualsEENS0_9allocatorIS8_EEE9SelectKeyESD_SF_E6insertERKS8_
Q0:__ZN24GenerateTypeTreeTransfer18BeginArrayTransferEPKcS1_Ri17TransferMetaFlags
Coa:__Z16DecompressCrunchPKhRjR13TextureFormatiiii18MemLabelIdentifier
El:___syscall51
Il:___syscall54
neg:_UnityAction_2_Invoke_m1994351568_gshared
aLg:__ZN6il2cpp2vm5Image21GetCachedResourceDataEPK11Il2CppImageRKNSt3__212basic_stringIcNS5_11char_traitsIcEENS5_9allocatorIcEEEE
SKe:_Array_InternalArray__ICollection_Add_TisUInt32_t2149682021_m2629016323_gshared
Bmb:__Z18Transfer_BlittableI14SafeBinaryReadLb0E10ColorRGBAfEvRK29SerializationCommandArgumentsR31RuntimeSerializationCommandInfo
Occ:__ZN21InheritVelocityModuleD2Ev
sa:invoke_iiiiiiiiii
ULe:_Array_InternalArray__Insert_TisKeyValuePair_2_t888819835_m975554221_gshared
U2e:__Z59RuntimeInvoker_RuntimeObject_Int64_t909078037_RuntimeObjectPFvvEPK10MethodInfoPvPS4_
raa:__ZN18LoadSceneOperation19IntegrateTimeSlicedEi
Nhe:_Scheduler_SchedulerThread_m2209572785
_jd:_SortKeyBuffer_GetResultAndReset_m2516956577
XWa:__ZN10FileSystem19SetCurrentDirectoryERKN4core12basic_stringIcNS0_20StringStorageDefaultIcEEEE
RN:__ZN16ScriptingManager24NotifyScriptCacheReleaseEi
xqe:_InternalEnumerator_1_get_Current_m2151132603_gshared
$Rb:__Z47Register_UnityEngine_Coroutine_ReleaseCoroutinev
Dt:__ZN15AudioReverbZone13SetFMODValuesEv
hRc:_Convert_ToInt64_m3181519185
qK:__ZL19StaticDestroyShaderPv
yd:_glRenderbufferStorageMultisample
Kxg:__ZNK15dense_hashtableINSt3__24pairIK10KeyWrapperIPK10Il2CppTypeEjEES6_N6il2cpp8metadata14Il2CppTypeHashEN14dense_hash_mapIS6_jSB_NS6_14EqualsComparerINSA_26Il2CppTypeEqualityComparerEEENS0_9allocatorIS8_EEE9SelectKeyESF_SH_E10test_emptyEj
qpb:__Z35Transfer_Blittable_SingleValueFieldI14SafeBinaryReadfEvRT_R17GeneralMonoObjectRK23StaticTransferFieldInfo
kDd:_TlsServerHello_processProtocol_m1241336522
aHe:_Array_InternalArray__ICollection_Remove_TisKeyValuePair_2_t888819835_m1287715465_gshared
kUe:_ContextAttribute_IsContextOK_m3281216012
Lcd:_PathTooLongException__ctor_m3212099251
G9b:__Z25EvaluateRandomGradientHDRIL12GradientMode0ELS0_0EEN4math8floatNx4ERK14MinMaxGradientRKNS1_7_float4ES8_
qXd:_ObjectManager_RaiseDeserializationEvent_m1611173032
$p:__ZN17PackedFloatVector8TransferI18StreamedBinaryReadILb0EEEEvRT_
x5a:__ZN7Cubemap23VirtualRedirectTransferER17RemapPPtrTransfer
vOb:__ZN22BlockMemoryCacheWriter11GetPathNameEv
nUc:_DateTime_ToString_m3108726445_AdjustorThunk
sOe:_Array_InternalArray__get_Item_TisTableRange_t2011406615_m602485977_gshared
otd:_ApplicationException__ctor_m1120437222
Pn:stackAlloc
kSb:__Z44Camera_CUSTOM_INTERNAL_CALL_ScreenPointToRayP12Il2CppObjectRK8Vector3fR3Ray
pya:__ZN25SingleBlockMemoryFileData4LockEPPv
Y5d:_MethodBuilder_GetHashCode_m1713271764
hjd:_MSCompatUnicodeTable_GetResource_m3816716847
eRd:_Interval_get_IsSingleton_m1888598248_AdjustorThunk
Eud:_BigInteger_ModPow_m1418407677
rBc:_Array_CreateInstance_m15016505
E1g:_stat
li:_JS_Eval_ClearTimeout
Wbh:_glUniform2fv__wrapper
GLe:_Array_InternalArray__ICollection_CopyTo_TisUInt16_t986882611_m3228377237_gshared
Eye:_DefaultComparer_Compare_m2805784815_gshared
qga:__ZNSt3__218__insertion_sort_3IRNS_4lessIN22BuiltinResourceManager8ResourceEEEPS3_EEvT0_S7_T_
Isf:_Component_BroadcastMessage_m1308086896
uoc:_RC2_set_KeySize_m2015782960
ia:invoke_iiiiiiiiiiii
Jqd:_StrongName_get_PublicKey_m3777577320
nTb:__Z43Register_UnityEngine_GameObject_SendMessagev
ZQ:__ZNSt3__26__treeINS_12__value_typeIN4core12basic_stringIcNS2_20StringStorageDefaultIcEEEES6_EENS_19__map_value_compareIS6_S7_NS_4lessIS6_EELb1EEE13stl_allocatorIS7_L18MemLabelIdentifier12ELi16EEE7destroyEPNS_11__tree_nodeIS7_PvEE
Nig:__ZN6il2cpp2vm17SetupFieldsLockedEP11Il2CppClassRKNS_2os12FastAutoLockE
S1b:__ZN27TrailModulePropertyBindings13SetFloatValueER14ParticleSystemif
wXa:__ZN16MemoryFileSystem4NameEv
Ifd:_MissingMemberException_get_Message_m2763732423
Zud:_PrimeGeneratorBase_get_PrimalityTest_m308005118
P1f:_List_1_CheckIndex_m2328469916_gshared
q6e:__Z75RuntimeInvoker_RuntimeObject_RuntimeObject_Decimal_t724701077_RuntimeObjectPFvvEPK10MethodInfoPvPS4_
BBd:_Context_set_ServerRandom_m173601139
pQb:__Z42ScriptingGetComponentsOfTypeFromGameObjectRK26ScriptingGetComponentsArgs
aac:__Z9UpdateTplIL27ParticleSystemCurveEvalMode4EEvRK11MinMaxCurveS3_S3_R23ParticleSystemParticlesjjRKN4math8float3x3ERKNS6_7_float4E
G8f:_InvokableCall_4_Invoke_m1555001411_gshared
NRc:_Convert_ToString_m2915777777
A0b:__ZN35ClampVelocityModulePropertyBindings13SetFloatValueER14ParticleSystemif
B5:__ZNSt3__27__sort4IRPFbRKNS_4pairIN9ShaderLab16FastPropertyNameEN18UnityPropertySheet11UnityTexEnvEEES8_EPS6_EEjT0_SD_SD_SD_T_
pW:__ZN15dense_hashtableINSt3__24pairIKN4core12basic_stringIcNS2_20StringStorageDefaultIcEEEE10vector_setI4PPtrI11SpriteAtlasENS0_4lessISB_EE13stl_allocatorISB_L18MemLabelIdentifier79ELi16EEEEES6_20StringHash32FunctionIS6_EN14dense_hash_mapIS6_SH_SK_NS0_8equal_toIS6_EESE_ISI_LSF_79ELi16EEE9SelectKeyESN_SO_E5clearEv
Dhd:_MonoType_GetGenericTypeDefinition_m2363776160
rBd:_Context_set_SentConnectionEnd_m2641458842
Fd:_emscripten_glBufferSubData
BEc:_Buffer_BlockCopyInternal_m2627156229
I6:__ZN6prcoreL12RemapGenericI15TexFormatRGB88817TexFormatARGB8888EEvPKNS_9InnerInfoE
po:__Z17CalculateGlobalRS23TransformAccessReadOnly
Brf:_Camera_ScreenPointToRay_m614889538
Jld:_Kernel_multiByteDivide_m735279869
nEe:_Dictionary_2_ToTValue_m542772656_gshared
YS:__ZN33InstancedMeshIntermediateRenderer13StaticDestroyEPv
lhe:_Thread_GetNewManagedId_internal_m3211695465
sPe:_ScriptableObject_CreateInstance_TisRuntimeObject_m926060499_gshared
joa:__ZN17GenericDynamicVBO17DrawChunkInternalERK21DynamicVBOChunkHandle17ShaderChannelMaskS3_P17VertexDeclarationP16DrawBuffersRangeij
yzb:__ZN22MemoryCacherReadBlocks14LockCacheBlockEjPPhS1_
DDc:_Boolean_System_IConvertible_ToChar_m2637404801_AdjustorThunk
Luc:_SecurityContext_Capture_m2535194991
mle:_UInt16_System_IConvertible_ToSByte_m3044765342_AdjustorThunk
n5e:__Z66RuntimeInvoker_Void_t1841601450_Int64_t909078037_Int32_t2071877448PFvvEPK10MethodInfoPvPS4_
ooc:__Z21ArrayElementTypeCheckP11Il2CppArrayPv
obh:_emscripten_glTexSubImage2D__wrapper
wId:_NameValueCollection_AsSingleString_m10599052
v3g:__ZNSt3__212basic_stringIcNS_11char_traitsIcEENS_9allocatorIcEEE6appendEjc
Eid:_Object_InternalGetHashCode_m1371384246
i6c:_Int32_System_IConvertible_ToSByte_m1449623243_AdjustorThunk
Isd:_AccessViolationException__ctor_m1270251537
Dnf:_X509ExtensionCollection_IndexOf_m3972100651
fsf:_Component_GetComponentInChildren_m3985003615
me:_TTF_RenderText_Solid
gme:_UInt32_System_IConvertible_ToInt64_m3091851828
Mfd:_MissingMethodException__ctor_m3898429715
MUd:_RemotingConfiguration_RegisterClientProviderTemplate_m514821425
fAe:_Enumerator_System_Collections_IEnumerator_Reset_m3085583937_gshared
Upd:_RSAManaged_ExportParameters_m2873993187
JNc:_Convert__cctor_m926133987
x3f:_Enumerator__ctor_m2816143215_AdjustorThunk
blc:__ZN11UnityEngine7Connect16PersistentValuesC2Ev
ENd:_X509Chain_FindParent_m404663796
Kfd:_MissingMemberException__ctor_m2164043278
Kdg:__ZL7log2_32j
lra:__Z15IsIEEE754Format14GraphicsFormat
Kqb:__Z19TransferField_ArrayI17RemapPPtrTransfer27Converter_UnityEngineObjectEvRK23StaticTransferFieldInfoR31RuntimeSerializationCommandInfoRT0_
Chb:__ZN19StreamedBinaryWriteILb0EE8TransferI13dynamic_arrayI16SplashScreenLogoLj4EEEEvRT_PKc17TransferMetaFlags
zKa:__ZN19ShaderPropertySheet24SetTextureFromTextureRefERK23FastTexturePropertyNamePK10TextureRef
K7c:_NumberFormatter_InitDecHexDigits_m1612588520
vja:__ZN13GfxDeviceGLES15UploadTexture2DE9TextureID16TextureDimensionPKhiii14GraphicsFormati18TextureUploadFlags16TextureUsageMode
b8c:_IntPtr_System_Runtime_Serialization_ISerializable_GetObjectData_m21554269_AdjustorThunk
uv:__ZN4FMOD6System9createDSPEP20FMOD_DSP_DESCRIPTIONPPNS_3DSPE
Ke:_JS_SystemInfo_HasCursorLock
Kr:__ZN4FMOD8ChannelI11EndCallbackEv
lsc:_ToBase64Transform_TransformBlock_m2201454137
Bag:_Enumerator_MoveNext_m3980662062
H6d:_OpCode_get_StackBehaviourPop_m3787015663_AdjustorThunk
sff:_PatternCompiler_EmitCount_m3609178511
$8a:__ZN15QualitySettings23VirtualRedirectTransferER24GenerateTypeTreeTransfer
A7f:_U3CCreateWhereIteratorU3Ec__Iterator1D_1_System_Collections_Generic_IEnumerableU3CTSourceU3E_GetEnumerator_m2682676065_gshared
iPe:_Component_GetComponent_TisRuntimeObject_m4109961936_gshared
zug:__ZN6il2cpp2os10FileHandleC2Ev
UTb:__Z59Register_UnityEngine_MonoBehaviour_Internal_CancelInvokeAllv
xlg:__ZN30dense_hashtable_const_iteratorINSt3__24pairIK10KeyWrapperIPK19Il2CppGenericMethodEPK26Il2CppGenericMethodIndicesEES6_N6il2cpp8metadata23Il2CppGenericMethodHashEN14dense_hash_mapIS6_SA_SE_NS6_14EqualsComparerINSD_26Il2CppGenericMethodCompareEEENS0_9allocatorISB_EEE9SelectKeyESI_SK_EppEv
rHd:_HybridDictionary_Add_m1037587952
Nba:__Z37GetBarycentricCoordinatesForOuterCellPPK8Vector3fRK13dynamic_arrayIS_Lj4EERS0_RK11TetrahedronR8Vector4fRf
GIg:__ZN6il2cpp6icalls8mscorlib6System10Reflection10MonoMethod29get_IsGenericMethodDefinitionEP22Il2CppReflectionMethod
nFg:__ZN6il2cpp2vm6Thread21AllocThreadStaticDataEi
LOc:_DateTime_YearMonthDayFormats_m4204607055
vRg:__ZN30dense_hashtable_const_iteratorINSt3__24pairIK10KeyWrapperIPK19Il2CppGenericMethodEP10MethodInfoEES6_N6il2cpp8metadata23Il2CppGenericMethodHashEN14dense_hash_mapIS6_S9_SD_NS6_14EqualsComparerINSC_26Il2CppGenericMethodCompareEEENS0_9allocatorISA_EEE9SelectKeyESH_SJ_EppEv
yz:__Z13RegisterClassI13AudioListenerEvv
Wbg:_Aes__ctor_m4020215067
RWb:__Z18Transfer_BlittableI9JSONWriteLb0E8Vector3fEvRK29SerializationCommandArgumentsR31RuntimeSerializationCommandInfo
lf:_emscripten_glUniform4i
ifc:__ZNSt3__227__insertion_sort_incompleteIRN10vector_mapIi22ParticleModulePropertyNS_4lessIiEENS_9allocatorINS_4pairIiS2_EEEEE13value_compareEPS7_EEbT0_SD_T_
Fdc:__ZN22ParticleSystemRenderer5ResetEv
xe:_emscripten_glUniform4f
dKb:__Z13GrayscaleRampP9Texture2DPhiiii
PJc:_Comparer_Compare_m4132969818
Yw:__ZN20SoundChannelInstance19setReverbPropertiesEP29FMOD_REVERB_CHANNELPROPERTIES
eHg:__ZN6il2cpp2vm9Exception18GetFormatExceptionEPKc
LHc:_ArrayList_Sort_m923359189
ose:_InternalEnumerator_1_System_Collections_IEnumerator_get_Current_m3088751576_gshared
Hdg:__ZL17log2withScale_128yyi
NZ:__Z11StringToKeyRKN4core12basic_stringIcNS_20StringStorageDefaultIcEEEE
z9d:_MonoField_CheckGeneric_m1527550038
cT:__ZN13RuntimeStaticI15DirectorManagerLb0EE16StaticInitializeEPv
s_b:__ZN8JSONRead8TransferI23ManagedObjectTransfererEEvRT_PKc17TransferMetaFlagsb
mhe:_Thread_get_ManagedThreadId_m1995754972
kgb:__ZN11TimeManager6UpdateEv
p6f:_ReadOnlyCollection_1_System_Collections_ICollection_CopyTo_m406069566_gshared
cIc:_ArrayListWrapper_Contains_m1158465965
L1g:_fflush
Cba:__ZN17LightProbeContext4InitERK16LightmapSettingsRK14RenderSettings
V$g:__GLOBAL__sub_I_Error_cpp
Hhf:_Alternation_GetWidth_m4218808325
Vba:__ZN9Texture3DD2Ev
zId:_TypeConverterAttribute__ctor_m4061167050
a3f:_Enumerator_MoveNext_m3315718998_gshared
F3b:__ZN15SerializeTraitsIN9SubModule14SubEmitterDataEE8TransferI14SafeBinaryReadEEvRS1_RT_
P9b:__Z18MagnitudeUpdateTplIL27ParticleSystemCurveEvalMode2EEvRK11MinMaxCurveR23ParticleSystemParticlesjjRKN4math7_float4E
_Vg:_GC_reclaim_uninit
POa:__Z34ProcessIndexListIsNodeVisibleStep2RK22SceneCullingParametersPK9SceneNodePK4AABBR9IndexList
Zkb:__ZN10MonoScriptD2Ev
JKd:_WebHeaderCollection_Get_m3391944907
uTb:__Z39Input_CUSTOM_INTERNAL_get_mousePositionP8Vector3f
YBa:__ZN9ShaderLab4Pass16SetupPassOptionsEv
Ueg:_UnityEvent_4__ctor_m3102731553_gshared
zg:_JS_Sound_ReleaseInstance
wia:__ZN13GfxDeviceGLES19DrawBuffersIndirectEP9GfxBufferPK18VertexStreamSourceiP17VertexDeclaration17ShaderChannelMask16GfxPrimitiveType15ComputeBufferIDj
q2b:__ZL25CalculateCurveRangesValueRKN4math7_float2ERK17AnimationCurveTplIfE
kah:_emscripten_glPixelStorei__wrapper
b8e:__Z98RuntimeInvoker_Void_t1841601450_Int32_t2071877448_Int32_t2071877448_SByte_t454417549_RuntimeObjectPFvvEPK10MethodInfoPvPS4_
HUb:__Z21Resources_CUSTOM_LoadP12Il2CppStringP12Il2CppObject
Vl:FUNCTION_TABLE_diddi
yFg:__ZN6il2cpp6icalls8mscorlib6System5Array8FastCopyEP11Il2CppArrayiS5_ii
d5c:_Int16_System_IConvertible_ToSingle_m3277935657_AdjustorThunk
cpf:_AttributeHelperEngine_CheckIsEditorScript_m2980171478
$Fd:_SslStreamBase_get_KeyExchangeAlgorithm_m3712013038
MUe:_InternalRemotingServices__cctor_m3821625125
hee:_StringBuilder_Insert_m3322917127
WAe:_Enumerator_VerifyCurrent_m1702320752_AdjustorThunk
nQc:_Convert_ToDouble_m3520060872
C9b:__Z25EvaluateRandomGradientHDRIL12GradientMode1ELS0_0EEN4math8floatNx4ERK14MinMaxGradientRKNS1_7_float4ES8_
F9g:_emscripten_glUniform1f__wrapper
n5g:dynCall_di
JEd:_SslCipherSuite_ComputeServerRecordMAC_m1876572367
yWb:__Z28RegisterModule_JSONSerializev
sge:_Interlocked_CompareExchange_m3227034792
z$d:_HashAlgorithm_get_Hash_m931854461
CXb:__Z35Transfer_Blittable_FixedBufferFieldI9JSONWriteaEvRK29SerializationCommandArgumentsR31RuntimeSerializationCommandInfo
R0b:__ZN34ColorBySpeedModulePropertyBindings13GetFloatValueERK14ParticleSystemi
XOb:__Z20IsHumanControllingUsv
jDa:__ZNK19RenderEventsContext21ExecuteCommandBuffersEijR17ShaderPassContextR15RenderNodeQueueP19ProfilerInformationi
BH:__ZNK20DynamicHeapAllocatorI17LowLevelAllocatorE10GetPtrSizeEPKv
V_a:__ZN10systeminfo21GetPersistentDataPathEv
nia:__ZN13GfxDeviceGLES17DestroyGpuProgramEPK10GpuProgram
r2c:_GregorianCalendar_GetMonth_m523739832
dmb:__Z44InitializeTransferFunctionScriptingTraitsForI18StreamedBinaryReadILb0EEEvR31TransferFunctionScriptingTraits
NKa:__ZNSt3__218__insertion_sort_3IR23CompareReflectionProbesP31RuntimeReflectionProbeBlendInfoEEvT0_S5_T_
Uqb:__ZN12NativeBufferI27Converter_SimpleNativeClassI8GradientEE15SetupForWritingER9ArrayInfo
BW:__ZN12_GLOBAL__N_113StaticDestroyEPv
_kg:__ZN30dense_hashtable_const_iteratorINSt3__24pairIK10KeyWrapperIPKcEP11Il2CppClassEES5_N6il2cpp5utils11StringUtils12StringHasherIS4_EEN14dense_hash_mapIS5_S8_SE_NS5_14EqualsComparerINSB_13VmStringUtils21CaseSensitiveComparerEEENS0_9allocatorIS9_EEE9SelectKeyESJ_SL_EppEv
C4c:_Guid_ToString_m51661589
ceh:_glUnmapBuffer__wrapper
wTc:_DateTime_System_IConvertible_ToUInt32_m1363211018_AdjustorThunk
p1d:_Binder_get_DefaultBinder_m965620943
X_b:__ZN8JSONRead21TransferSTLStyleArrayINSt3__26vectorI8Gradient13stl_allocatorIS3_L18MemLabelIdentifier1ELi16EEEEEEvRT_17TransferMetaFlags
Hgb:__ZNSt3__218__insertion_sort_3IRNS_6__lessINS_4pairIPKN5Unity4TypeE7Hash128EES8_EEPS8_EEvT0_SC_T_
dec:__Z9UpdateTplIL22MinMaxGradientEvalMode0EL12GradientMode0ELS1_1EEvRK23ParticleSystemParticlesP11ColorRGBA32RK14MinMaxGradientRK23OptimizedMinMaxGradientRK8Vector2f
usb:__ZN10RectOffset8TransferI24GenerateTypeTreeTransferEEvRT_
rCc:_SimpleEnumerator_get_Current_m482975946
EPb:__Z18GetResourceManagerv
p2g:_srand
wmg:__ZN15dense_hashtableI10KeyWrapperIPK17Il2CppGenericInstES4_N6il2cpp8metadata21Il2CppGenericInstHashEN14dense_hash_setIS4_S7_NS4_14EqualsComparerINS6_24Il2CppGenericInstCompareEEENSt3__29allocatorIS4_EEE8IdentityESB_SE_E12resize_deltaEjj
brf:_AudioClip_InvokePCMSetPositionCallback_Internal_m2304858844
K6b:__ZN14MinMaxGradient5ResetE26ParticleSystemGradientMode
hic:__ZN11UnityEngine15PlatformWrapper25GetGraphicsRendererStringEv
urc:_SHA512_Create_m439875055
XF:__ZN11UnityEngine15CloudWebService17WebFileDownloaderINS0_20WebRequestRestClientENS0_23WebRequestRestHeaderMapEED2Ev
ub:invoke_vi
mrc:_SHA384Managed_update_m2629600295
dxa:__ZN15dense_hashtableINSt3__24pairIKN4core12basic_stringIcNS2_20StringStorageDefaultIcEEEEP20ArchiveStorageReaderEES6_20StringHash32FunctionIS6_EN14dense_hash_mapIS6_S9_SC_NS0_8equal_toIS6_EE13stl_allocatorISA_L18MemLabelIdentifier54ELi16EEE9SelectKeyESF_SI_ED2Ev
I0b:__ZN14ParticleSystem17RemoveFromManagerEv
G7b:__ZNK14RotationModule16UpdateProceduralERK19ParticleSystemStateR23ParticleSystemParticlesRKN4math7_float4E
sb:invoke_vd
tb:invoke_vf
wP:__ZNK10GameObject8IsActiveEv
Xhd:_NumberFormatter__cctor_m1641464619
w6b:__ZN21InheritVelocityModule5ResetEv
mZd:_SByte_System_IConvertible_ToUInt32_m4256495110
ara:__ZN18GfxFramebufferGLES23SetupDefaultFramebufferEPP17RenderSurfaceBaseS2_N2gl6HandleILNS3_10ObjectTypeE9EEE
T1g:_mbsinit
jX:__ZN13ScreenManager18RequestOrientationE17ScreenOrientation
kjg:__ZN6il2cpp2vm5Class12SetupMethodsEP11Il2CppClass
lRb:__Z39DeleteLastPathNameComponentWithAnySlashRKN4core12basic_stringIcNS_20StringStorageDefaultIcEEEE
lVe:_MethodCall__ctor_m4106494862
M$e:__Z167RuntimeInvoker_Void_t1841601450_SByte_t454417549_SByte_t454417549_SByte_t454417549_SByte_t454417549_SByte_t454417549_SByte_t454417549_SByte_t454417549_SByte_t454417549PFvvEPK10MethodInfoPvPS4_
Ca:invoke_iiifii
sag:_StackTraceUtility_ExtractStringFromExceptionInternal_m2568950546
Srg:__ZN6il2cpp6icalls8mscorlib6System8MonoType13IsPointerImplEP20Il2CppReflectionType
ZPc:_Convert_ToDecimal_m2284596541
hi:_emscripten_glFramebufferRenderbuffer
v7c:_Int64_GetHashCode_m4047499913
VRa:__ZN9Transform30EnsureTransformHierarchyExistsEv
nA:__ZN11AudioModule26SetDefaultMicrophoneDriverEPv
qoe:_UnitySerializationHolder_GetRealObject_m286267090
PCc:_Attribute_IsDefined_m216577166
QGc:_Char_ToUpper_m109978609
rue:_InternalEnumerator_1_get_Current_m1089848479_gshared
lYc:_Double_System_IConvertible_ToInt64_m3798425616
Ioc:_Rijndael_Create_m113171669
Yf:___cxa_find_matching_catch_4
XPb:__ZN13MonoBehaviour13StopCoroutineEPKc
SUa:__ZNSt3__26vectorINS_4pairIN4core12basic_stringIcNS2_20StringStorageDefaultIcEEEEPK17MessageIdentifierEENS_9allocatorISA_EEE12__move_rangeEPSA_SE_SE_
Qdc:__ZThn32_N22ParticleSystemRendererD1Ev
VGa:__ZN14qsort_internal17MedianOfThreeSwapIP17RODataReplacement19ROSorterReplacementEEvT_S4_S4_T0_
E6b:__ZN15CollisionModule5ResetEv
i5f:_Collection_1_System_Collections_IList_Insert_m3303840316_gshared
big:__ZNK15dense_hashtableINSt3__24pairIK10KeyWrapperIPK22Il2CppGenericParameterEP11Il2CppClassEES6_N6il2cpp5utils11PointerHashIS4_EEN14dense_hash_mapIS6_S9_SE_NS6_14EqualsComparerINS0_8equal_toIS5_EEEENS0_9allocatorISA_EEE9SelectKeyESJ_SL_E3endEv
hRb:__ZN17TransformInternal36OnScaleChangedCalculateTransformTypeE15TransformAccess
eJc:_SynchronizedArrayListWrapper_InsertRange_m709359548
Bza:__ZN17ArchiveFileSystem10ToAbsoluteEPKc
Nud:_BigInteger_op_Modulus_m13450242
PQc:_Convert_ToInt32_m2988544165
jUb:__Z53PlayableHandle_CUSTOM_INTERNAL_CALL_GetPlayableTypeOfR9HPlayable
aGb:__ZL12SetPrefValueRKN4core12basic_stringIcNS_20StringStorageDefaultIcEEEERK9PrefValue
pJ:__ZN19ShaderPropertySheet20ReservePropertyCountEj
gSg:__ZN6il2cpp5utils11StringUtils6PrintfEPKcz
jEg:__ZNSt3__26vectorIN6il2cpp8metadata18GenericArrayMethodENS_9allocatorIS3_EEE7reserveEj
O5:__ZN15NameToObjectMapI6ShaderNSt3__23mapI4PPtrIS0_EN4core12basic_stringIcNS5_20StringStorageDefaultIcEEEENS1_4lessIS4_EENS1_9allocatorINS1_4pairIKS4_S9_EEEEEENS1_8multimapIS9_S4_NSA_IS9_EENSC_INSD_IKS9_S4_EEEEEEE4FindERSK_
hda:__ZN24GenerateTypeTreeTransfer21TransferResourceImageE19ActiveResourceImagePKcR13StreamingInfoPvjiPKN5Unity4TypeE
wwf:_Object_INTERNAL_CALL_Internal_InstantiateSingle_m3932420250
B7b:__ZN13InitialModule18GenerateProceduralERK27ParticleSystemReadOnlyStateR23ParticleSystemParticlesRK10Matrix4x4fRK8Vector3fRK24ParticleSystemEmitReplayRj
$be:_ResourceEnumerator__ctor_m1679839941
N5b:__ZN11ColorModule8TransferI19StreamedBinaryWriteILb0EEEEvRT_
w5d:_ILGenerator_make_room_m373147874
MEe:_Dictionary_2_Init_m1045257495_gshared
zdh:_emscripten_glLinkProgram__wrapper
Xxf:_PlayableHandle_SetDurationInternal_m3359857977
tJe:_Array_InternalArray__IndexOf_TisKeyValuePair_2_t888819835_m2660446234_gshared
tpd:_PKCS1_Verify_v15_m2571212635
e3a:__ZNSt3__212__deque_baseI18ReflectionProbeJobNS_9allocatorIS1_EEED2Ev
IAb:__ZN15dense_hashtableINSt3__24pairIKiN4core17string_with_labelILi1EEEEEi18SInt32HashFunctionN14dense_hash_mapIiS5_S7_NS0_8equal_toIiEE13stl_allocatorIS6_L18MemLabelIdentifier1ELi16EEE9SelectKeyESA_SD_E13set_empty_keyERKS6_
Hzc:_DecoderReplacementFallbackBuffer__ctor_m1305504326
V_b:__Z13TransferFieldI8JSONReadLb0E27Converter_SimpleNativeClassI10RectOffsetEEvRK23StaticTransferFieldInfoR31RuntimeSerializationCommandInfoRT1_
Fxc:_String_IndexOf_m570401060
XYc:_Enum_System_IConvertible_ToDateTime_m2924690746
u$d:_HashAlgorithm_System_IDisposable_Dispose_m2106335965
bLg:__GLOBAL__sub_I_GenericMetadata_cpp
erg:__ZN6il2cpp6icalls8mscorlib6System8MonoType18GetFields_internalEP20Il2CppReflectionTypeiS5_
oOa:__Z24CalculateSpotLightBoundsffRK10Matrix4x4fR15SpotLightBounds
kjd:_TailoringInfo__ctor_m2248501932
mC:__ZN23CloudWebServicesManager23VirtualRedirectTransferER14SafeBinaryRead
DIc:_FixedSizeArrayListWrapper_InsertRange_m2690348965
pac:__ZNK11NoiseModule14CalculateNoiseILi3ELb1ELb0EEEvR23ParticleSystemParticlesRK27ParticleSystemReadOnlyStatejjRKN4math7_float4E
nkb:__Z19ShouldTransferFieldR32SerializationCommandQueueBuilder17ScriptingClassPtriR18TransferField_InfoRK20CoreScriptingClasses
V6d:_FieldInfo_get_IsStatic_m1411173225
_bd:_MemoryStream_Read_m2289595005
zw:__ZN5audio5mixer22UpdateAudioMixerMemoryERKNS0_18AudioMixerConstantERNS0_16AudioMixerMemoryEfPN4FMOD6SystemEf
chc:__ZL21InitializeCachedStripPv
UFg:__ZN6il2cpp6icalls8mscorlib6System9Threading6Thread23GetCachedCurrentCultureEP12Il2CppThread
kEc:_Boolean_CompareTo_m3691698947_AdjustorThunk
WGa:__ZNK6Camera22GetWorldToCameraMatrixEv
RNg:__ZN6il2cpp2vm12GenericClass11IsValueTypeEP18Il2CppGenericClass
Cjb:__ZN13MonoBehaviour7SetNameEPKc
Hxd:_ContentInfo__ctor_m3579805263
Mkg:__ZN15dense_hashtableINSt3__24pairIK10KeyWrapperIPKcEP11Il2CppClassEES5_N6il2cpp5utils11StringUtils12StringHasherIS4_EEN14dense_hash_mapIS5_S8_SE_NS5_14EqualsComparerINSB_13VmStringUtils21CaseSensitiveComparerEEENS0_9allocatorIS9_EEE9SelectKeyESJ_SL_E15set_deleted_keyERKS9_
Gaa:__ZN18AwakeFromLoadQueue5ClearEv
bNa:__ZNSt3__27__sort5IR15ReflProbeSorterPP15ReflectionProbeEEjT0_S6_S6_S6_S6_T_
vT:__ZN8Playable10DisconnectEPS_i
Ire:_InternalEnumerator_1_get_Current_m1526874475_AdjustorThunk
Lj:_glGenTransformFeedbacks
qfa:__ZN13LoadOperationD2Ev
$nd:_KeyPairPersistence__ctor_m1817312194
T1b:__ZN29TriggerModulePropertyBindings13AddPropertiesER10vector_mapIi22ParticleModulePropertyNSt3__24lessIiEENS2_9allocatorINS2_4pairIiS1_EEEEE
MGe:_Array_InternalArray__ICollection_Contains_TisMark_t2724874473_m1640201705_gshared
S8:__Z21PlayerStartFirstSceneb
n3d:_TypeBuilder_get_AssemblyQualifiedName_m2097258567
C5:__ZNSt3__27__sort5IRPFbRKNS_4pairIN9ShaderLab16FastPropertyNameEN18UnityPropertySheet11UnityTexEnvEEES8_EPS6_EEjT0_SD_SD_SD_SD_T_
Kma:__ZNK7ApiGLES18GetExtensionStringEv
sta:__ZN31TransformFeedbackSkinPoseBufferD0Ev
G9g:_emscripten_glVertexAttrib1f__wrapper
NFd:_SslStreamBase_get_MightNeedHandshake_m3432170694
CFe:_DefaultComparer_Equals_m1281232537_gshared
Nn:FUNCTION_TABLE_iiiiiiiii
Rme:_UInt64_System_IConvertible_ToDateTime_m2412118561
j5c:_Int16_System_IConvertible_ToUInt32_m883204517_AdjustorThunk
vae:_MonoProperty_get_PropertyType_m1921201152
OUg:_GC_allochblk
Laa:__Z15UnloadGameScenev
Zdh:_glCheckFramebufferStatus__wrapper
QJc:_CaseInsensitiveHashCodeProvider__ctor_m3775398833
Gxg:__ZNK15dense_hashtableINSt3__24pairIK10KeyWrapperIPK10Il2CppTypeEjEES6_N6il2cpp8metadata14Il2CppTypeHashEN14dense_hash_mapIS6_jSB_NS6_14EqualsComparerINSA_26Il2CppTypeEqualityComparerEEENS0_9allocatorIS8_EEE9SelectKeyESF_SH_E13find_positionERS7_
mrb:__Z18Transfer_BlittableI24GenerateTypeTreeTransferLb0E8Vector2fEvRK29SerializationCommandArgumentsR31RuntimeSerializationCommandInfo
drb:__Z18Transfer_BlittableI24GenerateTypeTreeTransferLb1EhEvRK29SerializationCommandArgumentsR31RuntimeSerializationCommandInfo
C5g:dynCall_iiifii
vS:__ZnwjRKSt9nothrow_t
Qib:__ZNSt3__26vectorIi13stl_allocatorIiL18MemLabelIdentifier12ELi16EEE8__appendEj
eMd:_X500DistinguishedName_Decode_m3070515374
V3:__ZN14SafeBinaryRead19TransferSTLStyleMapINSt3__23mapI39DeprecatedFastPropertyNameSerializationN18UnityPropertySheet11UnityTexEnvENS1_4lessIS3_EENS1_9allocatorINS1_4pairIKS3_S5_EEEEEEEEvRT_17TransferMetaFlags
ZTb:__Z45Register_UnityEngine_MonoBehaviour_IsInvokingv
QJd:_IPv6Address_set_ScopeId_m1442934355
rXd:_ObjectManager_RaiseOnDeserializedEvent_m512850179
vUb:__Z81Register_UnityEngine_Playables_PlayableHandle_INTERNAL_CALL_SetInputCountInternalv
bQb:__Z35UnregisterSerializationCacheBuilderPFv17ScriptingClassPtrR23CachedSerializationDataRbE
t2:__Z30GetBuiltinVectorParamArraySize24BuiltinShaderVectorParam
s8b:__ZN13InitialModule18SetInheritedParamsERK11ColorRGBA32RK8Vector3fS5_S5_
Xid:_CodePointIndexer__ctor_m797342079
ZPa:__ZN21RendererUpdateManager11AddRendererER8Renderer
pHb:__Z13RegisterClassI15ResourceManagerEvv
Hmb:__Z35Transfer_Blittable_FixedBufferFieldI14SafeBinaryReadsEvRK29SerializationCommandArgumentsR31RuntimeSerializationCommandInfo
rcb:__ZN14SafeBinaryRead21TransferSTLStyleArrayI13dynamic_arrayIfLj4EEEEvRT_17TransferMetaFlags
hSg:__ZN6il2cpp5utils11StringUtils11Utf16ToUtf8EPKDs
yic:__ZN11UnityEngine15PlatformWrapper20IsRootedOrJailbrokenEv
IBa:__ZZ23InitPlayerLoopCallbacksvEN52PreLateUpdateScriptRunBehaviourLateUpdateRegistrator7ForwardEv
GMd:_X509Certificate2_GetNameInfo_m402390219
jOa:__Z33IntersectAABBPlaneBoundsOptimizedRK4AABBPKN4math7_float4Ei
wCc:_Swapper_BeginInvoke_m2652511022
Aia:__ZN9GfxDevice19EndGeometryJobFrameEv
Zqb:__ZN27Converter_SimpleNativeClassI17AnimationCurveTplIfEE17ScriptingToNativeER18ScriptingObjectPtrPS1_
z_g:__ZN6il2cpp8metadata24Il2CppGenericInstCompare7CompareERK10KeyWrapperIPK17Il2CppGenericInstES8_
ulg:__ZNK15dense_hashtableINSt3__24pairIK10KeyWrapperIPK19Il2CppGenericMethodEPK26Il2CppGenericMethodIndicesEES6_N6il2cpp8metadata23Il2CppGenericMethodHashEN14dense_hash_mapIS6_SA_SE_NS6_14EqualsComparerINSD_26Il2CppGenericMethodCompareEEENS0_9allocatorISB_EEE9SelectKeyESI_SK_E5beginEv
$af:__Z70RuntimeInvoker_Void_t1841601450_Playable_t1896841784_Int32_t2071877448PFvvEPK10MethodInfoPvPS4_
Z2b:__ZN21InheritVelocityModule8TransferI14SafeBinaryReadEEvRT_
rIb:__ZNK17AnimationCurveTplIfE8EvaluateEfPNS0_5CacheE
MAa:__Z31ManagerContextInitializeClassesv
RDf:__ZL53SortedList_t3004938869_CustomAttributesCacheGeneratorP21CustomAttributesCache
ZHa:__Z20LightAttenuateApproxRKfS0_
ZM:__ZN9Scripting30SetCachedPtrOnScriptingWrapperE18ScriptingObjectPtrP6Object
$tb:__Z18Transfer_BlittableI19StreamedBinaryWriteILb0EELb0EdEvRK29SerializationCommandArgumentsR31RuntimeSerializationCommandInfo
Zyc:_ASCIIEncoding_GetBytes_m3649277167
JTe:_Context_GetProperty_m1664740450
xRd:_IntervalCollection_Normalize_m538796191
Doe:_Version__ctor_m2972638031
omd:_Kernel_MultiplyByDword_m155008287
Hbb:__ZN4MeshD0Ev
O2e:__Z121RuntimeInvoker_Void_t1841601450_Int64_t909078037_RuntimeObject_RuntimeObject_Int64_t909078037_RuntimeObject_RuntimeObjectPFvvEPK10MethodInfoPvPS4_
cnc:__ZL42RequestRecreateEyeTexturesBeforeNextUpdatev
J1:__ZNK6Camera20IsCurrentlyRenderingEv
uGd:_SslStreamBase_Read_m1036897444
JXb:__Z18Transfer_BlittableI9JSONWriteLb0EdEvRK29SerializationCommandArgumentsR31RuntimeSerializationCommandInfo
c1a:__ZN6Camera8TransferI19StreamedBinaryWriteILb0EEEEvRT_
W6f:_ReadOnlyCollection_1_System_Collections_IList_Insert_m3679749778_gshared
N0g:_wctomb
nSb:__Z27Camera_CUSTOM_GetAllCamerasP11Il2CppArray
i5b:__ZN11ForceModule8TransferI18StreamedBinaryReadILb0EEEEvRT_
KNc:_Convert_InternalFromBase64String_m3682756716
tc:___cxa_rethrow
hZb:__Z18Transfer_BlittableI8JSONReadLb1EhEvRK29SerializationCommandArgumentsR31RuntimeSerializationCommandInfo
M9g:_glBindRenderbuffer__wrapper
ohf:_Regex_System_Runtime_Serialization_ISerializable_GetObjectData_m4035555909
Eie:_TimeSpan_Add_m3228293154
PRa:__ZN13MonoBehaviour8SetClassE17ScriptingClassPtr18ScriptingObjectPtr
mxd:_RC4__cctor_m523650203
pUe:_CrossContextDelegate_Invoke_m2908136830
rX:__ZN20LocalFileSystemPosix4ReadER13FileEntryDatayyPvPy
ALa:__ZNSt3__211__sift_downIRN23ForwardShaderRenderLoop18RenderObjectSorterILb0EEEP21ForwardRenderPassDataEEvT0_S7_T_NS_15iterator_traitsIS7_E15difference_typeES7_
bfd:_UnmanagedMemoryStream_get_Position_m4093669769
i2e:__Z90RuntimeInvoker_Void_t1841601450_IntPtr_t_RuntimeObject_Int32_t2071877448_Int32_t2071877448PFvvEPK10MethodInfoPvPS4_
Sjb:__ZN13MonoBehaviour5DoGUIENS_13GUILayoutTypeEii
IYa:__ZNK12TLSAllocatorI14StackAllocatorE8ContainsEPKv
Z2e:__Z82RuntimeInvoker_Boolean_t3825574718_SByte_t454417549_RuntimeObject_SByte_t454417549PFvvEPK10MethodInfoPvPS4_
hFb:__ZN15SerializeTraitsINSt3__23mapI4PPtrI6ShaderEN4core12basic_stringIcNS5_20StringStorageDefaultIcEEEENS0_4lessIS4_EENS0_9allocatorINS0_4pairIKS4_S9_EEEEEEE8TransferI24GenerateTypeTreeTransferEEvRSH_RT_
J_d:_DESTransform__cctor_m1179482644
Vbb:__ZN14BlendShapeData8TransferI14SafeBinaryReadEEvRT_
gZc:_Enum_Format_m2294492821
b5a:__ZN7Texture25ReloadFromStorageIfNeededEPvb
Zze:_Enumerator_VerifyState_m1165543189_AdjustorThunk
$$d:_OverflowException__ctor_m2564269836
fBe:_ShimEnumerator_get_Entry_m2332479818_gshared
cUc:_DateTime_CheckDateTimeKind_m329345155_AdjustorThunk
HFg:__ZN6il2cpp6icalls8mscorlib6SystemL15ThrowNoWideningEv
AIb:__ZNK23TransformChangeDispatch24GetChangeMaskForInterestENS_12InterestTypeE
d5g:dynCall_viiiiiiiiiii
lYa:__ZL10KeyHandleriPK23EmscriptenKeyboardEventPv
s4:__ZNSt3__26__treeINS_12__value_typeI39DeprecatedFastPropertyNameSerializationfEENS_19__map_value_compareIS2_S3_NS_4lessIS2_EELb1EEENS_9allocatorIS3_EEE7destroyEPNS_11__tree_nodeIS3_PvEE
_of:_AsyncOperation_get_allowSceneActivation_m2825451182
dje:_TimeSpan_op_Addition_m3421801803
nqb:__ZL26Transfer_SimpleNativeClassI17RemapPPtrTransfer10RectOffsetLb0EEvRK29SerializationCommandArgumentsR31RuntimeSerializationCommandInfo
fMb:__ZN16GraphicsSettings12CleanupClassEv
eTc:_DateTime_System_IConvertible_ToInt32_m2789391054_AdjustorThunk
Ymd:_ASN1Convert_FromInt32_m1541043489
hze:_Enumerator_VerifyState_m1547102902_gshared
rOc:_Convert_ToByte_m1008221737
nwd:_MD2Managed_MD2Transform_m3825201358
NBb:__ZNSt3__26vectorIN9ShaderLab20SerializedSubProgram13BufferBindingENS_9allocatorIS3_EEEC2ERKS6_
Wlb:__ZNSt3__26vectorI4PPtrI10MonoScriptE13stl_allocatorIS3_L18MemLabelIdentifier76ELi16EEE8__appendEj
v2:__ZNK9ShaderLab20ShaderBlendStateDesc15ToGfxBlendStateEPK19ShaderPropertySheetS3_R13GfxBlendState
Hmf:_X509Certificate_get_RawData_m1262574599
TEb:__ZN9ShaderLab9IntShaderC2Ev
Zrg:__ZN6il2cpp6icalls8mscorlib6SystemL9IsPrivateEPK9EventInfo
VYg:__ZN6il2cpp6icalls8mscorlib6System10Reflection4Emit11TypeBuilder20setup_internal_classEP27Il2CppReflectionTypeBuilderS7_
oqe:_ArrayReadOnlyList_1_IndexOf_m1809425308_gshared
qB:__Z58AudioPlayableOutput_CUSTOM_INTERNAL_CALL_InternalSetTargetR15HPlayableOutputP12Il2CppObject
Mtg:_il2cpp_gc_disable
T3b:__ZN27ParticleSystemReadOnlyState8TransferI24GenerateTypeTreeTransferEEvRT_
qNd:_X509Chain_GetSubjectKeyIdentifier_m4232927227
CLc:_Hashtable_Clone_m165405752
Ksf:_Component_BroadcastMessage_m444672650
Thc:__ZN11UnityEngine15PlatformWrapper19GetPhysicalMemoryMBEv
qY:__Z15CreateDirectoryRKN4core12basic_stringIcNS_20StringStorageDefaultIcEEEE
Pba:__Z21CalculateGlobalMatrix23TransformAccessReadOnly
DCf:__ZL70InternalsVisibleToAttribute_t1037732567_CustomAttributesCacheGeneratorP21CustomAttributesCache
rgb:__ZNK13BuildSettings22GetTypeVirtualInternalEv
G9c:_MonoIO_GetCurrentDirectory_m1509324201
Qee:_UTF32Encoding_GetHashCode_m4205784236
BGg:__ZN6il2cpp6icalls8mscorlib6System10Reflection8Assembly27GetManifestResourceInternalEP24Il2CppReflectionAssemblyP12Il2CppStringPiPP22Il2CppReflectionModule
nHb:__Z13RegisterClassI14RenderSettingsEvv
aje:_TimeSpan_Subtract_m3597791685_AdjustorThunk
Lwb:__Z29Transfer_Blittable_ArrayFieldI18StreamedBinaryReadILb1EE5RectTIfEEvRT_R9ArrayInfoRK23StaticTransferFieldInfo
ptf:_Logger__ctor_m3834134587
PNg:__ZN6il2cpp2vm12GenericClass8GetClassEP18Il2CppGenericClass
Zia:__ZNK9GfxDevice27GetActiveRenderSurfaceWidthEv
cmf:_PKCS12_get_Keys_m1312614820
jic:__ZN11UnityEngine15PlatformWrapper28GetCleanGraphicsFixedVersionEv
w:tempBigIntP
Qvg:__ZN6il2cpp2vm4Type7GetTypeEPK10Il2CppType
i9f:_Rect_Contains_m1334685291_AdjustorThunk
kJb:__ZN16SpriteRenderData28PrepareRenderingDataIfNeededEv
BCc:_AssemblyLoadEventHandler_Invoke_m108373765
J_c:_CCGregorianCalendar_dmy_from_fixed_m2992247462
q1b:__ZN14ParticleSystem18SetSimulationSpeedEf
rgg:__ZL24UnresolvedVirtualCall_76P12Il2CppObjectPK10MethodInfo
N7:__ZN6prcoreL17RemapGenericFloatI18TexFormatRGBAFloat17TexFormatRGBAHalfEEvPKNS_9InnerInfoE
GCa:__Z16FindCameraStacksRKNSt3__24listI4PPtrI6CameraENS_9allocatorIS3_EEEERNS_6vectorI11CameraStackNS4_ISA_EEEE
ubg:_WebRequestUtils__cctor_m893658947
zdc:__Z43ParticleSystemRenderer_RenderMultipleMeshesIL21SpriteMaskInteraction0EEvRK15RenderNodeQueueRK18RenderMultipleData17ShaderChannelMask
U6a:__ZN10GISettings8TransferI14SafeBinaryReadEEvRT_
Cm:FUNCTION_TABLE_vifff
YTa:__ZN19CustomRenderTexture12ClearGPUDataEv
bef:__Z86RuntimeInvoker_Int32_t2071877448_DateTimeOffset_t1362988906_DateTimeOffset_t1362988906PFvvEPK10MethodInfoPvPS4_
P$:__ZN13RenderTexture13ApplySettingsEv
l7g:_glVertexAttrib4f__wrapper
qe:_JS_Sound_SetListenerPosition
um:FUNCTION_TABLE_fiffi
w6d:_ModuleBuilderTokenGenerator_GetToken_m3427457873
bJe:_Array_FindIndex_TisRuntimeObject_m4149904176_gshared
K0f:_List_1_System_Collections_IList_Contains_m149594880_gshared
coe:_UnauthorizedAccessException__ctor_m3480402128
lmd:_BigInteger_op_Modulus_m3788401748
HT:__ZZN15DirectorManager15InitializeClassEvEN45FixedUpdateDirectorFixedSampleTimeRegistrator7ForwardEv
RUe:_ArgInfo_GetInOutArgs_m3184132151
T9:__ZNK8Material16MarkDependenciesER27GarbageCollectorThreadState
MXb:__ZL17Transfer_GUIStyleI9JSONWriteLb0EEvRK29SerializationCommandArgumentsR31RuntimeSerializationCommandInfo
mGa:__Z28GetHaloVertexPositionsStereoP8Vector3fRKS_S2_f
C8:__ZN6prcoreL27StretchGenericFloatBilinearI15TexFormatRGHalfEEvPKNS_9InnerInfoE
G$f:_Enumerator_MoveNext_m598197344_AdjustorThunk
xtf:_DisplaysUpdatedDelegate_Invoke_m3646339243
ryc:_String_JoinUnchecked_m1880555587
M2:__ZNK9ShaderLab7Program21GetMatchingSubProgramEPK6ShaderPKNS_4PassERK16ShaderKeywordSetjPS7_R19ShaderSnippetResult
VLe:_Array_InternalArray__Insert_TisKeyValuePair_2_t1174980068_m2464431954_gshared
qEe:_Dictionary_2_U3CCopyToU3Em__0_m1479035402_gshared
xJc:_BitArray_set_Item_m3801461194
pig:__ZN15dense_hashtableINSt3__24pairIK10KeyWrapperIPK22Il2CppGenericParameterEP11Il2CppClassEES6_N6il2cpp5utils11PointerHashIS4_EEN14dense_hash_mapIS6_S9_SE_NS6_14EqualsComparerINS0_8equal_toIS5_EEEENS0_9allocatorISA_EEE9SelectKeyESJ_SL_E3endEv
ayc:_String_Remove_m3580114465
xDb:__ZN9ShaderLab22SerializedBindChannels8TransferI19StreamedBinaryWriteILb0EEEEvRT_
BKd:_WebHeaderCollection_AddWithoutValidate_m1479880592
Fne:_UIntPtr__ctor_m2737768530
vVb:__Z50Register_UnityEngine_Object_FindSceneObjectsOfTypev
U3:__ZNSt3__26__treeINS_12__value_typeIN4core12basic_stringIcNS2_20StringStorageDefaultIcEEEES6_EENS_19__map_value_compareIS6_S7_NS_4lessIS6_EELb1EEE13stl_allocatorIS7_L18MemLabelIdentifier1ELi16EEE7destroyEPNS_11__tree_nodeIS7_PvEE
E7f:_Nullable_1__ctor_m796575255_gshared
mTg:__ZN6il2cpp2vm8Profiler7GCEventE13Il2CppGCEvent
oTc:_DateTimeUtils_ToString_m3878360633
GFg:__ZN6il2cpp6icalls8mscorlib6SystemL16ThrowInvalidCastEPK11Il2CppClassS5_
Ona:__Z13IsDepthFormat14GraphicsFormat
ohb:__ZN12AspectRatios8TransferI24GenerateTypeTreeTransferEEvRT_
Ggc:__Z12FormatBufferPciPKcz
ff:_emscripten_glUniform1fv
P5d:_MethodBuilder_Invoke_m1874904900
Big:__ZN6il2cpp2vm5Class13GetArrayClassEP11Il2CppClassj
lu:__ZN4FMOD7Channel7setModeEj
aFa:__ZN15RenderNodeQueueC2E18MemLabelIdentifier
SGd:_TlsStream_SetLength_m1460039587
xa:invoke_difi
iah:_glDeleteSamplers__wrapper
YR:__ZL50StaticRegisterSceneLoadedCallback_LightmapSettingsPv
Q1e:__Z119RuntimeInvoker_Void_t1841601450_RuntimeObject_RuntimeObject_RuntimeObject_RuntimeObject_Int32_t2071877448_RuntimeObjectPFvvEPK10MethodInfoPvPS4_
faa:__ZNSt3__26__treeIiNS_4lessIiEE13stl_allocatorIiL18MemLabelIdentifier1ELi16EEE7destroyEPNS_11__tree_nodeIiPvEE
vna:__ZN21GLESGpuProgramApplier11ApplyVectorERKN20GpuProgramParameters14ValueParameterEPK8Vector4ft
NNa:__Z17PrepareSceneNodesP11CullResults
kjf:_Parser_IsIgnoreCase_m4155598997
bGe:_EqualityComparer_1_System_Collections_IEqualityComparer_Equals_m3376587337_gshared
JDa:__ZN22RenderingCommandBuffer13GetAndCheckRTE24BuiltinRenderTextureTypeRKN9ShaderLab16FastPropertyNameEPKcPP13RenderTexture
pUa:__ZN6Camera34UpdatePreviousViewProjectionMatrixEv
P2:__ZN9ShaderLab11ShaderState25RemoveUnsupportedProgramsEPK6Shader
kEb:__ZL23AddGpuProgramParametersR20GpuProgramParametersRKNSt3__26vectorIN9ShaderLab20SerializedSubProgram15MatrixParameterENS1_9allocatorIS5_EEEERKNS2_INS4_15VectorParameterENS6_ISB_EEEEiP16PropertyNamesSet
nVb:__Z44Register_UnityEngine_Object_DestroyImmediatev
RSb:__Z47Register_UnityEngine_Component_BroadcastMessagev
Yp:__ZN18StreamedBinaryReadILb0EE21TransferSTLStyleArrayI13dynamic_arrayI4PPtrI6ObjectELj4EEEEvRT_17TransferMetaFlags
YHf:__ZL62_ConstructorBuilder_t1236878896_CustomAttributesCacheGeneratorP21CustomAttributesCache
Iff:_PatternCompiler_EmitIfDefined_m3599839898
a7c:_Int64_System_IConvertible_ToInt16_m2022633688_AdjustorThunk
U$d:_OrdinalComparer__ctor_m2952942058
L$g:__ZN6il2cpp8metadata25Il2CppGenericClassCompare7CompareEPK18Il2CppGenericClassS4_
Qs:__ZN13AudioListener23VirtualRedirectTransferER24GenerateTypeTreeTransfer
Sce:_Encoding_get_Unicode_m1382741113
bTe:_LifetimeServices_set_SponsorshipTimeout_m1403222216
VGc:_Char_ToString_m1401375624_AdjustorThunk
iKe:_Array_InternalArray__ICollection_Add_TisTableRange_t2011406615_m147373358_gshared
xPc:_Convert_ToDateTime_m1251728572
kKe:_Array_InternalArray__ICollection_Add_TisBoolean_t3825574718_m1009318882_gshared
LMc:_SortedList_PutImpl_m890050679
TWd:_ObjectReader_ReadObjectContent_m3949770110
Gsf:_Component_SendMessage_m4199581575
akg:__ZN6il2cpp2vm5Class40GetInterfaceInvokeDataFromVTableSlowPathEPK12Il2CppObjectPK11Il2CppClassj
C2a:__ZN20TierGraphicsSettings8TransferI18StreamedBinaryReadILb0EEEEvRT_
QEg:__GLOBAL__sub_I_Thread_cpp
c4:__ZN14SafeBinaryRead8TransferINSt3__24pairIN9ShaderLab16FastPropertyNameE10ColorRGBAfEEEEvRT_PKc17TransferMetaFlags
xdg:__ZL9rshift128PyS_
NWd:_ObjectReader_RecordFixup_m1893348030
O3d:_EnumBuilder_GetElementType_m1228393631
ECg:__ZN14dense_hash_mapI10KeyWrapperINSt3__24pairIPK12PropertyInfoP11Il2CppClassEEEj17ReflectionMapHashIS8_ENS9_14EqualsComparerINS1_8equal_toIS8_EEEENS1_9allocatorINS2_IKS9_jEEEEE13set_empty_keyERSH_
wj:_glRenderbufferStorage
cKg:__ZNK15dense_hashtableINSt3__24pairIK10KeyWrapperINS1_IPKcS4_EEEiEES6_24NamespaceAndNamePairHashN14dense_hash_mapIS6_iS9_NS6_14EqualsComparerI26NamespaceAndNamePairEqualsEENS0_9allocatorIS8_EEE9SelectKeyESD_SF_E13find_positionERS7_
nic:__ZN11UnityEngine15PlatformWrapper28GetTextureFormatSupportFlagsEv
Bxc:_String_CompareOrdinalCaseInsensitiveUnchecked_m2002640463
qEc:_Boolean_GetHashCode_m1894638460
Xbb:__ZN14SafeBinaryRead21TransferSTLStyleArrayI13dynamic_arrayI12BoneWeights4Lj16EEEEvRT_17TransferMetaFlags
efe:_UTF7Encoding_InternalGetChars_m4157428055
Iba:__Z33InterpolateLightProbeCoefficientsRK17LightProbeContextRK29LightProbeSamplingCoordinatesR20SphericalHarmonicsL2
iBa:__ZZ23InitPlayerLoopCallbacksvEN35PreUpdateSendMouseEventsRegistrator7ForwardEv
xod:_SmallXmlParser_HandleBufferedContent_m3397096753
ug:_glDisable
nb:invoke_vffff
CSg:__ZN6il2cpp5utils11StringUtils15StringDuplicateEPKDsj
qPd:_BaseMachine_Scan_m122450399
FHc:_ArrayList_CopyTo_m2353632788
RR:__ZNSt3__26vectorINS_4pairIyP17VertexDeclarationEENS_9allocatorIS4_EEE6assignIPS4_EENS_9enable_ifIXaasr21__is_forward_iteratorIT_EE5valuesr16is_constructibleIS4_NS_15iterator_traitsISB_E9referenceEEE5valueEvE4typeESB_SB_
n2f:_List_1_Add_m943275925_gshared
vCa:__ZNK8Material12GetPassCountEv
ZMc:_Enumerator__cctor_m3784927209
G4g:_bitshift64Ashr
Zoa:__ZN4crnd12crn_unpacker22decode_alpha_endpointsEv
NOa:__Z23CullDynamicObjectsUmbraPK4AABBPKN5Umbra15OcclusionBufferER9IndexList
m9b:__ZN11ForceModule6UpdateERK27ParticleSystemReadOnlyStateRK19ParticleSystemStateR23ParticleSystemParticlesjjRKN4math7_float4E
clf:_GeneralNames_ToString_m800435094
PCd:_TlsServerCertificate_validateCertificates_m1988583701
Dle:_UInt16_Parse_m3560204090
w$b:__ZN8JSONRead21TransferSTLStyleArrayI13dynamic_arrayIsLj2EEEEvRT_18MemLabelIdentifier17TransferMetaFlags
Zt:__ZN4FMOD7Channel11setPositionEjj
lh:_glBindSampler
ph:_glGetVertexAttribiv
mKe:_Array_InternalArray__ICollection_Add_TisChar_t3454481338_m422084244_gshared
E_b:__ZN8JSONRead8TransferIbEEvRT_PKc17TransferMetaFlagsb
Yuf:_DefaultValueAttribute_Equals_m3216982933
ALd:_X509KeyUsageExtension_Decode_m3292847033
Brb:__Z18Transfer_BlittableI24GenerateTypeTreeTransferLb1EtEvRK29SerializationCommandArgumentsR31RuntimeSerializationCommandInfo
y8d:_Module_filter_by_type_name_ignore_case_m3574895736
pJf:__ZL57ProxyAttribute_t4031752430_CustomAttributesCacheGeneratorP21CustomAttributesCache
E6a:__ZN26CustomRenderTextureManager19PreAllocateMaterialEP19CustomRenderTexture
S1f:_List_1_Remove_m600476045_gshared
tWd:_ObjectReader_ReadObject_m397855326
wUg:_GC_promote_black_lists
p$b:__Z29Transfer_Blittable_ArrayFieldI8JSONRead8Vector4fEvRT_R9ArrayInfoRK23StaticTransferFieldInfo
nn:FUNCTION_TABLE_vf
mn:FUNCTION_TABLE_vd
lke:_Type_GetMethod_m1930231379
on:FUNCTION_TABLE_vi
xic:__ZN11UnityEngine15PlatformWrapper17GameEngineVersionEv
Njd:_SimpleCollator_GetContraction_m1391584430
tEc:_CultureInfo_get_InvariantCulture_m398972276
VDc:_Boolean_System_IConvertible_ToInt64_m4142756949_AdjustorThunk
bwd:_HMAC_initializePad_m3828610671
iqc:_RSAParameters_t1462703416_marshal_pinvoke_cleanup
psg:__ZN6il2cpp2vm7Runtime9SetConfigEPKc
Yof:_AsyncOperation_get_priority_m966065939
oa:invoke_iiifiii
MGg:__ZN6il2cpp2vm9Exception11FromNameMsgEPK11Il2CppImagePKcS6_S6_
_je:_Type_internal_from_name_m1506974323
BJ:__Z14GetTimeManagerv
c$a:__Z12GUIDToStringRK9UnityGUIDPc
iK:__ZN12_GLOBAL__N_115ParamNameLookup15AddBuiltinNamesEPPKcjb
zSg:__ZN4utf88internal20is_overlong_sequenceIiEEbjT_
ii:_glReadBuffer
jbc:__Z11StartCircleILN11ShapeModule14MultiModeValueE1EEvRS0_R23ParticleSystemParticlesRK19ParticleSystemStateRK27ParticleSystemEmissionStateRKN4math8float3x3ERKNSB_8float4x4Ejbj
TIc:_SynchronizedArrayListWrapper_get_Count_m4104930530
CKa:__Z30SetupBakedOcclusionForGeometrybRK26SharedLightmapSettingsDataRK15LightmapIndicesR17ShaderPassContext
Rcd:_Stream_Close_m1499612649
$Ja:__Z14SetupLightmapsRK8Vector4fS1_R17ShaderPassContext
cBg:__ZN14dense_hash_mapI10KeyWrapperIPK14Il2CppAssemblyEPK22Il2CppMonoAssemblyNameN6il2cpp5utils11PointerHashIS2_EENS4_14EqualsComparerINSt3__28equal_toIS3_EEEENSD_9allocatorINSD_4pairIKS4_S7_EEEEE13set_empty_keyERSJ_
aRd:_Interval_get_Empty_m3170923997
pCa:__ZL20InitializeGUIShadersv
nIb:__Z20DestroyObjectDelayedP6Objectf
vH:__ZN20DynamicHeapAllocatorI17LowLevelAllocatorED0Ev
Vkd:_PreviousInfo__ctor_m1442166472_AdjustorThunk
xHa:__ZN9DepthPassD2Ev
Zs:__ZN11AudioFilter6GetDSPEv
EL:__ZN19RuntimeSceneManager14CanUnloadSceneEP10UnityScene
V4e:__Z50RuntimeInvoker_Single_t2076509932_Int64_t909078037PFvvEPK10MethodInfoPvPS4_
xng:__ZN14dense_hash_mapI10KeyWrapperIN6il2cpp5utils13dynamic_arrayIPK10Il2CppTypeLj4EEEEPFvvENS1_8metadata19Il2CppSignatureHashENS8_14EqualsComparerINSB_22Il2CppSignatureCompareEEENSt3__29allocatorINSG_4pairIKS8_SA_EEEEEC2EjRKSC_RKSF_
ls:__ZN24AudioScriptBufferManagerC2Ev
F_e:__Z95RuntimeInvoker_Void_t1841601450_RuntimeObject_Int32_t2071877448_Int32_t2071877448_RuntimeObjectPFvvEPK10MethodInfoPvPS4_
qie:_TimeSpan_get_Hours_m3804628138_AdjustorThunk
MWb:__Z18Transfer_BlittableI9JSONWriteLb0EfEvRK29SerializationCommandArgumentsR31RuntimeSerializationCommandInfo
b0:__Z21GetAsyncUploadManagerv
$i:_emscripten_glDetachShader
Uid:_SafeHandleZeroOrMinusOneIsInvalid_get_IsInvalid_m2033528032
koa:__ZN17GenericDynamicVBO20ReleaseChunkInternalERK21DynamicVBOChunkHandlejj
Z6a:__ZN14SafeBinaryRead21TransferSTLStyleArrayI13dynamic_arrayI7Hash128Lj8EEEEvRT_17TransferMetaFlags
Tid:_SafeHandleZeroOrMinusOneIsInvalid__ctor_m3340306667
j1g:_fmodl
MTd:_SerializationInfo_AddValue_m902275108
w1g:_fmodf
gvb:__Z18Transfer_BlittableI18StreamedBinaryReadILb1EELb1E4AABBEvRK29SerializationCommandArgumentsR31RuntimeSerializationCommandInfo
j1:__ZN12CachedWriter11Align4WriteEv
DIa:__Z20DoDeferredRenderLoopR17RenderLoopContextR13dynamic_arrayI16RenderObjectDataLj4EES4_RK11CullResultsRP13RenderTextureSA_Pb
wfa:__ZN19RuntimeSceneManager11CreateSceneEv
BKa:__Z27SetupBakedOcclusionForLightbRK15SharedLightDataR17ShaderPassContext
_Zg:__ZN6il2cpp2os5Mutex6UnlockEv
n6b:__ZN27ParticleSystemReadOnlyState5ResetEv
qDe:_Dictionary_2_CopyToCheck_m1638253305_gshared
hDa:__Z18RenderImageFiltersR10RenderLoopb
dI:__Z19free_alloc_internalPv18MemLabelIdentifier
sSa:__ZN10GameObjectD2Ev
O6f:_ReadOnlyCollection_1_System_Collections_Generic_IListU3CTU3E_set_Item_m25653560_gshared
G8d:_MonoCMethod_Invoke_m931478014
b7b:__ZN15CollisionModule9ResetSeedERK27ParticleSystemReadOnlyState
tuf:_UnityEventBase_RebuildPersistentCallsIfNeeded_m1583202007
byd:_CertificateSelectionCallback_Invoke_m2902629105
tR:__ZN10InputEventD2Ev
c2c:_DateTimeFormatInfo_GetAllDateTimePatternsInternal_m1587126173
Gje:_Type_get_IsInterface_m3583817465
Amc:__ZN22UnityWebRequestManagerD2Ev
Tpc:_RSA_ToXmlString_m4145056574
wYc:_Double_System_IConvertible_ToUInt64_m1318285078_AdjustorThunk
U0g:_isalpha
Ypf:_AudioClipPlayable_SetStartDelayInternal_m1268437955
qTc:_DateTimeUtils_ZeroPad_m86470512
lqg:__ZN6il2cpp2vmL17IsSocketAsyncCallEP14Il2CppDelegate
Arf:_Camera_get_clearFlags_m1743144302
rvf:_Logger_IsLogTypeAllowed_m1750132386
z8b:__ZNK13TriggerModule6UpdateERK24ParticleSystemUpdateDataR23ParticleSystemParticlesjRKf
XRg:__ZN6il2cpp2vm6String6NewLenEPKcj
P0a:__ZN6Camera23VirtualRedirectTransferER19StreamedBinaryWriteILb0EE
ok:_time
Zvd:_CryptoConvert_ToHex_m2874017189
L9b:__Z9UpdateTplIL27ParticleSystemCurveEvalMode4EEvRK11MinMaxCurveR23ParticleSystemParticlesPfRKN4math7_float4EjjRK8Vector2f
cM:__ZN15dense_hashtableINSt3__24pairIKiP6ObjectEEi21InstanceIDHashFunctorN14dense_hash_mapIiS4_S6_NS0_8equal_toIiEE13stl_allocatorIS5_L18MemLabelIdentifier65ELi16EEE9SelectKeyES9_SC_E12resize_deltaEjj
NSa:__ZN10GameObject8TransferI24GenerateTypeTreeTransferEEvRT_
Wwg:__ZN15dense_hashtableINSt3__24pairIK10KeyWrapperINS1_IPK9FieldInfoP11Il2CppClassEEEjEES9_17ReflectionMapHashIS8_EN14dense_hash_mapIS9_jSD_NS9_14EqualsComparerINS0_8equal_toIS8_EEEENS0_9allocatorISB_EEE9SelectKeyESI_SK_E4findERSA_
vdh:_glDeleteSync__wrapper
WPc:_Decimal_op_Implicit_m623319612
ohe:_ThreadAbortException__ctor_m1623816114
BJb:__ZN13ProduceHelperI30RuntimeInitializeOnLoadManagerLb0EE7ProduceE18MemLabelIdentifier18ObjectCreationMode
RQa:__ZN13RenderTexture19SetAutoGenerateMipsEb
g6:__Z20GetTextureFormatInfo13TextureFormat
c1e:__Z119RuntimeInvoker_RuntimeObject_RuntimeObject_RuntimeObject_Int32_t2071877448_Int32_t2071877448_MonoIOErrorU26_t1029615899PFvvEPK10MethodInfoPvPS4_
NHe:_PlayableHandle_IsPlayableOfType_TisRuntimeObject_m4111068959_gshared
Uig:__ZN6il2cpp2vm5Class4InitEP11Il2CppClass
P4f:_Collection_1_InsertItem_m1391780791_gshared
pYg:__ZN6il2cpp5utils10MemoryPool6MallocEj
Gr:__ZN11SoundHandle8InstanceD2Ev
GU:__ZN31CanvasBatchIntermediateRenderer13StaticDestroyEPv
fof:_X509Store_BuildCrlsCollection_m52567568
ndc:__Z35ParticleSystemRenderer_RenderMeshesIL21SpriteMaskInteraction0EEvRK15RenderNodeQueuej17ShaderChannelMaski
fZc:_Enum_ToString_m662345249
Hah:_emscripten_glBindProgramARB__wrapper
USb:__Z41Register_UnityEngine_CullingGroup_Disposev
v5a:__ZN7Cubemap23VirtualRedirectTransferER19StreamedBinaryWriteILb0EE
Xxa:__ZN25MultiBlocksMemoryFileData5WriteEyyPKv
_Bg:__ZN14dense_hash_mapI10KeyWrapperIPK10Il2CppTypeEjN6il2cpp8metadata14Il2CppTypeHashENS4_14EqualsComparerINS6_26Il2CppTypeEqualityComparerEEENSt3__29allocatorINSB_4pairIKS4_jEEEEE13set_empty_keyERSE_
HSb:__Z35Component_CUSTOM_SendMessageUpwardsP12Il2CppObjectP12Il2CppStringS0_i
eqa:__ZL17ProgramUniform2fvPK7ApiGLESjiihPKv
yeh:b83
j2g:_htonl
Ila:__Z20GetBufferManagerGLESv
zyb:__ZN18StreamedBinaryReadILb0EE21TransferSTLStyleArrayI31ArrayOfManagedObjectsTransfererEEvRT_17TransferMetaFlags
pfe:_UTF7Decoder_GetChars_m2790530452
EZb:__Z18Transfer_BlittableI8JSONReadLb0EtEvRK29SerializationCommandArgumentsR31RuntimeSerializationCommandInfo
$cc:__ZN18ColorBySpeedModuleD0Ev
tRb:__ZN15dense_hashtableINSt3__24pairIKy9PlaneDataEEyN32PlaneColliderCache_dense_hashmap17UInt64HashFunctorEN14dense_hash_mapIyS3_S6_NS0_8equal_toIyEE13stl_allocatorIS4_L18MemLabelIdentifier65ELi16EEE9SelectKeyES9_SC_E12resize_deltaEjj
sSg:__ZNSt3__212basic_stringIDsNS_11char_traitsIDsEENS_9allocatorIDsEEE9__grow_byEjjjjjj
Ct:__ZN12AudioManager21FixMasterGroupRoutingEv
Yrc:_SymmetricAlgorithm_set_Key_m2973350820
DKd:_WebHeaderCollection_IsHeaderValue_m1723393133
bLc:_Hashtable__ctor_m4280223555
BPg:__ZN6il2cpp2os10ThreadImpl33UnregisterCurrentThreadForCleanupEv
Emb:__Z18Transfer_BlittableI14SafeBinaryReadLb1E4AABBEvRK29SerializationCommandArgumentsR31RuntimeSerializationCommandInfo
mOg:__ZN6il2cpp6icalls8mscorlib6System4Enum12get_hashcodeEP12Il2CppObject
uXg:_GC_set_no_dls
P$g:__ZN6il2cpp8metadata26Il2CppGenericMethodCompare6EqualsEPK19Il2CppGenericMethodS4_
US:__Z22CreateMutexLockedQueue18MemLabelIdentifier
xmb:__Z18Transfer_BlittableI14SafeBinaryReadLb0E8Vector2fEvRK29SerializationCommandArgumentsR31RuntimeSerializationCommandInfo
pNe:_Array_InternalArray__set_Item_TisPlayableBinding_t2498078091_m2071396616_gshared
kc:_emscripten_glVertexAttrib2f
sBb:__ZN15SerializeTraitsIN9ShaderLab20SerializedSubProgram16TextureParameterEE8TransferI14SafeBinaryReadEEvRS2_RT_
VEc:_Byte_System_IConvertible_ToInt16_m1575115635_AdjustorThunk
ETe:_Context_get_HasGlobalDynamicSinks_m3205328884
kkd:_SimpleCollator_CompareQuick_m619038530
nGd:_SslStreamBase_EndRead_m1072850679
Ec:_SDL_GetTicks
fsd:_X509CertificateEnumerator_System_Collections_IEnumerator_get_Current_m1643583406
Z6b:__Z8EvaluateRK11MinMaxCurveRKN4math7_float4ES5_
Pyg:__ZN15dense_hashtableINSt3__24pairIK10KeyWrapperINS1_IPK11Il2CppImageP11Il2CppClassEEEjEES9_17ReflectionMapHashIS8_EN14dense_hash_mapIS9_jSD_NS9_14EqualsComparerINS0_8equal_toIS8_EEEENS0_9allocatorISB_EEE9SelectKeyESI_SK_E6insertERKSB_
qOa:__Z21CreateShadowCullerJobP30CreateUmbraShadowCullerJobData
Ypa:__ZL18ProgramUniform2uivPK7ApiGLESjiihPKv
bch:_glUniform4iv__wrapper
qLa:__Z33GenerateShadowCasterPartsSortDataRK16ShadowCasterDatajRK15RenderNodeQueueRKNSt3__26vectorI20ShadowCasterPartData13stl_allocatorIS7_L18MemLabelIdentifier2ELi16EEEERK10Matrix4x4fRjP20ShadowCasterSortData
ZEe:_Dictionary_2_ToTKey_m4209561517_gshared
IG:__GLOBAL__sub_I_runtime_gfxdevice_lump_cpp
Zof:_AsyncOperation_set_priority_m3581020444
SUg:_GC_expand_hp_inner
JLg:__ZNK15dense_hashtableI10KeyWrapperIP18Il2CppGenericClassES3_N6il2cpp8metadata22Il2CppGenericClassHashEN14dense_hash_setIS3_S6_NS3_14EqualsComparerINS5_25Il2CppGenericClassCompareEEENSt3__29allocatorIS3_EEE8IdentityESA_SD_E12test_deletedEj
oSg:__ZN4utf812find_invalidIPKcEET_S3_S3_
XOd:_X509ExtensionCollection_System_Collections_ICollection_CopyTo_m3421329346
kUg:_GC_err_printf
y4d:_FieldBuilder_SetValue_m3109503557
PMd:_X509Certificate2_Verify_m1574874641
kE:__ZN11UnityEngine15CloudWebService20WebRequestRestClient7PrepareEv
RMc:_SortedList_GetEnumerator_m1318483481
qBc:_Array_CreateInstance_m3327690220
u7g:_emscripten_glDepthRange__wrapper
hXa:__ZN16MemoryFileSystem4OpenER13FileEntryData14FilePermission16FileAutoBehavior
tU:__ZN13RuntimeStaticI13RendererSceneLb0EE13StaticDestroyEPv
Orb:__Z18Transfer_BlittableI24GenerateTypeTreeTransferLb1E12PropertyNameEvRK29SerializationCommandArgumentsR31RuntimeSerializationCommandInfo
zgb:__ZN14SafeBinaryRead21TransferSTLStyleArrayI10vector_mapIPKN5Unity4TypeE7Hash128NSt3__24lessIS5_EENS7_9allocatorINS7_4pairIS5_S6_EEEEEEEvRT_17TransferMetaFlags
qs:__ZN9AudioClip18GetQueuedAudioDataEPPvj
jOg:__ZN6il2cpp2os5posix15PosixWaitObject13InterruptWaitEv
gHa:__Z18SetShadowsKeywordsR17ShaderPassContext9LightType10ShadowType16ShadowProjectionbb
DCg:__ZN14dense_hash_mapI10KeyWrapperINSt3__24pairIPK12PropertyInfoP11Il2CppClassEEEj17ReflectionMapHashIS8_ENS9_14EqualsComparerINS1_8equal_toIS8_EEEENS1_9allocatorINS2_IKS9_jEEEEEC2EjRKSB_RKSF_
HLb:__ZN17CollisionMeshDataC2Ev
J0d:_Assembly_GetModule_m2064378601
Uef:_Regex_get_RightToLeft_m529734879
L6a:__ZN16LightmapSettings23VirtualRedirectTransferER19StreamedBinaryWriteILb0EE
zBa:__ZZ23InitPlayerLoopCallbacksvEN47PostLateUpdateMemoryFrameMaintenanceRegistrator7ForwardEv
qn:FUNCTION_TABLE_viiififii
DVg:_GC_push_next_marked
pwf:_MessageTypeSubscribers__ctor_m743474932
Sbh:_glTexParameteriv__wrapper
sea:__ZN18IDCollectorFunctor18GenerateInstanceIDEi17TransferMetaFlags
DMe:_Array_InternalArray__set_Item_TisTableRange_t2011406615_m2386708730_gshared
D1c:_NumberFormatter_ToDecHex_m1474793296
Fpf:_AudioClipPlayable_SetClipInternal_m3129974269
mFg:__ZN6il2cpp2vm6Thread8SetStateEP12Il2CppThreadNS0_11ThreadStateE
Oid:_OperatingSystem_Clone_m1943707477
Fhe:_Scheduler_Change_m4063588742
hag:_HitInfo_SendMessage_m3368777144_AdjustorThunk
hUb:__Z22PlayableValidityChecksRK9HPlayableb
tCd:_TlsClientCertificateVerify_ProcessAsTls1_m1960818833
zSb:__Z41Register_UnityEngine_Camera_GetAllCamerasv
Toa:__ZN4crnd12crn_unpacker10unpack_dxnEPPhjjjjjj
ekc:__ZN28PerformanceReportingSettings8TransferI14SafeBinaryReadEEvRT_
pQc:_Double_Parse_m2344589511
b4e:__Z78RuntimeInvoker_Boolean_t3825574718_IntPtr_t_Int32_t2071877448_SByte_t454417549PFvvEPK10MethodInfoPvPS4_
CGg:__ZN6il2cpp2vm22EmbeddedResourceRecordC2ERKS1_
q5a:__ZN9Texture2D13AwakeFromLoadE17AwakeFromLoadMode
Djd:_MSCompatUnicodeTableUtil__cctor_m1479836795
ijf:_PositionAssertion__ctor_m3703837499
Add:_StreamWriter_Initialize_m1707678624
GNg:__ZN6il2cpp2vm3RCW14QueryInterfaceILb0EEEP14Il2CppIUnknownP15Il2CppComObjectRK10Il2CppGuid
p7:__ZN6prcoreL17RemapGenericFloatI15TexFormatRFloat18TexFormatARGBFloatEEvPKNS_9InnerInfoE
lIf:__ZL50_Thread_t1894135853_CustomAttributesCacheGeneratorP21CustomAttributesCache
o2b:__ZN12LightsModule20ResetUsedLightsCacheEv
Bue:_InternalEnumerator_1_get_Current_m1047712960_gshared
EG:__GLOBAL__sub_I_runtime_camera_renderlayers_lump_cpp
ePe:_Array_InternalArray__get_Item_TisPlayableBinding_t2498078091_m3248833039_gshared
vjc:__ZN11UnityEngine15PlatformWrapper20GetPlayerPrefsUInt64ERKN4core12basic_stringIcNS1_20StringStorageDefaultIcEEEEy
Dec:__Z19UpdateWholeSheetTplIL27ParticleSystemCurveEvalMode1EEvfRK11MinMaxCurveS3_RK23ParticleSystemParticlesPf
QKa:__ZN20ReflectionProbeCacheC2ER13BatchRendererR15RenderLoopStats
fV:__ZN18AssetBundleManagerC2Ev
kza:__ZNK12HandlerChain6ExistsERK13FileEntryData
sTf:__ZL61ExtensionAttribute_t1840441203_CustomAttributesCacheGeneratorP21CustomAttributesCache
NQc:_Convert_ToInt32_m2734833291
Mjf:_Uri_ParseNoExceptions_m1151989845
Ffb:__ZN12InputManager23VirtualRedirectTransferER24GenerateTypeTreeTransfer
MFb:__ZN9Transform23VirtualRedirectTransferER24GenerateTypeTreeTransfer
AEb:__ZNSt3__26vectorIN9ShaderLab20SerializedSubProgram12UAVParameterENS_9allocatorIS3_EEE21__push_back_slow_pathIKS3_EEvRT_
HOd:_X509ChainElement_Count_m228862214
oje:_TimeZone_IsDaylightSavingTime_m1840774423
hhc:__GLOBAL__sub_I_runtime_ui_lump_cpp
Y3b:__ZN10SizeModule8TransferI24GenerateTypeTreeTransferEEvRT_
eya:__ZN10MemoryFile4ReadEyyPvPy
Sha:__ZN13GfxDeviceGLES26UpdateViewProjectionMatrixEv
SCe:_Dictionary_2_ContainsKeyValuePair_m1750905675_gshared
Wq:__ZN4FMOD3DSP12setParameterEif
WY:__ZN13MemoryManager16StaticInitializeEv
bGb:__ZN11PlayerPrefs4SyncEv
i_d:_CryptographicException__ctor_m1012314467
Iu:__ZN4FMOD22FakeModChannelCallbackEPv
Oe:_emscripten_glValidateProgram
yDa:__ZN4Mesh10CreateMeshEv
Xzg:__ZN6il2cpp2gc19AppendOnlyGCHashMapINSt3__24pairIPK9EventInfoP11Il2CppClassEEP21Il2CppReflectionEvent17ReflectionMapHashIS9_ENS2_8equal_toIS9_EEE3AddERKS9_SB_
Mr:__ZN4FMOD7SystemI11createSoundEPKcjP22FMOD_CREATESOUNDEXINFOPPNS_5SoundE
BHd:_ListDictionary_FindEntry_m1690278153
knf:_X509Chain__ctor_m1113875360
YXc:_Double_System_IConvertible_ToBoolean_m4251806534_AdjustorThunk
jBe:_ShimEnumerator_Reset_m2247049027_gshared
SQa:__ZN7Texture13SetAnisoLevelEi
_Md:_X509Chain_Process_m2508784250
a2a:__ZN11HaloManager10UpdateHaloEiR9Transform11ColorRGBA32fjP6Object
$4b:__ZN13InitialModule8TransferI18StreamedBinaryReadILb0EEEEvRT_
x5c:_Int16_Parse_m3012618547
MIg:__ZN14dense_hash_mapI10KeyWrapperIP14Il2CppIUnknownEjN6il2cpp5utils11PointerHashIS1_EENS3_14EqualsComparerINSt3__28equal_toIS2_EEEENS9_9allocatorINS9_4pairIKS3_jEEEEE13set_empty_keyERSF_
y1e:__Z50RuntimeInvoker_Void_t1841601450_OpCode_t2247480392PFvvEPK10MethodInfoPvPS4_
s1c:_NumberFormatter_Append_m3268121457
p1a:__Z21DestroyShadowMapCacheP14ShadowMapCache
aVg:_GC_hblk_fl_from_blocks
z$f:_Enumerator_VerifyState_m739025304_gshared
bCg:__ZN15dense_hashtableINSt3__24pairIK10KeyWrapperIPK10Il2CppTypeEjEES6_N6il2cpp8metadata14Il2CppTypeHashEN14dense_hash_mapIS6_jSB_NS6_14EqualsComparerINSA_26Il2CppTypeEqualityComparerEEENS0_9allocatorIS8_EEE9SelectKeyESF_SH_E14squash_deletedEv
LHg:__ZN6il2cpp2vm13LivenessState5ResetEv
LVb:__ZN9JSONWrite8TransferI11KeyframeTplIfEEEvRT_PKc17TransferMetaFlags
asf:_GameObject_GetComponent_m306258075
ywa:__ZN24BuiltinShaderParamValuesC2Ev
CWb:__ZL41CreateJSONTransferFunctionScriptingTraitsv
Cad:_FileStream_get_CanWrite_m775322953
JBa:__Z23GetLateBehaviourManagerv
HP:__ZN10MemoryPool10DeallocateEPv
v2c:_NumberFormatInfo__ctor_m2752806684
zGd:_SslStreamBase_get_CanRead_m3061866682
Qff:_PatternCompiler_EmitFastRepeat_m1175707353
AOe:_Array_InternalArray__get_Item_TisKeyValuePair_2_t3716250094_m3120861630_gshared
X$b:__ZNK9rapidjson12GenericValueINS_4UTF8IcEE13JSONAllocatorE6AcceptINS_6WriterI16TempBufferWriterS2_S2_S3_EEEEbRT_
Z5g:dynCall_vif
_5g:dynCall_vid
Zsf:_Native_CSSNodeGetMeasureFunc_m3825031950
$5g:dynCall_vii
ePc:_DateTime__ctor_m3604679583
oyb:__Z18Transfer_BlittableI18StreamedBinaryReadILb0EELb0EdEvRK29SerializationCommandArgumentsR31RuntimeSerializationCommandInfo
fff:_Enumerator_System_Collections_IEnumerator_MoveNext_m3313126804
kHa:__ZNK17InstancedPropInfo14IsInstanceableERK19ShaderPropertySheet
r$e:__Z150RuntimeInvoker_Int32_t2071877448_RuntimeObject_Int32_t2071877448_Int32_t2071877448_RuntimeObject_Int32_t2071877448_Int32_t2071877448_Int32_t2071877448PFvvEPK10MethodInfoPvPS4_
DZa:__ZN5Unity9Component16CheckConsistencyEv
Pqa:__ZN7ApiGLES11CheckShaderERjb
H_:__ZN19ShaderPropertySheet37CreateTextureAuxPropertyUninitializedEN9ShaderLab16FastPropertyNameES1_PKc
Rtb:__ZL26Transfer_SimpleNativeClassI19StreamedBinaryWriteILb0EE10RectOffsetLb1EEvRK29SerializationCommandArgumentsR31RuntimeSerializationCommandInfo
zOe:_Array_InternalArray__get_Item_TisKeyValuePair_2_t1174980068_m964958642_gshared
Bxg:__ZN15dense_hashtableINSt3__24pairIK10KeyWrapperIPK10Il2CppTypeEjEES6_N6il2cpp8metadata14Il2CppTypeHashEN14dense_hash_mapIS6_jSB_NS6_14EqualsComparerINSA_26Il2CppTypeEqualityComparerEEENS0_9allocatorIS8_EEE9SelectKeyESF_SH_E3endEv
JLa:__Z28GetNonInterpolatedLightProbeRK17LightProbeContextjR20SphericalHarmonicsL2
vKe:_Array_InternalArray__ICollection_Add_TisDateTime_t693205669_m3559987213_gshared
xka:__ZN13GfxDeviceGLES17SetGpuProgramNameEP10GpuProgramPKc
xE:__ZNK11UnityEngine15CloudWebService25WebRequestDownloadHandler11GetProgressEv
upg:__ZN6il2cpp2vm13MetadataCache28GetMethodDefinitionFromIndexEi
RQg:__ZN6il2cpp2os20FileErrnoToErrorCodeEi
X3:__ZN14SafeBinaryRead19TransferSTLStyleMapINSt3__23mapI39DeprecatedFastPropertyNameSerialization10ColorRGBAfNS1_4lessIS3_EENS1_9allocatorINS1_4pairIKS3_S4_EEEEEEEEvRT_17TransferMetaFlags
Y8d:_MonoEventInfo_GetEventInfo_m2331957186
wg:_atexit
JJc:_BitArrayEnumerator_Reset_m3218489242
gFc:_Byte_System_IConvertible_ToUInt16_m2275325191
EAg:__ZN6il2cpp2vmL31GetObjectForMissingDefaultValueEj
$mg:__ZNK15dense_hashtableINSt3__24pairIK10KeyWrapperIN6il2cpp5utils13dynamic_arrayIPK10Il2CppTypeLj4EEEEPFvvEEESA_NS3_8metadata19Il2CppSignatureHashEN14dense_hash_mapISA_SD_SG_NSA_14EqualsComparerINSF_22Il2CppSignatureCompareEEENS0_9allocatorISE_EEE9SelectKeyESK_SM_E10test_emptyEj
aCb:__ZN9ShaderLab14SerializedPassC2ERKS0_
qse:_InternalEnumerator_1_System_Collections_IEnumerator_get_Current_m3088751576_AdjustorThunk
LWb:__Z35Transfer_Blittable_FixedBufferFieldI9JSONWritehEvRK29SerializationCommandArgumentsR31RuntimeSerializationCommandInfo
l:STACKTOP
Osa:__Z18SetVertexStateGLES17ShaderChannelMaskP21VertexDeclarationGLESPK18VertexStreamSourcejjj
Uya:__ZNK12HandlerChain8IsHiddenERK13FileEntryData
a7a:__ZN21EnlightenSceneMapping16BuildRemapTablesEv
bOb:__ZN17TransformInternal27UpdateDeepChildCountUpwardsER18TransformHierarchyii
R3g:__ZNK10__cxxabiv117__class_type_info16search_above_dstEPNS_19__dynamic_cast_infoEPKvS4_ib
A:tempBigIntD
pwc:_Single_Equals_m3359827399_AdjustorThunk
z:tempBigIntI
f8f:_CachedInvokableCall_1__ctor_m127496184_gshared
ivd:_PrimalityTests_RabinMillerTest_m2029846965
x:tempBigIntS
zm:FUNCTION_TABLE_viffi
iVd:_ServerIdentity_CreateObjRef_m1056204803
tP:__ZN6Object18RegisterInstanceIDEPS_
vrb:__Z18Transfer_BlittableI24GenerateTypeTreeTransferLb1EsEvRK29SerializationCommandArgumentsR31RuntimeSerializationCommandInfo
RMg:__ZN15dense_hashtableINSt3__24pairIK10KeyWrapperIP12Il2CppObjectEN6il2cpp2gc9CachedCCWEEES5_NS7_5utils11PointerHashIS3_EEN14dense_hash_mapIS5_S9_SD_NS5_14EqualsComparerINS0_8equal_toIS4_EEEENS0_9allocatorISA_EEE9SelectKeyESI_SK_E11set_deletedER30dense_hashtable_const_iteratorISA_S5_SD_SM_SI_SK_E
Tha:__ZNK9GfxDevice18GetWorldViewMatrixEv
gAd:_TlsServerKeyExchange__ctor_m247733406
oPe:_Object_Instantiate_TisRuntimeObject_m1767088036_gshared
kTg:__ZN6il2cpp6icalls8mscorlib6System7Convert17Base64ToByteArrayEPDsib
Gmg:__ZNSt3__218__insertion_sort_3IRN6il2cpp5utils11collections13ArrayValueMapIPK10Il2CppType17Il2CppInteropData26InteropDataToTypeConverterNS1_8metadata14Il2CppTypeLessENSA_26Il2CppTypeEqualityComparerEE12SortComparerEPS8_EEvT0_SH_T_
T0b:__ZN27ColorModulePropertyBindings13AddPropertiesER10vector_mapIi22ParticleModulePropertyNSt3__24lessIiEENS2_9allocatorINS2_4pairIiS1_EEEEE
Xha:__ZNK9GfxDevice25GetDeviceProjectionMatrixEv
fJd:_HttpWebRequest__ctor_m1248252412
ja:invoke_iidiii
Rfc:__Z4SortRK10Matrix4x4fS1_R23ParticleSystemParticles22ParticleSystemSortModeR31ParticleSystemParticlesTempData
f0d:_RankException__ctor_m2119191472
c0b:__ZN9rapidjson12PrettyWriterI16TempBufferWriterNS_4UTF8IcEES3_13JSONAllocatorE11WriteIndentEv
FPb:__ZN10systeminfo24GetRuntimePlatformStringEv
SYb:__ZN9JSONWrite8TransferI13dynamic_arrayI4AABBLj4EEEEvRT_PKc17TransferMetaFlags
z1e:__Z64RuntimeInvoker_Void_t1841601450_OpCode_t2247480392_RuntimeObjectPFvvEPK10MethodInfoPvPS4_
CB:__ZN5physx14PxLightCpuTask15removeReferenceEv
Sbc:__ZN23ParticleSystemParticles17SetUses3DRotationEv
baf:__Z88RuntimeInvoker_Void_t1841601450_Double_t4078015681_Double_t4078015681_Double_t4078015681PFvvEPK10MethodInfoPvPS4_
vKd:_SPKey_Equals_m1112627532
qtc:_SecurityPermission_IsSubsetOf_m1087302418
QUe:_ArgInfo__ctor_m3787931268
wnf:_X509Chain_Build_m175470596
O_:__ZN9ShaderLab6TexEnvC2ERKNS_25SerializedTexturePropertyE
_wf:_Object_Instantiate_m2489341053
o2:__ZN19ShaderPropertySheet38CopyTextureWithAuxiliaryPropertiesFromERKN9ShaderLab16FastPropertyNameERKS_
EAd:_TlsServerCertificate__ctor_m3697944709
Xpg:__ZN6il2cpp2vm19SocketPollingThread14DequeueRequestEv
yQg:__ZL10RevealLinkPv
BPa:__ZNK6Camera26CalculateCullingParametersER17CullingParameters
_h:___cxa_end_catch
_5d:_MethodBuilder_MakeGenericMethod_m303913412
$0d:_AssemblyName_InternalGetPublicKeyToken_m3706025887
sJd:_HttpWebRequest_GetObjectData_m1200570677
oEd:_ReceiveRecordAsyncResult_get_AsyncWaitHandle_m1602093076
Ayb:__Z19TransferField_ArrayI18StreamedBinaryReadILb0EE27Converter_UnityEngineObjectEvRK23StaticTransferFieldInfoR31RuntimeSerializationCommandInfoRT0_
Y5e:__Z221RuntimeInvoker_Void_t1841601450_Int32_t2071877448_Int16_t4041245914_Int16_t4041245914_SByte_t454417549_SByte_t454417549_SByte_t454417549_SByte_t454417549_SByte_t454417549_SByte_t454417549_SByte_t454417549_SByte_t454417549PFvvEPK10MethodInfoPvPS4_
gK:__Z33InitializeBuiltinShaderParamNamesv
Ksd:_ActivationContext_System_Runtime_Serialization_ISerializable_GetObjectData_m775951299
D0:__ZNK16TypeTreeIterator4TypeEv
OUe:_LeaseManager__ctor_m2166901364
Iwa:__ZN10FileSystem25MountDataFolderFileSystemERKN4core12basic_stringIcNS0_20StringStorageDefaultIcEEEES6_
Hi:_glGetUniformLocation
gja:__ZN13GfxDeviceGLES32CreateColorRenderSurfacePlatformEP17RenderSurfaceBase19RenderTextureFormat
as:__ZN12AudioManager24CreateFMODSoundFromMovieEP9AudioClip
e0b:__ZN9rapidjson6WriterI16TempBufferWriterNS_4UTF8IcEES3_13JSONAllocatorE8WriteIntEi
tog:__ZN6il2cpp2vm13MetadataCache24GetGenericInstanceMethodEPK10MethodInfoPK20Il2CppGenericContext
Ajd:_MSCompatUnicodeTable_get_IsReady_m562849792
Fjd:_SimpleCollator_SetCJKTable_m1356471502
$ub:__Z18Transfer_BlittableI18StreamedBinaryReadILb1EELb0E8Vector2fEvRK29SerializationCommandArgumentsR31RuntimeSerializationCommandInfo
s6c:_Int32_System_IConvertible_ToUInt64_m2888588559_AdjustorThunk
OO:__Z24ConvertSeparatorsToUnityPc
Sfb:__ZNSt3__213__vector_baseI9InputAxisNS_9allocatorIS1_EEED2Ev
WEg:__ZN6il2cpp2vm6Thread20FreeThreadStaticDataEP12Il2CppThread
IWe:__Z28RuntimeInvoker_RuntimeObjectPFvvEPK10MethodInfoPvPS4_
h_c:_Exception_get_ClassName_m2189012117
R6b:__ZN11ForceModule13AwakeFromLoadEP14ParticleSystemRK27ParticleSystemReadOnlyState
l9c:_IOException__ctor_m613517077
hNc:_Stack__ctor_m521896492
aGa:__Z20LookRotationToMatrixRK8Vector3fS1_P10Matrix3x3f
o6g:dynCall_viififi
dib:__ZNSt3__26vectorIN15ResourceManager10DependencyE13stl_allocatorIS2_L18MemLabelIdentifier51ELi16EEE6assignINS_11__wrap_iterIPS2_EEEENS_9enable_ifIXaasr21__is_forward_iteratorIT_EE5valuesr16is_constructibleIS2_NS_15iterator_traitsISC_E9referenceEEE5valueEvE4typeESC_SC_
Kje:_Type_GetTypeFromHandle_m432505302
JEg:__ZN15dense_hashtableINSt3__24pairIK10KeyWrapperINS1_IP11Il2CppClassjEEES4_EES6_N6il2cpp8metadata14ArrayClassHashEN14dense_hash_mapIS6_S4_SB_NS6_14EqualsComparerINSA_17ArrayClassCompareEEENS0_9allocatorIS8_EEE9SelectKeyESF_SH_E12maybe_shrinkEv
MQe:_GCHandle_FreeHandle_m2466807271
GC:__ZN11UnityEngine15CloudWebService14DataDispatcher25OnDataBlockConsumedStaticEPv
fIf:__ZL54_MethodInfo_t3642518830_CustomAttributesCacheGeneratorP21CustomAttributesCache
S6c:_Int64_System_IConvertible_ToByte_m3027162116_AdjustorThunk
cxf:_Playable_get_Null_m3678950051
a7f:_ReadOnlyCollection_1_Contains_m1895759124_gshared
RKb:__ZZN8Renderer15InitializeClassEvEN28FunctorImpl_136kLayerChanged4CallEPviR11MessageData
H:Math_pow
TAb:__Z14resize_trimmedINSt3__26vectorIN9ShaderLab20SerializedSubProgram16SamplerParameterENS0_9allocatorIS4_EEEEEvRT_j
iHc:_ArrayList__cctor_m2090802806
A3g:__ZNSt3__212basic_stringIcNS_11char_traitsIcEENS_9allocatorIcEEE6insertEjPKcj
EWb:__Z44InitializeTransferFunctionScriptingTraitsForI8JSONReadEvR31TransferFunctionScriptingTraits
bVa:__ZNSt3__26vectorINS_4pairIN4core12basic_stringIcNS2_20StringStorageDefaultIcEEEES6_EE13stl_allocatorIS7_L18MemLabelIdentifier37ELi16EEE6insertENS_11__wrap_iterIPKS7_EERSD_
oga:__ZNSt3__27__sort4IRNS_4lessIN22BuiltinResourceManager8ResourceEEEPS3_EEjT0_S7_S7_S7_T_
f$:__ZN15dense_hashtableINSt3__24pairIKPK17RenderSurfaceBaseP13RenderTextureEES4_19PointerHashFunctionIS4_EN14dense_hash_mapIS4_S7_SA_NS0_8equal_toIS4_EE13stl_allocatorIS8_L18MemLabelIdentifier65ELi16EEE9SelectKeyESD_SG_E12resize_deltaEjj
Roa:__ZN4crnd12crn_unpacker11unpack_dxt5EPPhjjjjjj
sme:_UInt32_System_IConvertible_ToUInt64_m4083788326_AdjustorThunk
L_d:_DESTransform_Permutation_m4174035780
t9c:_Path_IsDsc_m1314465747
xad:_MonoIO_Seek_m3461199288
ezb:__Z29Transfer_Blittable_ArrayFieldI18StreamedBinaryReadILb0EE4AABBEvRT_R9ArrayInfoRK23StaticTransferFieldInfo
LRa:__ZN10GameObject34AddFirstTransformComponentInternalEP9Transform
xK:__ZNSt3__26__treeINS_12__value_typeINS_4pairIPcS3_EENS_3setIS3_15compare_tstringIPKcENS_9allocatorIS3_EEEEEENS_19__map_value_compareIS4_SD_20smaller_tstring_pairIS8_ELb1EEENSA_ISD_EEE7destroyEPNS_11__tree_nodeISD_PvEE
tig:__ZN15dense_hashtableINSt3__24pairIK10KeyWrapperIPK22Il2CppGenericParameterEP11Il2CppClassEES6_N6il2cpp5utils11PointerHashIS4_EEN14dense_hash_mapIS6_S9_SE_NS6_14EqualsComparerINS0_8equal_toIS5_EEEENS0_9allocatorISA_EEE9SelectKeyESJ_SL_E15insert_noresizeERKSA_
iTb:__Z52Register_UnityEngine_GameObject_GetComponentInParentv
Kgb:__ZN15SerializeTraitsINSt3__24pairIPKN5Unity4TypeE7Hash128EEE8TransferI14SafeBinaryReadEEvRS7_RT_
pOa:__Z37GenerateCombinedDynamicVisibleListJobP11CullResults
MG:__GLOBAL__sub_I_runtime_graphics_billboard_lump_cpp
aX:__ZNK13ScreenManager21GetCursorInsideWindowEv
cQg:__ZN6il2cpp2vmL22RaiseOverflowExceptionEv
MKe:_Array_InternalArray__ICollection_Add_TisSByte_t454417549_m46595441_gshared
Qef:_Match_get_Empty_m3581361913
pLa:__Z20IntersectAABBFrustumRK4AABBPK5Planej
oyc:_String_Concat_m626692867
lMb:__ZN13RenderManager15InitializeClassEv
Job:__ZN15SerializeTraitsI12PropertyNameE8TransferI14SafeBinaryReadEEvRS0_RT_
FYb:__ZN9JSONWrite8TransferI11ColorRGBA32EEvRT_PKc17TransferMetaFlags
Y_b:__Z22TransferField_NonArrayI8JSONRead27Converter_SimpleNativeClassI8GradientEEvRK23StaticTransferFieldInfoR31RuntimeSerializationCommandInfoRT0_
UWa:__ZNSt3__26__treeIN4core12basic_stringIcNS1_20StringStorageDefaultIcEEEENS_4lessIS5_EE13stl_allocatorIS5_L18MemLabelIdentifier37ELi16EEE7destroyEPNS_11__tree_nodeIS5_PvEE
vqa:__ZNSt3__26vectorI15ComputeShaderCBNS_9allocatorIS1_EEE21__push_back_slow_pathIKS1_EEvRT_
alb:__ZN10MonoScript13AwakeFromLoadE17AwakeFromLoadMode
XHb:__ZN13ProduceHelperI11MonoManagerLb0EE7ProduceE18MemLabelIdentifier18ObjectCreationMode
Hsa:__ZNK18GfxFramebufferGLES15DiscardContentsER12ObjectHandleI17RenderSurface_TagP17RenderSurfaceBaseE
opg:__ZN6il2cpp2vm13MetadataCache27GetEventDefinitionFromIndexEi
iod:_KeyPairPersistence_IsUserProtected_m37342608
KXb:__Z18Transfer_BlittableI9JSONWriteLb1EdEvRK29SerializationCommandArgumentsR31RuntimeSerializationCommandInfo
X9g:_glGetIntegerv__wrapper
C0c:_NumberFormatter_ResetCharBuf_m3823516989
$Xd:_SerializationInfo_GetInt16_m3549836657
BV:__ZN14dense_hash_mapIN4core12basic_stringIcNS0_20StringStorageDefaultIcEEEE10vector_setI4PPtrI11SpriteAtlasENSt3__24lessIS8_EE13stl_allocatorIS8_L18MemLabelIdentifier79ELi16EEE20StringHash32FunctionIS4_ENS9_8equal_toIS4_EESC_INS9_4pairIKS4_SF_EELSD_79ELi16EEE15set_deleted_keyERSL_
TRa:__ZN10GameObject28FinalizeAddComponentInternalEPN5Unity9ComponentE
rag:_StackTraceUtility_IsSystemStacktraceType_m506502194
n6a:__ZN9Texture2DD2Ev
HG:__GLOBAL__sub_I_runtime_geometry_lump_cpp
CHc:_ArrayList_Remove_m3941780739
m5e:__Z69RuntimeInvoker_Void_t1841601450_SByte_t454417549_TimeSpan_t3430258949PFvvEPK10MethodInfoPvPS4_
_7b:__Z19UpdateProceduralTplIL27ParticleSystemCurveEvalMode0EEvRK22DualMinMax3DPolyCurvesS3_R23ParticleSystemParticlesRKN4math8float3x3E
I2d:_ConstructorBuilder_not_created_m2150488017
jYe:__Z63RuntimeInvoker_Char_t3454481338_Int16_t4041245914_RuntimeObjectPFvvEPK10MethodInfoPvPS4_
Rq:__ZNSt3__26vectorIiNS_9allocatorIiEEE6insertENS_11__wrap_iterIPKiEERS5_
zkf:_Uri_AppendQueryAndFragment_m2358658590
Fea:__ZN17PersistentManager27GetLoadErrorMessageFromPathERKN4core12basic_stringIcNS0_20StringStorageDefaultIcEEEE
Lzc:_DecoderReplacementFallbackBuffer_Fallback_m1790184670
jIg:__ZN6il2cpp6icalls8mscorlib6System2IO6MonoIO19GetCurrentDirectoryEPi
ePd:_X509KeyUsageExtension_CopyFrom_m931530012
vyc:_String_GetHashCode_m931956593
Zgb:__ZN14PlayerSettings23VirtualRedirectTransferER17RemapPPtrTransfer
lah:_emscripten_glGetIntegerv__wrapper
cx:__ZN12AudioManager31GetCurrentSpatializerDefinitionEv
Ddb:__ZN12MeshRenderer16UpdateCachedMeshEv
qob:__Z19TransferField_ArrayI14SafeBinaryRead27Converter_SimpleNativeClassI8GradientEEvRK23StaticTransferFieldInfoR31RuntimeSerializationCommandInfoRT0_
a6e:__Z79RuntimeInvoker_RuntimeObject_SByte_t454417549_SByte_t454417549_SByte_t454417549PFvvEPK10MethodInfoPvPS4_
XHd:_NameObjectCollectionBase_System_Collections_ICollection_CopyTo_m810189168
q5e:__Z55RuntimeInvoker_DateTime_t693205669_TimeSpan_t3430258949PFvvEPK10MethodInfoPvPS4_
bia:__ZN13GfxDeviceGLES14DisableScissorEv
oHf:__ZL71ReliabilityContractAttribute_t1625655220_CustomAttributesCacheGeneratorP21CustomAttributesCache
QRc:_Decimal_op_Explicit_m1986696267
b1c:_NumberFormatter_AppendDecimalString_m3532330813
$b:_glVertexAttrib4f
$2d:_ILGenerator__ctor_m3365621387
TZc:_Environment_GetFolderPath_m1849163024
Mmd:_ASN1_Add_m2540239672
kHe:_Array_InternalArray__ICollection_Remove_TisInt16_t4041245914_m3380378727_gshared
wWe:_MethodDictionary_CopyTo_m1721788774
vSe:_SinkProviderData__ctor_m1828480392
IQe:_GCHandle_GetTarget_m2056570211
f2b:__ZNK14ParticleSystem22GetTypeVirtualInternalEv
$Vg:_GC_set_hdr_marks
wDa:__Z17SetupObjectMatrixRK10Matrix4x4fi
uvc:_SecurityFrame_ToString_m1282306399
Bkd:_SimpleCollator_MatchesBackwardCore_m1884994267
Sie:_TimeSpan_From_m1249538749
Xjd:_SimpleCollator_GetSortKey_m1317491197
fVb:__Z43Object_CUSTOM_DoesObjectWithInstanceIDExisti
Qgf:_Assertion_get_FalseExpression_m3078551371
e9d:_MonoEvent_GetCustomAttributes_m3899596098
WKb:__ZZL31RegisterOtherRendererPropertiesR22GenericPropertyBindingEN30Wrapper_RendererReceiveShadows13SetFloatValueEPvf
QHf:__ZL70TypeLibImportClassAttribute_t2390314680_CustomAttributesCacheGeneratorP21CustomAttributesCache
hfd:_UnmanagedMemoryStream_Flush_m3305300000
dWg:_GC_printf
Hrf:_Camera_FireOnPreRender_m24116662
Uke:_TypeLoadException_GetObjectData_m2885802706
Oia:__ZN9GfxDevice24CreateRenderDepthSurfaceE9TextureIDiiii16TextureDimension17DepthBufferFormat18SurfaceCreateFlags
jXd:_ObjectManager_DoFixups_m835924385
GUd:_RemotingServices_CreateWellKnownServerIdentity_m3390048085
Ur:__ZN4FMOD5Sound11setUserDataEPv
bAb:__ZN14SafeBinaryRead21TransferSTLStyleArrayINSt3__26vectorIN9ShaderLab19SerializedSubShaderENS1_9allocatorIS4_EEEEEEvRT_17TransferMetaFlags
kIg:__ZN6il2cpp6icalls8mscorlib6System2IO6MonoIO17GetFileAttributesEP12Il2CppStringPi
Nvd:_ARC4Managed_KeySetup_m73384687
uya:__ZNK25SingleBlockMemoryFileData4SizeEv
aUc:_DateTime_Equals_m2562884703
Bv:__ZL50UnityAudioEffect_InternalSetFloatParameterCallbackP14FMOD_DSP_STATEif
oMg:__ZNK15dense_hashtableINSt3__24pairIK10KeyWrapperIP12Il2CppObjectEN6il2cpp2gc9CachedCCWEEES5_NS7_5utils11PointerHashIS3_EEN14dense_hash_mapIS5_S9_SD_NS5_14EqualsComparerINS0_8equal_toIS4_EEEENS0_9allocatorISA_EEE9SelectKeyESI_SK_E3endEv
pZa:__ZN17LowLevelAllocator4FreeEPvj
$Lc:_KeyMarker__cctor_m2057880225
Yhg:__ZN15dense_hashtableINSt3__24pairIK10KeyWrapperIPK22Il2CppGenericParameterEP11Il2CppClassEES6_N6il2cpp5utils11PointerHashIS4_EEN14dense_hash_mapIS6_S9_SE_NS6_14EqualsComparerINS0_8equal_toIS5_EEEENS0_9allocatorISA_EEE9SelectKeyESJ_SL_E9copy_fromERKSO_j
H3c:_TextInfo_get_ListSeparator_m3426465394
uNa:__ZN14qsort_internal5QSortIP16RenderObjectDatai25RenderPrePassObjectSorterEEvT_S4_T0_T1_
LBd:_Context_set_RecordProtocol_m1968834768
SQ:__ZL19StaticCleanupPlayerPv
QNd:_X509Certificate2Enumerator_MoveNext_m1861665712
b_e:__Z87RuntimeInvoker_RuntimeObject_RuntimeObject_RuntimeObject_RuntimeObject_SByte_t454417549PFvvEPK10MethodInfoPvPS4_
dV:__ZN15dense_hashtableINSt3__24pairIKN4core12basic_stringIcNS2_20StringStorageDefaultIcEEEEP11AssetBundleEES6_20StringHash32FunctionIS6_EN14dense_hash_mapIS6_S9_SC_NS0_8equal_toIS6_EENS0_9allocatorISA_EEE9SelectKeyESF_SH_ED2Ev
yge:_Monitor_Monitor_wait_m3813798368
vzc:_DecoderExceptionFallbackBuffer_Fallback_m3457210607
uGe:_Array_InternalArray__ICollection_Contains_TisDouble_t4078015681_m2262383923_gshared
GZa:__ZN9Behaviour10DeactivateE19DeactivateOperation
Wpf:_Debug_LogWarning_m2503577968
cda:__ZN13StreamingInfo8TransferI14SafeBinaryReadEEvRT_
AAb:__ZN15dense_hashtableINSt3__24pairIKiN4core17string_with_labelILi1EEEEEi18SInt32HashFunctionN14dense_hash_mapIiS5_S7_NS0_8equal_toIiEE13stl_allocatorIS6_L18MemLabelIdentifier1ELi16EEE9SelectKeyESA_SD_E15insert_noresizeERKS6_
nec:__Z22EvaluateRandomGradientIL12GradientMode0ELS0_0EEN4math4pix4ERK23OptimizedMinMaxGradientRKNS1_7_float4ES8_
Kib:__ZN14SafeBinaryRead21TransferSTLStyleArrayINSt3__26vectorIN4core12basic_stringIcNS3_20StringStorageDefaultIcEEEE13stl_allocatorIS7_L18MemLabelIdentifier12ELi16EEEEEEvRT_17TransferMetaFlags
sgc:__GLOBAL__sub_I_runtime_dynamics_lump_cpp
no:__Z23CalculateGlobalRotation23TransformAccessReadOnly
UNd:_X509Store_Close_m2412711366
TKb:__Z43InitializeRendererAnimationBindingInterfacev
EP:__ZL26DestroyGameObjectRecursiveR10GameObjectR11BatchDelete
qWg:_GC_allochblk_nth
Dge:_Mutex_ReleaseMutex_m2143813124
jme:_UInt32_System_IConvertible_ToSByte_m604037412_AdjustorThunk
eKb:__Z7HaloTexP9Texture2DPhiiii
R6g:dynCall_i
rz:__ZN17AudioCustomFilter4InitEv
wmf:_X509Certificate__cctor_m2984068893
Yob:__ZN14SafeBinaryRead21TransferSTLStyleArrayI13dynamic_arrayIxLj8EEEEvRT_17TransferMetaFlags
_rb:__Z35Transfer_Blittable_FixedBufferFieldI24GenerateTypeTreeTransferjEvRK29SerializationCommandArgumentsR31RuntimeSerializationCommandInfo
L3a:__ZN8Playable13SetInputCountEi
Q5g:dynCall_v
Jcd:_Path__cctor_m3685888661
HVc:_Decimal_System_IConvertible_ToDateTime_m4247760250_AdjustorThunk
gnd:_BitConverterLE_ULongFromBytes_m2583105400
Mra:__ZN7ApiGLES14TextureSamplerEjjRK24GfxTextureSamplingParams17TextureColorSpace
BDe:_Dictionary_2_ToTKey_m965425080_gshared
T0a:__ZN6Camera23VirtualRedirectTransferER14SafeBinaryRead
H_g:__ZNSt3__26vectorINS_12basic_stringIDsNS_11char_traitsIDsEENS_9allocatorIDsEEEENS4_IS6_EEE8__appendEj
Rie:_TimeSpan_FromDays_m2859053398
dwg:__ZN6il2cpp2vm4Type11IsEmptyTypeEPK10Il2CppType
Uic:__ZN11UnityEngine7Connect13ConnectConfig11ConfigValueD2Ev
_la:__ZNSt3__26__treeINS_12__value_typeIjP14DataBufferGLESEENS_19__map_value_compareIjS4_NS_4lessIjEELb1EEENS_9allocatorIS4_EEE7destroyEPNS_11__tree_nodeIS4_PvEE
db:invoke_viiiiiiii
Gfd:_MissingMemberException__ctor_m2869542203
j8f:_CachedInvokableCall_1__ctor_m3238306320_gshared
QOa:__ZNK6Camera16GetCullingMatrixEv
Fle:_UInt32_Parse_m3371984903
Yjf:_Uri_EnsureAbsoluteUri_m1892758054
J6a:__ZN16LightmapSettings5ResetEv
rxa:__ZN12FileAccessor4ReadEyPvPy
gHc:_ArrayList_ThrowNewArgumentOutOfRangeException_m3795973535
ogf:_Regex_Init_m1873144192
knd:_BitConverterLE_ToDouble_m516016818
sP:__ZNK15FileSystemEntry6ExistsEv
heb:__ZNK9Transform21GetLocalToWorldMatrixER10Matrix4x4f
Ns:__ZN13AudioListener23VirtualRedirectTransferER19StreamedBinaryWriteILb0EE
Dja:__ZN13GfxDeviceGLES11CopyTextureE9TextureIDS0_
GRb:__Z72Register_UnityEngine_AssetBundleCreateRequest_DisableCompatibilityChecksv
h9g:_emscripten_glViewport__wrapper
kTe:_Context__cctor_m3895126354
YC:__ZN11UnityEngine15CloudWebService17SessionEventQueue15RestoreFromFileER12FileAccessorPvy
Qgb:__ZN14PlayerSettingsD2Ev
Ead:_FileStream_get_Length_m2265080501
eke:_Type_type_is_assignable_from_m1620694099
eVg:_GC_reclaim_all
pT:__ZN13PlayableGraph14DestroyOutputsEv
jUe:_ContextAttribute_GetPropertiesForNewContext_m4007241045
$1d:_CustomAttributeTypedArgument_Equals_m1555989603
Cud:_Kernel_Subtract_m2224959291
Eqg:__ZN6il2cpp2vm10ThreadPool5QueueEP14Il2CppDelegatePPvS3_P12Il2CppObject
IPe:_ResourceSet__ctor_m2566914412
Gvd:_ASN1Convert_ToDateTime_m2305963290
Qrc:_SymmetricAlgorithm_Finalize_m1665128997
Mtd:_BigInteger__ctor_m2991182310
Ujg:__ZN6il2cpp2vm5Class6IsEnumEPK11Il2CppClass
ASb:__Z52Register_UnityEngine_Camera_INTERNAL_CALL_RaycastTryv
$Ua:__ZN13sorted_vectorINSt3__24pairIN4core12basic_stringIcNS2_20StringStorageDefaultIcEEEES6_EEN10vector_mapIS6_S6_27compare_tstring_insensitiveIS6_E13stl_allocatorIS7_L18MemLabelIdentifier37ELi16EEE13value_compareESD_E10insert_oneERKS7_
uOc:_Convert_ToByte_m791636053
pZg:__GLOBAL__sub_I_MemoryMappedFile_cpp
B6g:dynCall_iifi
vMb:__Z16CreateRenderLoopR6Camera
fI:_tlsf_create
Fjb:__ZN13MonoBehaviour23VirtualRedirectTransferER18StreamedBinaryReadILb0EE
KBb:__ZN9ShaderLab20SerializedSubProgramC2ERKS0_
arc:_SHA256Managed_ProcessBlock_m1064908669
s4g:__ZNK10__cxxabiv121__vmi_class_type_info27has_unambiguous_public_baseEPNS_19__dynamic_cast_infoEPvi
oSc:_Convert_ToUInt64_m2215781574
Rmf:_X509Certificate_VerifySignature_m4020723406
Qke:_TypeInitializationException_GetObjectData_m2244451030
t$c:_CompareInfo_LastIndexOf_m2978196696
Gnd:_DSAManaged_Generate_m3166917081
_ze:_Enumerator_VerifyCurrent_m3330382363_AdjustorThunk
Kk:_emscripten_glGetActiveUniform
Efc:__ZL24GenerateParticleGeometryIL24ParticleSystemRenderMode3ELb1ELb0EL25ParticleSystemRenderSpace0EEvPfRK22ParticleSystemTempDataRK26ParticleSystemRendererDataRK21ParticleSystemModulesRK23ParticleSystemParticlesRK31ParticleSystemParticlesTempData
hhe:_Thread_Start_m1419497481
Ved:_UnexceptionalStreamWriter_Write_m186237617
Ach:_emscripten_glUniform4iv__wrapper
nEc:_Boolean_CompareTo_m1086129598_AdjustorThunk
fLb:__ZN8Material8GetFloatEN9ShaderLab16FastPropertyNameE
Hqf:_AudioPlayableOutput__ctor_m2971183853
Hf:_pthread_key_create
uHc:_ArrayList_Clear_m3834604134
Of:_emscripten_glGetObjectParameterivARB
e4:__ZN15SerializeTraitsI10ColorRGBAfE8TransferI14SafeBinaryReadEEvRS0_RT_
YQ:__ZN22BuiltinResourceManager13StaticDestroyEPv
BNe:_Array_Resize_TisCustomAttributeTypedArgument_t1498197914_m3055365808_gshared
xP:__ZN10GameObject17GetComponentIndexEPN5Unity9ComponentE
R9a:__ZN14SafeBinaryRead21TransferSTLStyleArrayI13dynamic_arrayI7SubMeshLj4EEEEvRT_17TransferMetaFlags
hwc:_Single_IsNegativeInfinity_m2615809279
Fzd:_CipherSuiteFactory_GetSsl3SupportedCiphers_m2476597368
CJd:_IPv6Address_Fill_m1824197512
pv:__ZN29AudioEffectInternalDefinition9CreateDSPEPN4FMOD6SystemEPvPfP23UnityAudioAmbisonicDataPP25UnityAudioSpatializerData
FUa:__ZN35RegisterRuntimeInitializeAndCleanup22ExecuteInitializationsEv
CPe:_GameObject_GetComponents_TisRuntimeObject_m3618562997_gshared
l9:__ZN23PreloadManagerOperation14SetFinalTimingEffff
i:DYNAMICTOP_PTR
SDa:__Z11CopyTextureP7TextureiiS0_ii
Mgb:__ZN13BuildSettings8TransferI18StreamedBinaryReadILb0EEEEvRT_
YGb:__ZN10GameObject15InitializeClassEv
VGe:_Array_InternalArray__ICollection_Contains_TisWorkRequest_t1154022482_m865286315_gshared
DYc:_Double_Equals_m920556135_AdjustorThunk
Dyd:_CipherSuite_get_ExpandedKeyMaterialSize_m296573450
O9b:__Z18MagnitudeUpdateTplIL27ParticleSystemCurveEvalMode3EEvRK11MinMaxCurveR23ParticleSystemParticlesjjRKN4math7_float4E
uNc:_Stack_Push_m284336154
NTc:_DateTime_Add_m4237489122
Zhb:__ZN15ResourceManager10Dependency8TransferI14SafeBinaryReadEEvRT_
IUg:_GC_extend_size_map
Tsf:_Coroutine_Finalize_m3953619693
Rv:__ZN4FMOD6System9setDriverEi
NLg:__ZN6il2cpp8metadataL24RecursiveGenericDepthForEPK17Il2CppGenericInst
BMb:__ZNK9Transform11GetRotationEv
HMd:_X509Certificate2_Find_m833446211
Dz:__ZN12AudioManager15DidReloadDomainEv
$rb:__Z18Transfer_BlittableI24GenerateTypeTreeTransferLb0EyEvRK29SerializationCommandArgumentsR31RuntimeSerializationCommandInfo
m_:__ZN8Material14CreateMaterialER6ShaderN6Object9HideFlagsEb
rod:_KeyPairPersistence_FromXml_m2310151202
VRb:__Z60Register_UnityEngine_AsyncOperation_get_allowSceneActivationv
kVc:_DBNull_System_IConvertible_ToUInt64_m2919804476
B2g:_fread
O2a:__ZNK17InstancedPropInfo15RenderInstancesERK15RenderNodeQueuePK17BatchInstanceDataj17ShaderChannelMaskPFbPvS6_iR11MeshBuffersR16DrawBuffersRangeRiSC_E
j2b:__ZN14ParticleSystem23VirtualRedirectTransferER24GenerateTypeTreeTransfer
A4e:__Z51RuntimeInvoker_Double_t4078015681_Int16_t4041245914PFvvEPK10MethodInfoPvPS4_
p_:__Z25GetBuiltinResourceManagerv
YLg:__ZN6il2cpp2gc8GCHandle15GetTargetHandleEP12Il2CppObjectii
ch:_llvm_trap
lK:__ZNSt3__27__sort5IRNS_6__lessIN12_GLOBAL__N_114ParamNameIndexES3_EEPS3_EEjT0_S7_S7_S7_S7_T_
d9c:_Directory_CreateDirectory_m3561886598
dVg:_get_index
KFa:__Z26scripting_method_get_class18ScriptingMethodPtr
RAd:_ClientSessionInfo_get_Valid_m3589823308
qpd:_PKCS1_Sign_v15_m2137018891
hqg:__ZN6il2cpp2vm21ThreadPoolCompartment12DetachThreadEP12Il2CppThread
cja:__ZN13GfxDeviceGLES30SetBackBufferColorDepthSurfaceEP17RenderSurfaceBaseS1_
GNb:__ZN16StreamedResource8TransferI18StreamedBinaryReadILb0EEEEvRT_
zAb:__ZN15dense_hashtableINSt3__24pairIKiN4core17string_with_labelILi1EEEEEi18SInt32HashFunctionN14dense_hash_mapIiS5_S7_NS0_8equal_toIiEE13stl_allocatorIS6_L18MemLabelIdentifier1ELi16EEE9SelectKeyESA_SD_E12resize_deltaEjj
MPa:__ZNK20OcclusionCullingData22GetStaticRendererCountEv
oJa:__ZNK6Camera17GetSkyboxMaterialEv
Jdh:_emscripten_glDisableVertexAttribArray__wrapper
Ate:_InternalEnumerator_1_get_Current_m3259181373_AdjustorThunk
o0g:_strtox_545
xve:_InternalEnumerator_1_get_Current_m789289033_gshared
ISc:_CurrentSystemTimeZone_GetTimeZoneData_m2086117940
Fdb:__ZN12MeshRenderer18CalculateLocalAABBER4AABBRKS_RK4Mesh
Rlf:_X509CertificateCollection_GetEnumerator_m3994741635
D5e:__Z242RuntimeInvoker_Boolean_t3825574718_RuntimeObject_RuntimeObject_RuntimeObject_SByte_t454417549_DateTimeU26_t3448131235_DateTimeOffsetU26_t3212986406_RuntimeObject_Int32_t2071877448_SByte_t454417549_BooleanU26_t3168250738_BooleanU26_t3168250738PFvvEPK10MethodInfoPvPS4_
A4c:_Guid_ToString_m3927110175
jZa:__ZN21UnityDefaultAllocatorI17LowLevelAllocatorE8AllocateEji
ZJd:_IPv6Address_AsIPv4Int_m3565745471
ERb:__Z43AssetBundleRequest_Get_Custom_PropAllAssetsP12Il2CppObject
T8:__ZN10UnityScene10ClearRootsEv
fza:__ZN12HandlerChain10AtomicMoveER13FileEntryDataS1_
R5d:_MethodBuilder_GetCustomAttributes_m923430117
CJ:__ZN20SpeedTreeWindManager6UpdateEf
_if:_Literal_GetWidth_m1285678191
LPc:_Decimal_ThrowAtPos_m3318712794
Spd:_RSAManaged_GetPaddedValue_m4394397
Ted:_UnexceptionalStreamWriter__ctor_m2209699189
Qz:__ZN13ProduceHelperI12AudioManagerLb0EE7ProduceE18MemLabelIdentifier18ObjectCreationMode
_cb:__ZN14CompressedMesh8TransferI19StreamedBinaryWriteILb0EEEEvRT_
U0d:_AssemblyFileVersionAttribute__ctor_m2026149866
CRb:__Z58AssetBundleCreateRequest_CUSTOM_DisableCompatibilityChecksP12Il2CppObject
m6d:_TypeBuilder_SetParent_m387557893
$ec:__ZZN14ParticleSystem15InitializeClassEvEN29FunctorImpl_208kDidModifyMesh4CallEPviR11MessageData
u0c:_DateTimeFormatInfo_GetEraName_m1437894363
kMe:_Array_InternalArray__Insert_TisLabelFixup_t4090909514_m3927736182_gshared
cPd:_X509KeyUsageExtension_Encode_m3100824560
v2a:__ZN24GenerateTypeTreeTransfer8TransferI21PlatformShaderDefinesEEvRT_PKc17TransferMetaFlags
Hhb:__ZNK15ResourceManager22GetTypeVirtualInternalEv
j7d:_TypeBuilder_GetGenericArguments_m3241780469
tp:__ZN13dynamic_arrayIhLj1EE18resize_initializedEjRKh12ResizePolicy
gQd:_Interpreter_PopulateGroup_m4098755954
kxd:_PrivateKeyInfo_DecodeRSA_m919734506
ATb:__ZNSt3__27__sort4IRNS_6__lessI11KeyframeTplIfES3_EEPS3_EEjT0_S7_S7_S7_T_
aYa:__ZL16MouseMoveHandleriPK20EmscriptenMouseEventPv
V3c:_GuidParser_Reset_m3389485794
A3f:_Enumerator_System_Collections_IEnumerator_get_Current_m1270503615_gshared
Sse:_InternalEnumerator_1_System_Collections_IEnumerator_get_Current_m3315293493_gshared
kGa:__ZN11HaloManager17RenderGeometryJobEP25DynamicVBOGeometryJobDataj
C7c:_Int64_Parse_m4214159959
Gve:_InternalEnumerator_1_System_Collections_IEnumerator_get_Current_m4023948615_gshared
Vdh:_emscripten_glBlendEquation__wrapper
cEg:__ZN15dense_hashtableINSt3__24pairIK10KeyWrapperIP11Il2CppClassES4_EES5_N6il2cpp8metadata16SZArrayClassHashEN14dense_hash_mapIS5_S4_SA_NS5_14EqualsComparerINS9_19SZArrayClassCompareEEENS0_9allocatorIS7_EEE9SelectKeyESE_SG_E13set_empty_keyERKS7_
l3g:__ZNSt3__212basic_stringIcNS_11char_traitsIcEENS_9allocatorIcEEE6__initEPKcj
gj:_emscripten_set_fullscreenchange_callback
bpd:_KeyPairPersistence__IsUserProtected_m3417764903
EPd:_CategoryUtils_CategoryFromName_m226887453
KWc:_Decimal_op_Division_m1099836590
h9e:__Z72RuntimeInvoker_Boolean_t3825574718_Single_t2076509932_Single_t2076509932PFvvEPK10MethodInfoPvPS4_
lj:_emscripten_glDrawArrays
XAa:__ZZ23InitPlayerLoopCallbacksvEN43EarlyUpdateExecuteMainThreadJobsRegistrator7ForwardEv
kF:__ZN11UnityEngine15CloudWebService19SessionEventManagerC2Ev
Y9c:_File_Open_m1543461971
nlb:__ZN10MonoScript8TransferI19StreamedBinaryWriteILb0EEEEvRT_
JLc:_Hashtable_KeyEquals_m1433874944
Xmc:__ZN13RuntimeStaticI14dynamic_bitsetLb0EE16StaticInitializeEPv
XV:__ZNSt3__222__merge_move_constructIRNS_4lessIN4core12basic_stringIcNS2_20StringStorageDefaultIcEEEEEENS_11__wrap_iterIPS6_EESB_EEvT0_SC_T1_SD_PNS_15iterator_traitsISC_E10value_typeET_
tSb:__Z41Register_UnityEngine_Camera_get_eventMaskv
yA:__ZL19CleanupModule_Audiov
Rcg:_GenericComparer_1_Compare_m2516380588_gshared
Hug:__ZN6il2cpp2os4File10DeleteFileERKNSt3__212basic_stringIcNS2_11char_traitsIcEENS2_9allocatorIcEEEEPi
WXb:__ZN9JSONWrite8TransferI23ManagedObjectTransfererEEvRT_PKc17TransferMetaFlags
Zqg:__ZN6il2cpp6icalls8mscorlib6System8MonoType8GetFieldEP20Il2CppReflectionTypeP12Il2CppStringi
ing:__ZN15dense_hashtableINSt3__24pairIK10KeyWrapperIN6il2cpp5utils13dynamic_arrayIPK10Il2CppTypeLj4EEEEPFvvEEESA_NS3_8metadata19Il2CppSignatureHashEN14dense_hash_mapISA_SD_SG_NSA_14EqualsComparerINSF_22Il2CppSignatureCompareEEENS0_9allocatorISE_EEE9SelectKeyESK_SM_E5clearEv
ipf:_AudioClipPlayable__ctor_m1273139759_AdjustorThunk
Aah:_emscripten_glVertexAttrib3fv__wrapper
ojb:__ZN30RuntimeInitializeOnLoadManager15ClassMethodInfo8TransferI18StreamedBinaryReadILb0EEEEvRT_
Rnf:_X509Crl_VerifySignature_m25189948
YHe:_PlayableOutputHandle_IsPlayableOutputOfType_TisScriptPlayableOutput_t1666207618_m804587587_AdjustorThunk
tYd:_RuntimeFieldHandle_Equals_m1202966418_AdjustorThunk
_hb:__ZN14SafeBinaryRead21TransferSTLStyleArrayINSt3__26vectorI4PPtrI6ObjectE13stl_allocatorIS5_L18MemLabelIdentifier51ELi16EEEEEEvRT_17TransferMetaFlags
VWg:_GC_generic_malloc
bIb:__ZNSt3__26vectorI16MessageForwarder13stl_allocatorIS1_L18MemLabelIdentifier6ELi8EEE6resizeEj
uta:__Z19GetVertexFormatSize12VertexFormat
hab:__ZN24GenerateTypeTreeTransfer8TransferINSt3__26vectorI13dynamic_arrayI8Vector2fLj4EENS1_9allocatorIS5_EEEEEEvRT_PKc17TransferMetaFlags
rze:_Enumerator_System_Collections_IDictionaryEnumerator_get_Value_m120250090_gshared
dW:__ZN15dense_hashtableINSt3__24pairIKN4core12basic_stringIcNS2_20StringStorageDefaultIcEEEE13dynamic_arrayI4PPtrI6SpriteELj4EEEES6_20StringHash32FunctionIS6_EN14dense_hash_mapIS6_SC_SF_NS0_8equal_toIS6_EE13stl_allocatorISD_L18MemLabelIdentifier79ELi16EEE9SelectKeyESI_SL_E9set_valueEPSD_RKSD_
Zef:_MatchCollection_TryToGet_m2938913145
keh:_emscripten_glIsTexture__wrapper
_8f:_Ray_ToString_m2019179238_AdjustorThunk
I4g:_llvm_bswap_i32
xnc:_KeyedHashAlgorithm_get_Key_m3672929432
Iia:__ZN9GfxDevice25ReleaseAsyncCommandHeaderEPN21GfxDeviceAsyncCommand3ArgE
mwd:_MD2Managed_HashCore_m248147901
Gjb:__ZN13MonoBehaviour23VirtualRedirectTransferER17RemapPPtrTransfer
ita:__ZN21UniformBufferTFMethod20IsBoneCountSupportedEi
Obd:_MemoryStream__ctor_m4073175573
S2:__ZN6Shader27MarkShaderStateNotSupportedEPKS_
Kse:_InternalEnumerator_1_System_Collections_IEnumerator_get_Current_m3600601141_AdjustorThunk
X7b:__Z9UpdateTplIL27ParticleSystemCurveEvalMode4EEvRK11MinMaxCurveR23ParticleSystemParticlesjjj
XSa:__ZN10GameObject21EnsureUniqueTransformEbb
Ksa:__ZN25TransformFeedbackSkinning8SkinMeshERK18VertexStreamSourceP9GfxBufferP17GPUSkinPoseBufferS4_ii17ShaderChannelMaskb
iJg:__ZN15dense_hashtableINSt3__24pairIK10KeyWrapperIP14Il2CppIUnknownEjEES5_N6il2cpp5utils11PointerHashIS3_EEN14dense_hash_mapIS5_jSB_NS5_14EqualsComparerINS0_8equal_toIS4_EEEENS0_9allocatorIS7_EEE9SelectKeyESG_SI_E12resize_deltaEjj
TWc:_Delegate_CreateDelegate_m2101460062
jEc:_Boolean_CompareTo_m3691698947
zFe:_DefaultComparer_Equals_m3262686272_gshared
qub:__Z22TransferField_NonArrayI19StreamedBinaryWriteILb0EE27Converter_SimpleNativeClassI8GUIStyleEEvRK23StaticTransferFieldInfoR31RuntimeSerializationCommandInfoRT0_
rdd:_StreamReader_ReadToEnd_m3871366821
jGe:_Array_InternalArray__ICollection_Contains_TisChar_t3454481338_m1444673620_gshared
oo:__Z17CalculateGlobalSM23TransformAccessReadOnlyRKN4math7_float4E
jl:_emscripten_glLoadIdentity
TUa:__ZNSt3__26vectorINS_4pairIN4core12basic_stringIcNS2_20StringStorageDefaultIcEEEEPK17MessageIdentifierEENS_9allocatorISA_EEE26__swap_out_circular_bufferERNS_14__split_bufferISA_RSC_EEPSA_
dOc:_Decimal_op_GreaterThan_m1625379433
cOa:__Z29CullShadowCastersWithoutUmbraR9IndexListRK17CullingParametersPK4AABBjj
Ko:__ZN4AABB8TransferI14SafeBinaryReadEEvRT_
BWf:__ZL86Object_t1021602117_CustomAttributesCacheGenerator_Object_FindObjectsOfType_m2121813744P21CustomAttributesCache
jwf:_PlayerConnection_ConnectedCallbackInternal_m2685675347
T4c:_Int16_System_IConvertible_ToDecimal_m2010889121_AdjustorThunk
IHe:_Array_InternalArray__ICollection_Remove_TisPlayableBinding_t2498078091_m2632165671_gshared
v7a:__ZN18StreamedBinaryReadILb0EE21TransferSTLStyleArrayI13dynamic_arrayI12LightmapDataLj4EEEEvRT_17TransferMetaFlags
$Tb:__Z49Register_UnityEngine_MonoBehaviour_StartCoroutinev
ZWa:__Z11MD5ToStringPh
Mfe:_UTF8Encoding_GetPreamble_m4179999478
bwf:_ConnectionChangeEvent__ctor_m616483304
Mjg:__ZN6il2cpp2vm5Class19GetArrayElementSizeEPK11Il2CppClass
voe:_ValueType_InternalEquals_m4068150072
sD:__ZN9JSONWrite8TransferIN4core12basic_stringIcNS1_20StringStorageDefaultIcEEEEEEvRT_PKc17TransferMetaFlags
sad:_FileNotFoundException_GetObjectData_m3405690481
u3g:__ZNSt3__212basic_stringIcNS_11char_traitsIcEENS_9allocatorIcEEE6resizeEjc
kRa:__ZN6Camera15SetOrthographicEb
gA:__ZN11AudioModule30GetOrCreateDSPFromCustomFilterEP17AudioCustomFilter
YCa:__ZN19AtomicPageAllocatorD2Ev
Gm:FUNCTION_TABLE_viiiiiiiiiiiiii
e3b:__ZN11NoiseModule16CheckConsistencyEv
KJg:__ZN6il2cpp6icalls8mscorlib6System13GlobalizationL20culture_lcid_locatorEPKvS5_
$4a:__ZNK12CubemapArray16ExtractImageImplEP14ImageReferenceNS0_8BlitModeEbi
_Tb:__Z63Register_UnityEngine_MonoBehaviour_StartCoroutine_Auto_Internalv
KPb:__ZN10systeminfo24GetSystemLanguageCultureEi
xtc:_SecurityElement_IsValidAttributeName_m2201790420
dhb:__ZN10VRSettings8TransferI14SafeBinaryReadEEvRT_
cle:_UInt16_System_IConvertible_ToDecimal_m984067306_AdjustorThunk
RKe:_Array_InternalArray__ICollection_Add_TisUInt16_t986882611_m2791161149_gshared
Jze:_Enumerator_Reset_m3115320746_gshared
N0c:_NumberFormatter_FormatDecimal_m1435371940
Pjd:_SimpleCollator_GetTailContraction_m1037943844
Boc:_RC2CryptoServiceProvider_CreateEncryptor_m252199767
zDa:__ZN22PerThreadPageAllocator14AcquireNewPageEj
Ez:__ZN24AudioScriptBufferManager15DidReloadDomainEv
cec:__Z9UpdateTplIL22MinMaxGradientEvalMode0EL12GradientMode0ELS1_0EEvRK23ParticleSystemParticlesP11ColorRGBA32RK14MinMaxGradientRK23OptimizedMinMaxGradientRK8Vector2f
iqf:_AudioClipPlayable_Seek_m2908742681
aKa:__ZN6Camera13ClearNoSkyboxEb
e7c:_Int64_System_IConvertible_ToInt64_m989981560_AdjustorThunk
j9f:_Rect_GetHashCode_m559954498
sof:_Application_CallLowMemory_m626389230
zmg:__ZNK15dense_hashtableI10KeyWrapperIPK17Il2CppGenericInstES4_N6il2cpp8metadata21Il2CppGenericInstHashEN14dense_hash_setIS4_S7_NS4_14EqualsComparerINS6_24Il2CppGenericInstCompareEEENSt3__29allocatorIS4_EEE8IdentityESB_SE_E12test_deletedEj
$Bc:_Array_combsort_m2486643569
qS:__ZNSt3__27__sort5IR17CompareInstanceIDPP6ObjectEEjT0_S6_S6_S6_S6_T_
S$a:__ZNSt3__26vectorI17SortingLayerEntryNS_9allocatorIS1_EEE12__move_rangeEPS1_S5_S5_
Xbe:_ResourceReader_ReadValueVer1_m3519678454
ysd:_SmallXmlParser_SkipWhitespaces_m2923234398
UVc:_Decimal_System_IConvertible_ToSingle_m1736019752_AdjustorThunk
Ooa:__ZN4crnd11crnd_deleteINS_13prefix_coding14decoder_tablesEEEvPT_
iJ:__ZN10MemoryPoolD2Ev
FQe:_GCHandle__ctor_m2952050298_AdjustorThunk
kac:__ZNK11NoiseModule14CalculateNoiseILi2ELb1ELb1EEEvR23ParticleSystemParticlesRK27ParticleSystemReadOnlyStatejjRKN4math7_float4E
ZEd:_SslClientStream_get_SelectedClientCertificate_m1580018944
YOc:_DateTime_FromTicks_m75527956
Jnd:_KeyGeneratedEventHandler_Invoke_m4220935979
Vfe:_CompressedStack_Capture_m179370023
vXc:_DebuggerTypeProxyAttribute__ctor_m3082078467
e2g:___mmap
YQb:__ZN9Scripting26RaiseArgumentNullExceptionEPKc
oI:__ZL18InternalLogConsolePKcz
d1g:_lseek
XGd:_AuthorityKeyIdentifierExtension_Decode_m1941074339
fx:__ZN11AudioSource16UpdatePauseStateEv
aUb:__Z48Register_UnityEngine_MonoBehaviour_StopCoroutinev
$Id:_RemoteCertificateValidationCallback_Invoke_m2237177542
T_g:__ZN6il2cpp5utils25NativeDelegateMethodCache17AddNativeDelegateEPFvvEPK10MethodInfo
dId:_NameObjectCollectionBase_BaseAdd_m964300824
mGe:_Array_InternalArray__ICollection_Contains_TisKeyValuePair_2_t1174980068_m650645929_gshared
lJa:__ZN27DeviceViewProjMatricesStateD2Ev
Gpc:_RNGCryptoServiceProvider_RngOpen_m2238023214
R1d:_CustomAttributeData_GetCustomAttributes_m4124612360
krb:__Z18Transfer_BlittableI24GenerateTypeTreeTransferLb0E8Vector3fEvRK29SerializationCommandArgumentsR31RuntimeSerializationCommandInfo
cFg:__ZN6il2cpp2vm6Thread16RequestInterruptEP12Il2CppThread
OGd:_TlsStream_get_Position_m3551173234
eTe:_LeaseManager_SetPollTime_m3137304074
TKc:_Hashtable_CalcPrime_m1835281409
f:HEAPU32
yca:__ZN6prcoreL10inner_flipILj2EEEvPhS1_j
o6d:_TypeBuilder_has_ctor_method_m3449702467
fYb:__ZN9JSONWrite8TransferIbEEvRT_PKc17TransferMetaFlags
vBc:_Array_CreateInstance_m679102425
GYa:__ZN12TLSAllocatorI14StackAllocatorED0Ev
cgb:__ZN11TimeManager16CheckConsistencyEv
GGa:__ZN21GfxDeviceAsyncCommand10ArgScratch15ThreadedCleanupEv
zjd:_MSCompatUnicodeTable_IsJapaneseSmallLetter_m2541532635
Utd:_BigInteger_GenerateRandom_m1878468830
Lqb:__ZN12NativeBufferI27Converter_UnityEngineObjectE15SetupForWritingER9ArrayInfo
Lid:_ObsoleteAttribute__ctor_m834417715
Nd:_glTexImage3D
vA:__Z20RegisterModule_Audiov
zzd:_TlsCipherSuite__ctor_m2983563913
S3:__ZNSt3__26vectorINS_4pairI11ShaderTagIDS2_EENS_9allocatorIS3_EEE6insertENS_11__wrap_iterIPKS3_EERS8_
Wd:_JS_SystemInfo_GetCurrentCanvasWidth
BQb:__ZL34GetComponentsImplementationRecurseILb1ELi0ELi1EEbR10GameObjectbRK17CompareParametersRK39GetComponentsImplementation_ReturnValue
qHg:__ZN6il2cpp2vm14PlatformInvoke30MarshalCSharpStringToCppStringEP12Il2CppString
SPa:__ZN8Renderer10AddToSceneEv
whb:__ZN10VRSettings8TransferI18StreamedBinaryReadILb0EEEEvRT_
sue:_InternalEnumerator_1_System_Collections_IEnumerator_get_Current_m1322273508_AdjustorThunk
N0b:__ZN31CollisionModulePropertyBindings13AddPropertiesER10vector_mapIi22ParticleModulePropertyNSt3__24lessIiEENS2_9allocatorINS2_4pairIiS1_EEEEE
Ezc:_DecoderFallbackException__ctor_m3081822699
F7c:_Int64_TryParse_m3093198325
S7e:__Z145RuntimeInvoker_Void_t1841601450_RuntimeObject_RuntimeObject_RuntimeObject_Int32_t2071877448_Int32_t2071877448_Int32_t2071877448_Int32_t2071877448PFvvEPK10MethodInfoPvPS4_
wub:__Z19TransferField_ArrayI19StreamedBinaryWriteILb0EE27Converter_SimpleNativeClassI8GradientEEvRK23StaticTransferFieldInfoR31RuntimeSerializationCommandInfoRT0_
nad:_FileLoadException_ToString_m319701103
Fcd:_NullStream_Seek_m1809916110
RZb:__Z18Transfer_BlittableI8JSONReadLb0E12PropertyNameEvRK29SerializationCommandArgumentsR31RuntimeSerializationCommandInfo
PWc:_Delegate_SetMulticastInvoke_m361277268
mAc:_EncoderReplacementFallbackBuffer_get_Remaining_m2777488845
vab:__ZN7SubMesh8TransferI18StreamedBinaryReadILb0EEEEvRT_
Efe:_UTF8Encoding_GetCharCount_m3557355060
Yte:_InternalEnumerator_1_System_Collections_IEnumerator_get_Current_m127456009_gshared
Ae:_emscripten_glIsEnabled
mwb:__ZN18StreamedBinaryReadILb1EE21TransferSTLStyleArrayI13dynamic_arrayIdLj8EEEEvRT_17TransferMetaFlags
OZd:_CodeAccessPermission_Element_m806857876
FM:__Z29scripting_class_instance_size17ScriptingClassPtr
zFd:_SslHandshakeHash_initializePad_m4132246594
dOd:_X509CertificateCollection_get_Item_m848456018
MF:__ZN11UnityEngine15CloudWebService19SessionEventManager26ProcessEventQueueJobStaticEPv
uK:__ZN13RuntimeStaticINSt3__23mapINS0_4pairIPcS3_EEPFbPvR14SafeBinaryReadE20smaller_tstring_pairIPKcENS0_9allocatorINS2_IKS4_S9_EEEEEELb0EE13StaticDestroyES5_
Phf:_AnchorInfo_get_IsUnknownWidth_m3747592836
Jeb:__ZL19SpriteMeshExtractorPv17ShaderChannelMaskiR11MeshBuffersR16DrawBuffersRangeRiS5_
h1b:__ZN27ForceModulePropertyBindings13GetFloatValueERK14ParticleSystemi
W0e:__Z127RuntimeInvoker_Void_t1841601450_IntPtr_t_Int32_t2071877448_SByte_t454417549_Int32_t2071877448_SByte_t454417549_SByte_t454417549PFvvEPK10MethodInfoPvPS4_
_Z:__ZN10builtintex15GetWhiteTextureEv
YVd:_FormatterConverter_ToInt32_m1004171952
AAc:_Array_System_Collections_IList_set_Item_m4290470392
CUd:_RemotingConfiguration_RegisterActivatedServiceType_m4003543022
ZSe:_ConfigHandler_GetNotNull_m2454680251
udg:__ZL10rescale128PyS_Piiiii
us:__ZN9AudioClip7WWWSeekEPvjS0_
acf:__Z54RuntimeInvoker_Void_t1841601450_TableRange_t2011406615PFvvEPK10MethodInfoPvPS4_
PGe:_Array_InternalArray__ICollection_Contains_TisUInt32_t2149682021_m672455245_gshared
Lne:_UIntPtr_System_Runtime_Serialization_ISerializable_GetObjectData_m3481735378
nQ:__ZL32StaticInitializeIUnityInterfacesPv
fGa:__Z13CameraProjectRK8Vector3fRK10Matrix4x4fS4_RK5RectTIiERS_b
rjb:__ZN30RuntimeInitializeOnLoadManager15ClassMethodInfo8TransferI19StreamedBinaryWriteILb0EEEEvRT_
mR:__Z22CreateMutexLockedStackv
vRd:_IntervalCollection_get_Item_m1667788970
pga:__ZNSt3__27__sort5IRNS_4lessIN22BuiltinResourceManager8ResourceEEEPS3_EEjT0_S7_S7_S7_S7_T_
qde:_Latin1Encoding_GetByteCount_m2812921286
UBa:__ZN9ShaderLab11ShaderStateD2Ev
CVc:_Decimal_System_IConvertible_ToByte_m3432160840
Idc:__ZN22ParticleSystemRenderer23VirtualRedirectTransferER19StreamedBinaryWriteILb0EE
zNd:_X509Chain_GetAuthorityKeyIdentifier_m4246284366
jde:_UTF7Encoding__ctor_m1941256679
Qkb:__Z23TransferScriptingObjectI24GenerateTypeTreeTransferEvRT_18ScriptingObjectPtr17ScriptingClassPtrPK15MonoScriptCache
$Vd:_BinaryCommon__cctor_m3619690968
ynf:_X509Chain_FindCertificateRoot_m589250107
cub:__ZL17Transfer_GUIStyleI19StreamedBinaryWriteILb0EELb0EEvRK29SerializationCommandArgumentsR31RuntimeSerializationCommandInfo
V8f:_UnityString_Format_m2949645127
zKc:_Comparer_GetObjectData_m3370677985
Weg:_UnityEvent_4_GetDelegate_m2704961864_gshared
cza:__ZNK12HandlerChain6TargetERK13FileEntryDataR15FileSystemEntry
qce:_Encoding__ctor_m3985582722
VWd:_ObjectManager_RaiseOnDeserializingEvent_m1841526046
yyc:_String_CreateString_m560359261
U_d:_DSA_ToXmlString_m1014346120
p0g:___shlim
_qc:_SHA256Managed__ctor_m1410575277
Zdc:__ZN22ParticleSystemRenderer8TransferI18StreamedBinaryReadILb0EEEEvRT_
o$c:_CompareInfo_internal_index_managed_m859405335
FDc:_Boolean_System_IConvertible_ToDateTime_m2613818037_AdjustorThunk
Hpg:__ZNSt3__211__tree_nextIPNS_16__tree_node_baseIPvEEEET_S5_
iLg:__ZN15dense_hashtableI10KeyWrapperIP18Il2CppGenericClassES3_N6il2cpp8metadata22Il2CppGenericClassHashEN14dense_hash_setIS3_S6_NS3_14EqualsComparerINS5_25Il2CppGenericClassCompareEEENSt3__29allocatorIS3_EEE8IdentityESA_SD_E14squash_deletedEv
j8:__ZN6prcoreL17RemapGenericFloatI17TexFormatRGBAHalf17TexFormatRGBFloatEEvPKNS_9InnerInfoE
lWd:_BinaryFormatter_NoCheckDeserialize_m1968202401
d0b:__ZN9rapidjson12PrettyWriterI16TempBufferWriterNS_4UTF8IcEES3_13JSONAllocatorE10StartArrayEv
Bmg:__ZNSt3__26__sortIRN6il2cpp5utils11collections13ArrayValueMapIPK10Il2CppType17Il2CppInteropData26InteropDataToTypeConverterNS1_8metadata14Il2CppTypeLessENSA_26Il2CppTypeEqualityComparerEE12SortComparerEPS8_EEvT0_SH_T_
zlb:__ZN11PreloadDataD2Ev
mmc:__ZN15DownloadHandler14ProcessHeadersERK9HeaderMap
Bb:invoke_iifi
CDf:__ZL79Hashtable_t909839986_CustomAttributesCacheGenerator_Hashtable__ctor_m3742489710P21CustomAttributesCache
wvf:_Mathf_Abs_m1942863256
OFe:_EqualityComparer_1_System_Collections_IEqualityComparer_Equals_m1565968086_gshared
OMe:_Array_InternalArray__set_Item_TisSlot_t2022531261_m3811041838_gshared
Mda:__ZN15SharedLightData15UpdateTransformERK9Transform
Xoc:_RijndaelTransform__cctor_m1393306207
Fke:_Type_MakeGenericType_m973683242
w_g:__ZN6il2cpp2vm9LastError31InitializeLastErrorThreadStaticEv
GJb:__ZN13ProduceHelperI13RenderTextureLb0EE7ProduceE18MemLabelIdentifier18ObjectCreationMode
O7c:_Int64_ToString_m2785525583
Tqc:_SHA1Managed__ctor_m2252382529
u4d:_FieldBuilder_GetCustomAttributes_m291168515
Oqf:_AudioPlayableOutput_INTERNAL_CALL_InternalSetTarget_m3274611424
E9d:_MonoGenericCMethod__ctor_m2520666358
Bg:_JS_SystemInfo_GetCurrentCanvasHeight
IF:__ZN19CloudServiceHandler22ResetNetworkRetryIndexEv
Cre:_InternalEnumerator_1_System_Collections_IEnumerator_get_Current_m1313308902_gshared
GSd:_ReturnMessage_get_OutArgs_m299904174
H3:__ZNK8Material22GetTypeVirtualInternalEv
Qpd:_RSAManaged_get_PublicOnly_m2603845138
SVc:_Decimal_System_IConvertible_ToSByte_m3745141000_AdjustorThunk
xQg:__ZN6il2cpp2gc16GarbageCollector11GetWeakLinkEPPv
Xgd:_MonoType_GetMethods_m353342170
cXe:__Z108RuntimeInvoker_Boolean_t3825574718_SByte_t454417549_RuntimeObject_Int32_t2071877448_ExceptionU26_t1467204777PFvvEPK10MethodInfoPvPS4_
GOg:__GLOBAL__sub_I_Console_cpp
$7:__ZN6prcoreL17RemapGenericFloatI14TexFormatRHalf17TexFormatRGBAHalfEEvPKNS_9InnerInfoE
Bsg:__ZN6il2cpp2vm7Runtime11InvokeArrayEPK10MethodInfoPvP11Il2CppArrayPP15Il2CppException
m2c:_GregorianCalendar_get_Eras_m4010603022
nZc:_Enum_System_IConvertible_ToUInt16_m1001858842
rDe:_Dictionary_2_make_pair_m394533803_gshared
ur:__ZN9AudioClip23VirtualRedirectTransferER14SafeBinaryRead
Kra:__ZN4gles20EnsureTextureCreatedEP7ApiGLESP17RenderSurfaceGLES
XGa:__ZN15ReplacementPass13PrepareSubsetEjRK10RenderNodeifRK17ShaderReplaceData
TVc:_Decimal_System_IConvertible_ToSingle_m1736019752
pw:__Z32AudioMeasurement_GetTimeConstantff
VOg:__ZN6il2cpp2os6Thread10RunWrapperEPv
_Qg:__ZN6il2cpp8metadata11FieldLayout12LayoutFieldsEjjjRKNSt3__26vectorIPK10Il2CppTypeNS2_9allocatorIS6_EEEERNS1_15FieldLayoutDataE
lYf:__ZL54ContextMenu_t2283362202_CustomAttributesCacheGeneratorP21CustomAttributesCache
FOa:__ZL27PrepareSceneNodesJobCombineP25ScheduleSceneNodesJobData
nbd:_Stream_EndWrite_m263497992
LGc:_Char_Parse_m2121403806
WAd:_ClientSessionCache_SetContextInCache_m907788136
OS:__ZN18AsyncUploadManager13StaticDestroyEPv
G3d:_EnumBuilder_GetConstructorImpl_m331611313
Ozb:__ZN6Shader7SetNameEPKc
CV:__ZN14dense_hash_mapIN4core12basic_stringIcNS0_20StringStorageDefaultIcEEEE13dynamic_arrayI4PPtrI6SpriteELj4EE20StringHash32FunctionIS4_ENSt3__28equal_toIS4_EE13stl_allocatorINSC_4pairIKS4_S9_EEL18MemLabelIdentifier79ELi16EEE13set_empty_keyERSH_
_Ta:__ZN19CustomRenderTexture22HandleBoundaryWrappingERKNS_14UpdateZoneInfoEj
$of:_AsyncOperation_set_allowSceneActivation_m3988498951
Dpg:__ZN6il2cpp2vm13MetadataCache32GenerateCustomAttributeTypeCacheEi
sOd:_X509Chain__cctor_m826131835
yCc:_ArrayTypeMismatchException__ctor_m1923871345
p_d:_CspParameters__ctor_m3051314030
BNd:_X509ChainElement_Set_m2634474339
BDc:_Boolean_System_IConvertible_ToByte_m1443044213_AdjustorThunk
Wh:_glClearDepthf
uJb:__ZN19SkinnedMeshRenderer7GetMeshEv
EFb:__ZN19RuntimeSceneManager14GetActiveSceneEv
_rg:__ZN6il2cpp6icalls8mscorlib6SystemL8IsStaticEPK9EventInfo
VKd:_WebRequest__ctor_m1537196628
qKd:_ServicePointManager_get_CertificatePolicy_m345233313
F1a:__ZN16GraphicsSettings10SmartResetEv
jOb:__ZN19StreamedBinaryWriteILb0EE4InitE24TransferInstructionFlags20BuildTargetSelection
iEd:_RecordProtocol_MapV2CipherCode_m4064211604
Wyc:_ASCIIEncoding_GetByteCount_m2696039881
XDd:_ReceiveRecordAsyncResult_SetComplete_m2441107665
Z2a:__ZN20SphericalHarmonicsL28TransferI19StreamedBinaryWriteILb0EEEEvRT_
kdb:__ZN4Mesh14UploadMeshDataEb
Ive:_InternalEnumerator_1_System_Collections_IEnumerator_get_Current_m4023948615_AdjustorThunk
fbd:_FileStream_BeginWrite_m3895959548
std:_ArgIterator_Equals_m2415994310
M8e:__Z85RuntimeInvoker_Char_t3454481338_RuntimeObject_Int32U26_t455636984_CharU26_t1894467670PFvvEPK10MethodInfoPvPS4_
KJb:__ZN14RenderSettings12CleanupClassEv
kpa:__ZN18AsyncUploadManager15DoDeCruncherJobEP26FileAssetUploadInstruction
_ja:__ZN9GfxDevice15ImmediateNormalEfff
qAc:_EncoderReplacementFallbackBuffer_GetNextChar_m1811006007
KSa:__ZN15SerializeTraitsI13dynamic_arrayIN10GameObject13ComponentPairELj4EEE19ResizeSTLStyleArrayERS3_i18MemLabelIdentifier
SEe:_Dictionary_2_Add_m1708621268_gshared
tsb:__ZN13GUIStyleState8TransferI24GenerateTypeTreeTransferEEvRT_
yO:__ZN20dynamic_block_vectorI14FileIdentifierE22push_back_no_constructEv
fca:__ZN9Texture3D23VirtualRedirectTransferER14SafeBinaryRead
bee:_StringBuilder_Append_m1462406979
vBb:__ZNSt3__26vectorIN9ShaderLab20SerializedSubProgram16TextureParameterENS_9allocatorIS3_EEE8__appendEj
y6a:__ZN9Texture2D13UploadTextureEi
Vce:_Type_GetType_m773255995
Vqa:__ZN7ApiGLES9MapBufferEjN2gl12BufferTargetEllj
Lv:__ZN4FMOD6System19setSoftwareChannelsEi
cNe:_Array_InternalArray__set_Item_TisResourceCacheItem_t333236149_m2074358118_gshared
PAe:_Enumerator_MoveNext_m3349738440_gshared
H4g:_bitshift64Lshr
dMd:_X500DistinguishedName_DecodeRawData_m3640767187
gEc:_Boolean_System_IConvertible_ToUInt64_m3594533761
qHb:__Z13RegisterClassI30RuntimeInitializeOnLoadManagerEvv
W4f:_Collection_1_set_Item_m4170293313_gshared
dld:_BigInteger_get_Rng_m1268152318
Y5g:dynCall_viiiii
X$e:__Z90RuntimeInvoker_Boolean_t3825574718_RuntimeObject_RuntimeObject_RuntimeObject_RuntimeObjectPFvvEPK10MethodInfoPvPS4_
t8b:__ZN14ParticleSystem12StartModulesER24ParticleSystemUpdateDataRK27ParticleSystemEmissionStatebRK8Vector3fRK10Matrix4x4fR23ParticleSystemParticlesjffjfjRjb
c9d:_MonoEvent_IsDefined_m3151861274
cAd:_TlsStream_WriteInt24_m1660453494
QRe:_ChannelData__ctor_m2081039517
Hz:__ZNK12AudioManager15GetDSPBlockSizeEv
yib:__ZNK17IAnimationBinding30CurveAttributeToSerializedPathERKN11UnityEngine9Animation10BoundCurveE
JMg:__ZN6il2cpp2gc16GarbageCollector14GetOrCreateCCWEP12Il2CppObjectRK10Il2CppGuid
NKg:__ZN6il2cpp2vm5Image21FromTypeNameParseInfoEPK11Il2CppImageRKNS0_17TypeNameParseInfoEb
dna:__ZN17BufferManagerGLES13AcquireBufferEjN14DataBufferGLES11BufferUsageEb
BNc:_Console_OpenStandardError_m3676373108
gfd:_UnmanagedMemoryStream_SetLength_m1805321486
k3b:__ZN18ColorBySpeedModule16CheckConsistencyEv
gBd:_Context_get_ProtocolNegotiated_m624488778
sCc:_SimpleEnumerator_MoveNext_m1696906961
Akc:__ZN16UnityAdsSettingsD0Ev
VBd:_Context_StartSwitchingSecurityParameters_m373522596
Oae:_MonoProperty_GetRequiredCustomModifiers_m576853384
Zna:__ZNK7ApiGLES10DebugLabelEN2gl10ObjectTypeEjPKc
DJe:_Array_InternalArray__IndexOf_TisInt16_t4041245914_m1619355230_gshared
r4g:__ZNK10__cxxabiv121__vmi_class_type_info16search_below_dstEPNS_19__dynamic_cast_infoEPKvib
V6c:_Int64_System_IConvertible_ToDateTime_m1002280174
vOc:_Convert_ToByte_m9159597
snf:_X509Store_BuildCertificatesCollection_m4224672591
lFb:__ZN9Transform16CheckConsistencyEv
S0c:_NumberFormatter_FormatPercent_m776769918
utg:_il2cpp_class_has_attribute
Ohe:_Scheduler_ShrinkIfNeeded_m2186823111
_xd:_Alert_get_IsCloseNotify_m577852330
$M:__Z27FindOrCreateMonoScriptCache17ScriptingClassPtr22InitScriptingCacheTypeP6Objecti
xxb:__Z18Transfer_BlittableI18StreamedBinaryReadILb0EELb1E8Vector3fEvRK29SerializationCommandArgumentsR31RuntimeSerializationCommandInfo
R5g:dynCall_viiiiiiiiii
qN:__Z35scripting_method_get_argument_count18ScriptingMethodPtr
cfa:__ZN18AssetBundleManager18SortPreloadObjectsER13dynamic_arrayIiLj4EEb
_ke:_UInt16_System_IConvertible_ToChar_m4055364664_AdjustorThunk
edc:__ZN12LightsModuleD0Ev
hxf:_Playable_GetPlayableType_m2389123558
QEc:_Byte_System_IConvertible_ToDouble_m4224320007
JOa:__ZL21CullDynamicObjectsJobP14CullingJobDataj
OJd:_IPAddress_ToString_m1462985652
GOc:_Convert_ToDateTime_m261774113
FFb:__ZN9TransformD2Ev
S7d:_MethodBase_GetMethodFromHandleNoGenericCheck_m4274264088
tAe:_Enumerator_get_CurrentKey_m1408186928_AdjustorThunk
T_a:__ZN19StreamedBinaryWriteILb0EE21TransferSTLStyleArrayINSt3__26vectorI14ConstantStringNS2_9allocatorIS4_EEEEEEvRT_17TransferMetaFlags
awb:__ZN18StreamedBinaryReadILb1EE21TransferSTLStyleArrayI31ArrayOfManagedObjectsTransfererEEvRT_17TransferMetaFlags
S8b:__Z22EvaluateRandomGradientIL12GradientMode0ELS0_0EEN4math4pix4ERK14MinMaxGradientRKNS1_7_float4ES8_
$oe:_WeakReference_get_Target_m1672141897
Kld:_Kernel_DwordDivMod_m4066997639
DD:__ZN11UnityEngine15CloudWebService16SessionContainer25GetSessionHeaderJsonArrayERKN4core12basic_stringIcNS2_20StringStorageDefaultIcEEEERNS2_13StringBuilderE
Ksc:_X509Certificate_GetCertHash_m2299453268
_nc:_MD5CryptoServiceProvider__ctor_m457716966
lGe:_Array_InternalArray__ICollection_Contains_TisKeyValuePair_2_t888819835_m3819112676_gshared
AQc:_Decimal_s64_m2965457432
NQd:_IntStack_set_Count_m2324758988_AdjustorThunk
Mmc:__ZN22UnityWebRequestManager21CreateUnityWebRequestEv
Fu:__ZN4FMOD7Channel11getUserDataEPPv
a4b:__ZN14VelocityModule8TransferI24GenerateTypeTreeTransferEEvRT_
xl:_JS_Sound_SetPitch
iug:_il2cpp_runtime_invoke_convert_args
T_b:__Z19TransferField_ArrayI8JSONRead27Converter_SimpleNativeClassI10RectOffsetEEvRK23StaticTransferFieldInfoR31RuntimeSerializationCommandInfoRT0_
dAd:_Context_get_SecurityProtocol_m1600902905
lIg:__ZN6il2cpp6icalls8mscorlib6System2IO6MonoIO11GetFileStatEP12Il2CppStringPNS3_8FileStatEPi
Jka:__ZN9GfxDevice33InsertCustomMarkerCallbackAndDataEPFviPvEiS0_j
R5e:__Z99RuntimeInvoker_RuntimeObject_DateTime_t693205669_Nullable_1_t1693325264_RuntimeObject_RuntimeObjectPFvvEPK10MethodInfoPvPS4_
ZGa:__ZNK9ShaderLab9IntShader6GetTagE11ShaderTagIDb
fMa:__Z25CalculateShadowCasterCullbPK5PlaneRK10Matrix4x4fRK8Vector3fff9LightTypeS7_R16ShadowCasterCullPKb
Qsg:_il2cpp_get_corlib
N$d:_HMAC_HashCore_m1869699062
w0d:_Assembly_GetTypes_m1317253146
f5c:_Int16_System_IConvertible_ToType_m2901377575_AdjustorThunk
g7c:_Int64_System_IConvertible_ToSByte_m253213816_AdjustorThunk
_9c:_FileStream__ctor_m3815606687
WUg:_GC_freehblk
w0c:_NumberFormatter_NumberToString_m668979517
NQb:__ZN9Scripting35DestroyObjectFromScriptingImmediateEP6Objectb
EPa:__ZNK6Camera48AreVRStereoViewMatricesWithinSingleCullToleranceEv
STd:_RemotingServices_GetRemoteObject_m3663391550
hB:__Z64AudioMixerPlayable_CUSTOM_INTERNAL_CALL_SetAutoNormalizeInternalR9HPlayableh
u3f:_Queue_1_Peek_m1224538505_gshared
L1e:__Z105RuntimeInvoker_RuntimeObject_Int32_t2071877448_RuntimeObject_RuntimeObject_RuntimeObject_SByte_t454417549PFvvEPK10MethodInfoPvPS4_
HJe:_Array_InternalArray__IndexOf_TisRuntimeObject_m2440219229_gshared
Pb:invoke_iiiiiiiiiiiiiii
cPg:__ZN6il2cpp2os6Thread33UnregisterCurrentThreadForCleanupEv
n3b:__ZN13TriggerModule8TransferI14SafeBinaryReadEEvRT_
meh:_emscripten_glIsRenderbuffer__wrapper
b9a:__ZN15QualitySettings8TransferI14SafeBinaryReadEEvRT_
lkg:__ZN14dense_hash_mapI10KeyWrapperIPK11Il2CppClassEPKcN6il2cpp5utils11PointerHashIS1_EENS4_14EqualsComparerINSt3__28equal_toIS3_EEEENSC_9allocatorINSC_4pairIKS4_S6_EEEEE13set_empty_keyERSI_
Tdd:_StringReader_CheckObjectDisposedException_m3099453260
xHd:_ListDictionary_System_Collections_IEnumerable_GetEnumerator_m2244736244
YKg:__ZNSt3__26vectorIN6il2cpp2vm5Image20EmbeddedResourceDataENS_9allocatorIS4_EEE21__push_back_slow_pathIS4_EEvOT_
lJe:_Array_IndexOf_TisCustomAttributeTypedArgument_t1498197914_m3666284377_gshared
kmd:_Kernel_AddSameSign_m2332657679
mM:__ZN14SerializedFile10ReadObjectEx18ObjectCreationModebPPK8TypeTreePbR6Object
W3f:_Collection_1_System_Collections_IList_IndexOf_m3460849589_gshared
tga:__ZN14dynamic_bitset6resizeEjb
QD:__ZN11UnityEngine15CloudWebService10RestClientINS0_23WebRequestRestHeaderMapEE7SetDataEPKhj
h6e:__Z66RuntimeInvoker_Void_t1841601450_Int32_t2071877448_Int64_t909078037PFvvEPK10MethodInfoPvPS4_
mkg:__ZN14dense_hash_mapI10KeyWrapperIPK11Il2CppClassEPKcN6il2cpp5utils11PointerHashIS1_EENS4_14EqualsComparerINSt3__28equal_toIS3_EEEENSC_9allocatorINSC_4pairIKS4_S6_EEEEE15set_deleted_keyERSI_
Hha:__ZN9GfxDevice34SetStencilRefWhenStencilWasSkippedEi
Nic:__ZN11UnityEngine7Connect13ConnectConfig20RestoreTimeoutConfigERK13dynamic_arrayIiLj4EEjRS3_
Ob:invoke_fi
TYg:__ZN6il2cpp6icalls8mscorlib6System10Reflection4Emit11TypeBuilder20create_runtime_classEP27Il2CppReflectionTypeBuilderS7_
nI:__ZL21InternalAssertConsolePKcz
Mb:invoke_ff
Xc:_emscripten_glVertexAttrib3f
gzg:__ZN30dense_hashtable_const_iteratorINSt3__24pairIK10KeyWrapperINS1_IPK11Il2CppImageP11Il2CppClassEEEjEES9_17ReflectionMapHashIS8_EN14dense_hash_mapIS9_jSD_NS9_14EqualsComparerINS0_8equal_toIS8_EEEENS0_9allocatorISB_EEE9SelectKeyESI_SK_EppEv
uGc:_Char_CompareTo_m3044885427
zse:_InternalEnumerator_1_get_Current_m198513457_gshared
Fed:_TextWriter_Write_m3244403173
R7g:_emscripten_glDrawRangeElements__wrapper
fog:__ZN15dense_hashtableINSt3__24pairIK10KeyWrapperIPK11Il2CppClassEPKcEES6_N6il2cpp5utils11PointerHashIS3_EEN14dense_hash_mapIS6_S9_SE_NS6_14EqualsComparerINS0_8equal_toIS5_EEEENS0_9allocatorISA_EEE9SelectKeyESJ_SL_E15insert_noresizeERKSA_
LFa:__Z28scripting_class_is_valuetype17ScriptingClassPtr
YXa:__ZNSt3__26__treeINS_12__value_typeIN4core12basic_stringIcNS2_20StringStorageDefaultIcEEEEPN16MemoryFileSystem4NodeEEENS_19__map_value_compareIS6_SA_NS_4lessIS6_EELb1EEE13stl_allocatorISA_L18MemLabelIdentifier54ELi16EEE7destroyEPNS_11__tree_nodeISA_PvEE
iYa:__ZNSt3__25dequeI10InputEventNS_9allocatorIS1_EEE19__add_back_capacityEv
IDa:__ZN13ComputeShader13SetValueParamERKN9ShaderLab16FastPropertyNameEiPKv
rdb:__ZN14BlendShapeDataD2Ev
ypg:__ZN6il2cpp2vm13MetadataCache25GetIndexForTypeDefinitionEPK11Il2CppClass
Zpa:__ZL18ProgramUniform3uivPK7ApiGLESjiihPKv
QCc:_Attribute_IsDefined_m1350918959
xae:_MonoProperty_get_DeclaringType_m4236036432
Gpa:__ZN5Image8SetImageEii13TextureFormatb
IN:__ZN17MessageIdentifier21GetRegisteredMessagesEv
ppe:_U3CGetEnumeratorU3Ec__Iterator0_System_Collections_IEnumerator_get_Current_m480171694_gshared
oG:__Z13RegisterClassI23CloudWebServicesManagerEvv
aQg:__ZN6il2cpp2vm5Array3NewEP11Il2CppClassi
PJg:__GLOBAL__sub_I_Image_cpp
Zvg:__ZN6il2cpp2vm4Type27GetGenericArgumentsInternalEP20Il2CppReflectionTypeb
r5:__ZNSt3__27__sort5IRPFbRKNS_4pairIN9ShaderLab16FastPropertyNameEfEES6_EPS4_EEjT0_SB_SB_SB_SB_T_
iRg:__ZN14dense_hash_mapI10KeyWrapperIPK19Il2CppGenericMethodEP10MethodInfoN6il2cpp8metadata23Il2CppGenericMethodHashENS4_14EqualsComparerINS8_26Il2CppGenericMethodCompareEEENSt3__29allocatorINSD_4pairIKS4_S6_EEEEE15set_deleted_keyERSG_
cpb:__Z29Transfer_Blittable_ArrayFieldI14SafeBinaryRead4AABBEvRT_R9ArrayInfoRK23StaticTransferFieldInfo
zBe:_Transform_1_Invoke_m2675095773_gshared
Lpd:_RSAManaged_remove_KeyGenerated_m452989252
D4a:__ZN18DelayedCallManager8ClearAllEv
eVa:__ZN17PersistentManagerC2E18MemLabelIdentifierii
Vof:_AsyncOperation_Finalize_m67522446
lwb:__Z22TransferField_NonArrayI18StreamedBinaryReadILb1EE27Converter_SimpleNativeClassI8GUIStyleEEvRK23StaticTransferFieldInfoR31RuntimeSerializationCommandInfoRT0_
Kd:_Mix_LoadWAV_RW
N9d:_MonoMethod_GetParameters_m1240674378
Tra:__Z13IsFloatFormat14GraphicsFormat
yag:_Enumerator__ctor_m147705785
TLg:__ZN6il2cpp2gcL12alloc_handleEPNS0_10HandleDataEP12Il2CppObjectb
zbh:_emscripten_glGetAttribLocation__wrapper
Teh:b98
Frd:_PKCS12_Encrypt_m1401341763
BO:__ZL16ReadTypeTreeImplILb1EEbR8TypeTreeRK16TypeTreeIteratorRPKhS6_i
ae:_glBlendEquationSeparate
Hl:_emscripten_glDeleteVertexArrays
ala:__ZN13GfxDeviceGLES17SetComputeUniformE12ObjectHandleI18ComputeProgram_TagPvER18ComputeShaderParamjPKv
cIg:__ZN6il2cpp6icalls8mscorlib6System2IO6MonoIO5CloseE12Il2CppIntPtrPi
Bdh:_emscripten_glValidateProgram__wrapper
Jod:_SmallXmlParser_ReadComment_m1117342068
he:_emscripten_glUniform3fv
MTb:__Z35MonoBehaviour_CUSTOM_StartCoroutineP12Il2CppObjectP12Il2CppStringS0_
e3:__ZN9ShaderLab7Program14RemoveVariantsERK13dynamic_arrayI16ShaderKeywordSetLj4EE
YGg:__ZN6il2cpp2vm9Exception20GetArgumentExceptionEPKcS3_
U$b:__Z29Transfer_Blittable_ArrayFieldI8JSONReadiEvRT_R9ArrayInfoRK23StaticTransferFieldInfo
kkf:_Uri_System_Runtime_Serialization_ISerializable_GetObjectData_m214698768
Lbh:_glDrawArrays__wrapper
nz:__ZN9AudioClip27IsFormatSupportedByPlatformERKN4core12basic_stringIcNS0_20StringStorageDefaultIcEEEE
ACb:__ZN9ShaderLab26SerializedShaderDependency8TransferI24GenerateTypeTreeTransferEEvRT_
dS:__ZN16LightmapSettings7RebuildEv
PYe:__Z92RuntimeInvoker_RuntimeObject_RuntimeObject_Int32_t2071877448_Int32_t2071877448_RuntimeObjectPFvvEPK10MethodInfoPvPS4_
S2g:_free
_Hd:_NameObjectCollectionBase_GetEnumerator_m646294968
Ihc:__ZN11UnityEngine7Connect14AppUpdateEventC2Ev
j1a:__ZN12ImageFilters17RemoveImageFilterERK11ImageFilter
Kka:__ZN9GfxDevice31InsertCustomBlitCallbackAndDataEPFviPvER33UnityRenderingExtCustomBlitParams
Gwa:__Z32AddPathRemapsForBuiltinResourcesRKN4core12basic_stringIcNS_20StringStorageDefaultIcEEEE
End:_DSAManaged_remove_KeyGenerated_m61544860
jqb:__ZL26Transfer_SimpleNativeClassI17RemapPPtrTransfer17AnimationCurveTplIfELb0EEvRK29SerializationCommandArgumentsR31RuntimeSerializationCommandInfo
elf:_KeyUsageExtension_Decode_m4115739726
Jl:_glDeleteTransformFeedbacks
Ne:_JS_WebRequest_Send
_Tg:__ZN6il2cpp2os4Time31GetTicks100NanosecondsMonotonicEv
XPg:__ZNSt3__26__treeINS_12basic_stringIcNS_11char_traitsIcEENS_9allocatorIcEEEENS_4lessIS6_EENS4_IS6_EEE16__construct_nodeIJRKS6_EEENS_10unique_ptrINS_11__tree_nodeIS6_PvEENS_22__tree_node_destructorINS4_ISH_EEEEEEDpOT_
nNc:_Stack_Clear_m771767447
l7c:_Int64_System_IConvertible_ToUInt16_m2638682734
tIf:__ZL102ChannelServices_t2007814595_CustomAttributesCacheGenerator_ChannelServices_RegisterChannel_m3832858065P21CustomAttributesCache
U3g:__ZNK10__cxxabiv117__class_type_info24process_found_base_classEPNS_19__dynamic_cast_infoEPvi
O7f:_Nullable_1_Equals_m1889119397_AdjustorThunk
Fpg:__ZN6il2cpp2vm13MetadataCache21GetFieldInfoFromIndexEj
vbc:__Z10StartDonutILN11ShapeModule14MultiModeValueE3EEvRS0_R23ParticleSystemParticlesRK19ParticleSystemStateRK27ParticleSystemEmissionStateRKN4math8float3x3ERKNSB_8float4x4Ejbj
Hx:__ZN17AudioClipPlayable13OnAdvanceTimeEd
TRg:__GLOBAL__sub_I_String_cpp
CHd:_ListDictionary_FindEntry_m432748847
pp:__ZNSt3__26vectorIN4core12basic_stringIcNS1_20StringStorageDefaultIcEEEENS_9allocatorIS5_EEE6assignINS_11__wrap_iterIPS5_EEEENS_9enable_ifIXaasr21__is_forward_iteratorIT_EE5valuesr16is_constructibleIS5_NS_15iterator_traitsISE_E9referenceEEE5valueEvE4typeESE_SE_
lrf:_AudioSettings_InvokeOnAudioConfigurationChanged_m3225073778
Lsg:_il2cpp_init
G$e:__Z176RuntimeInvoker_Boolean_t3825574718_RuntimeObject_Int32U26_t455636984_Int32_t2071877448_Int32_t2071877448_Int32_t2071877448_RuntimeObject_SByte_t454417549_ContextU26_t3131521781PFvvEPK10MethodInfoPvPS4_
wja:__ZN13GfxDeviceGLES22UploadTextureSubData2DE9TextureIDPKhiiiiii14GraphicsFormat
GN:__ZNK15dense_hashtableINSt3__24pairIKPKcPK4RTTIEES3_N11TypeManager23ConstCharPtrHashFunctorEN14dense_hash_mapIS3_S7_SA_NS9_19ConstCharPtrEqualToE13stl_allocatorIS8_L18MemLabelIdentifier6ELi16EEE9SelectKeyESC_SF_E23find_position_with_hashERS4_j
rJg:__ZN6il2cpp2vm3RCW23GetOrCreateFromIUnknownEP14Il2CppIUnknownP11Il2CppClass
pBg:__ZNK15dense_hashtableINSt3__24pairIK10KeyWrapperIPK14Il2CppAssemblyEPK22Il2CppMonoAssemblyNameEES6_N6il2cpp5utils11PointerHashIS4_EEN14dense_hash_mapIS6_SA_SF_NS6_14EqualsComparerINS0_8equal_toIS5_EEEENS0_9allocatorISB_EEE9SelectKeyESK_SM_E5beginEv
w_b:__ZN8JSONRead8TransferIxEEvRT_PKc17TransferMetaFlagsb
FJ:__ZN13SpeedTreeWind7AdvanceEbd
H6c:_Int32_TryParse_m2941352213
Pma:__ZN18GlslGpuProgramGLES19ApplyGpuProgramGLESERK20GpuProgramParametersPKh
uxb:__Z15Transfer_StringI18StreamedBinaryReadILb0EELb0EEvRK29SerializationCommandArgumentsR31RuntimeSerializationCommandInfo
sv:__ZN12SoundManagerC2Ev
A4b:__ZN11ShapeModule8TransferI17RemapPPtrTransferEEvRT_
rch:_emscripten_glGetUniformfv__wrapper
Sqa:__ZN14DataBufferGLES3MapEjjj
oxe:_InternalEnumerator_1_System_Collections_IEnumerator_get_Current_m771161214_gshared
zn:FUNCTION_TABLE_fidi
veb:__ZN14SpriteRenderer23VirtualRedirectTransferER19StreamedBinaryWriteILb0EE
oAe:_Enumerator_get_CurrentValue_m2645962456_gshared
Fch:_emscripten_glGetShaderiv__wrapper
CHb:__Z13RegisterClassI9TransformEvv
c5:__ZN18UnityPropertySheet11UnityTexEnv8TransferI19StreamedBinaryWriteILb0EEEEvRT_
eNb:__ZNK6Camera33CalculateFarPlaneWorldSpaceLengthEv
mce:_ResourceInfo_t3933049236_marshal_pinvoke_back
nXg:_GC_make_descriptor
ezg:__ZNK15dense_hashtableINSt3__24pairIK10KeyWrapperINS1_IPK11Il2CppImageP11Il2CppClassEEEjEES9_17ReflectionMapHashIS8_EN14dense_hash_mapIS9_jSD_NS9_14EqualsComparerINS0_8equal_toIS8_EEEENS0_9allocatorISB_EEE9SelectKeyESI_SK_E5beginEv
nKe:_Array_InternalArray__ICollection_Add_TisDictionaryEntry_t3048875398_m279246399_gshared
WRe:_ChannelServices_GetCurrentChannelInfo_m4080942430
Jt:__ZN4FMOD3DSP8getInputEiPPS0_PPNS_13DSPConnectionE
v_f:_KeyValuePair_2_ToString_m2882821022_AdjustorThunk
dO:__ZN20dynamic_block_vectorI14FileIdentifierE5clearEv
zdb:__ZN10MeshFilter23VirtualRedirectTransferER17RemapPPtrTransfer
t$d:_HashAlgorithm__ctor_m3777008390
Iy:__ZN13AudioPlayable25UpdateChannelGroupVisitorERK16AudioProcessData
ENg:__ZN6il2cpp2vm6Object16GetVirtualMethodEP12Il2CppObjectPK10MethodInfo
jrf:_PCMSetPositionCallback_BeginInvoke_m2507142524
r8d:_Module_GetCustomAttributes_m3581287913
$bh:_glUniform3uiv__wrapper
n5b:__ZN21RotationBySpeedModule8TransferI18StreamedBinaryReadILb0EEEEvRT_
q1d:_Binder_ConvertArgs_m2999223281
l4d:_TypeBuilder_IsDefined_m3186251655
GSe:_ConfigHandler_ValidatePath_m3188987489
RCe:_Dictionary_2_ToTValue_m1227484397_gshared
eid:_NumberFormatter_get_IntegerDigits_m3972411141
KWd:_ObjectReader_ReadValue_m2069333484
Wdb:__ZThn32_N12MeshRendererD1Ev
K$:__ZN13RenderTexture23VirtualRedirectTransferER19StreamedBinaryWriteILb0EE
lBe:_ShimEnumerator_MoveNext_m2728191736_gshared
r2b:__ZNK11ShapeModule25CalculateProceduralBoundsER10MinMaxAABBRK8Vector3f8Vector2f
_me:_UInt64_System_IConvertible_ToInt32_m930227577_AdjustorThunk
NSg:__ZN6il2cpp2vm13ComObjectBase17GetMarshalSizeMaxERK10Il2CppGuidPvjS5_jPj
QKb:__ZN9TransformC2E18MemLabelIdentifier18ObjectCreationMode
Q2g:_truncate
lDb:__ZN9ShaderLab27SerializedShaderVectorValue8TransferI18StreamedBinaryReadILb0EEEEvRT_
R7a:__ZN8Renderer21RendererBecameVisibleEv
m2g:___stpncpy
XI:__ZN10MemoryPool16StaticInitializeEPv
NU:__ZN11TypeManager21CleanupGlobalInstanceEv
Oke:_TypedReference_GetHashCode_m3498861551_AdjustorThunk
N:Math_atan
Svg:__ZNSt3__212basic_stringIcNS_11char_traitsIcEENS_9allocatorIcEEE6__initIPKcEENS_9enable_ifIXsr21__is_forward_iteratorIT_EE5valueEvE4typeESA_SA_
ws:__ZNK10SampleClip11GetResourceEv
zxa:__ZN4core12basic_stringIcNS_20StringStorageDefaultIcEEE6resizeEj
Y6b:__ZN14ParticleSystem8SimulateEfNS_13SimulateFlagsE
rgc:__GLOBAL__sub_I_CmEventProfiler_cpp
hvd:_PrimalityTests_GetSPPRounds_m873706010
z$a:__ZN17GlobalGameManager23VirtualRedirectTransferER24GenerateTypeTreeTransfer
ecd:_MemoryStream_ToArray_m547789004
yjc:__ZN19UnityConnectServiceD0Ev
rbd:_MonoIO_SetLength_m1019790894
aBa:__ZZ23InitPlayerLoopCallbacksvEN46EarlyUpdateUpdateAllUnityWebStreamsRegistrator7ForwardEv
Tne:_UIntPtr_ToString_m387842486
B1a:__ZNSt3__26vectorIfNS_9allocatorIfEEE8__appendEjRKf
ric:__ZN11UnityEngine15PlatformWrapper21GetCopyTextureSupportEv
fA:__ZN11AudioModule27IsFormatSupportedByPlatformEPKc
ZJc:_CollectionBase_get_InnerList_m44314156
oZc:_Enum_System_IConvertible_ToUInt32_m3575456858
X$a:__ZNSt3__26vectorI17SortingLayerEntryNS_9allocatorIS1_EEE6assignINS_11__wrap_iterIPS1_EEEENS_9enable_ifIXaasr21__is_forward_iteratorIT_EE5valuesr16is_constructibleIS1_NS_15iterator_traitsISA_E9referenceEEE5valueEvE4typeESA_SA_
eO:__ZN14SerializedFile14SerializedTypeD2Ev
URb:__Z48Register_UnityEngine_AsyncOperation_set_priorityv
M$b:__Z19TransferField_ArrayI8JSONRead16Converter_StringEvRK23StaticTransferFieldInfoR31RuntimeSerializationCommandInfoRT0_
Ing:__ZN15dense_hashtableINSt3__24pairIK10KeyWrapperIPK19Il2CppGenericMethodEPK26Il2CppGenericMethodIndicesEES6_N6il2cpp8metadata23Il2CppGenericMethodHashEN14dense_hash_mapIS6_SA_SE_NS6_14EqualsComparerINSD_26Il2CppGenericMethodCompareEEENS0_9allocatorISB_EEE9SelectKeyESI_SK_E6insertERKSB_
tWe:_MethodDictionary_Remove_m3965014965
a4a:__ZN15DirectorManager14ConnectionPool12SwitchBucketEP14ConnectionList
Yje:_Type_EqualsInternal_m266086934
xu:__ZN4FMOD7Channel11set3DSpreadEf
q_g:__ZN6il2cpp2os6Memory14AlignedReAllocEPvjj
W:Math_fround
fda:__ZN24GenerateTypeTreeTransfer16TransferTypelessEPjPKc17TransferMetaFlags
Bie:_TimeSpan_get_TotalMinutes_m1645177229
S$d:_HMACMD5__ctor_m3425004426
oqd:_SymmetricTransform_InternalTransformBlock_m55428483
_pa:__ZL18ProgramUniform4uivPK7ApiGLESjiihPKv
Bgd:_LongComparer_Compare_m398047722
ry:__ZN18AudioMixerPlayable18CacheFMODResourcesEPN4FMOD6SystemE
xcg:_EqualityComparer_1_System_Collections_IEqualityComparer_Equals_m2170611288_gshared
yqf:_AudioMixerPlayable_op_Explicit_m1657546053
JCc:_Attribute_CheckParameters_m1754681684
mee:_UnicodeEncoding_GetByteCount_m2761661599
eKa:__ZN10builtintex21GetAttenuationTextureEv
em:FUNCTION_TABLE_viiiiiiiiiiiiiii
NZg:__ZN6il2cpp6icalls8mscorlib6System9Threading5Mutex21ReleaseMutex_internalE12Il2CppIntPtr
aT:__Z15GetGraphicsCapsv
Pla:__ZN7ApiGLES15BindVertexArrayEN2gl6HandleILNS0_10ObjectTypeE3EEE
lvb:__Z18Transfer_BlittableI18StreamedBinaryReadILb1EELb1ExEvRK29SerializationCommandArgumentsR31RuntimeSerializationCommandInfo
sAg:__ZN30dense_hashtable_const_iteratorINSt3__24pairIK10KeyWrapperINS1_IPK9EventInfoP11Il2CppClassEEEjEES9_17ReflectionMapHashIS8_EN14dense_hash_mapIS9_jSD_NS9_14EqualsComparerINS0_8equal_toIS8_EEEENS0_9allocatorISB_EEE9SelectKeyESI_SK_EppEv
fje:_TimeSpan_op_GreaterThan_m2202243191
DGb:__ZN18BackgroundJobQueue29ScheduleMainThreadJobInternalEPFvPvES0_
dNd:_X509Chain_IsSelfIssued_m2009755967
p4a:__ZNK20ScriptPlayableOutput9GetStagesER13dynamic_arrayI16StageDescriptionLj4EE
Q3b:__ZN11ShapeModule18MultiModeParameter8TransferI14SafeBinaryReadEEvRT_
omb:__Z18Transfer_BlittableI14SafeBinaryReadLb1EhEvRK29SerializationCommandArgumentsR31RuntimeSerializationCommandInfo
GTc:_DateTime_GetTimeMonotonic_m4135038456
SV:__ZNSt3__224__buffered_inplace_mergeIRNS_4lessIN4core12basic_stringIcNS2_20StringStorageDefaultIcEEEEEENS_11__wrap_iterIPS6_EEEEvT0_SC_SC_T_NS_15iterator_traitsISC_E15difference_typeESG_PNSF_10value_typeE
Xde:_StringBuilder_Append_m3636508479
Gb:invoke_viifff
IL:__Z22DestroyObjectHighLevelP6Objectb
voc:_SymmetricAlgorithm_set_KeySize_m270664177
Hb:invoke_viiffi
OFg:__ZN6il2cpp6icalls8mscorlib6System9Threading6Thread16SetName_internalEP12Il2CppThreadP12Il2CppString
Ki:_glBeginTransformFeedback
lea:__ZN18JobBatchDispatcherC2E11JobPriorityi
oka:__ZN9GfxDevice13EndFrameStatsEv
lKb:__Z7Empty2DP9Texture2DPhiiii
m8c:_IntPtr_ToString_m1500137303_AdjustorThunk
W0b:__ZN32CustomDataModulePropertyBindings13AddPropertiesER10vector_mapIi22ParticleModulePropertyNSt3__24lessIiEENS2_9allocatorINS2_4pairIiS1_EEEEE
Pbg:_SymmetricTransform_ThrowBadPaddingException_m2553969731
Mje:_Type_get_IsMarshalByRef_m863073076
uEa:__ZN19ComputeShaderKernelD2Ev
mrf:_AudioConfigurationChangeHandler_Invoke_m635374412
ZTg:__ZN6il2cpp2os4Time29GetTicksMillisecondsMonotonicEv
Z$b:__ZN9rapidjson12PrettyWriterI16TempBufferWriterNS_4UTF8IcEES3_13JSONAllocatorE12PrettyPrefixENS_4TypeE
OBd:_Context_DecodeProtocolCode_m4051353560
aFb:__ZN12ScriptMapper8TransferI14SafeBinaryReadEEvRT_
GBd:_Context_set_ClientWriteKey_m1137238126
Irb:__Z18Transfer_BlittableI24GenerateTypeTreeTransferLb1E10Matrix4x4fEvRK29SerializationCommandArgumentsR31RuntimeSerializationCommandInfo
sif:_Expression_GetFixedWidth_m2900825908
Dq:__Z10SetLocalTR15TransformAccessRKN4math7_float3ERKNS0_7_float4E
sdg:_GenericEqualityComparer_1_Equals_m1663005117_gshared
h3d:_ILGenerator_Mono_GetCurrentOffset_m3553856682
Dzf:__ZL58Decimal_t724701077_CustomAttributesCacheGenerator_MinValueP21CustomAttributesCache
Lx:__ZN17AudioClipPlayable15ApplyPropertiesEPN4FMOD6SystemEP11AudioSourcebyj
gIf:__ZL50_Module_t2144668161_CustomAttributesCacheGeneratorP21CustomAttributesCache
Uob:__ZN15SerializeTraitsI5RectTIfEE8TransferI14SafeBinaryReadEEvRS1_RT_
WOd:_X509Extension_CopyFrom_m2644634650
xNb:__ZN14PlayableOutputC2EjP13PlayableGraph
c8a:__ZThn32_NK8Renderer11GetMaterialEi
lMf:__ZL118SecurityManager_t3191249573_CustomAttributesCacheGenerator_SecurityManager_t3191249573____SecurityEnabled_PropertyInfoP21CustomAttributesCache
h2f:_List_1_System_Collections_IList_Insert_m813883425_gshared
cUg:__ZN6il2cpp6icalls8mscorlib6System7Runtime15InteropServices8GCHandle15GetTargetHandleEP12Il2CppObjectii
kRe:_SafeHandle_Dispose_m3871883741
Dj:_unsetenv
_6f:_ReadOnlyCollection_1_System_Collections_IList_get_Item_m378281456_gshared
yha:__ZN9GfxDevice29GetMinimumNodesPerGraphicsJobEv
Hcb:__ZN17BlendShapeChannel8TransferI24GenerateTypeTreeTransferEEvRT_
Huf:_GameObject_SendMessage_m71956653
JWg:_GC_init_size_map
Agf:_Parser_NewParseException_m3909819299
eU:__ZN15DirectorManager17OnSampleFixedTimeEv
$Oa:__ZNK13RendererScene21GetDynamicObjectCountEv
Jrg:__ZN6il2cpp6icalls8mscorlib6SystemL8IsPublicEPK12PropertyInfo
BUg:_GC_is_black_listed
O6e:__Z68RuntimeInvoker_UInt32_t2149682021_Int32_t2071877448_SByte_t454417549PFvvEPK10MethodInfoPvPS4_
Cec:__Z19UpdateWholeSheetTplIL27ParticleSystemCurveEvalMode2EEvfRK11MinMaxCurveS3_RK23ParticleSystemParticlesPf
Jkf:_UriFormatException__ctor_m4177560795
Bba:__Z17GetRenderSettingsv
osb:__ZN24GenerateTypeTreeTransfer32TransferSTLStyleArrayWithElementI23ManagedObjectTransfererEEvRT_17TransferMetaFlags
jbd:_WriteDelegate_BeginInvoke_m2985235908
TUc:_DateTimeOffset_get_Offset_m2335492074_AdjustorThunk
X5c:_Int32_System_IConvertible_ToChar_m719315943_AdjustorThunk
C_g:__ZN6il2cpp6icalls8mscorlib6System7Runtime8Remoting16RemotingServices16GetVirtualMethodEP20Il2CppReflectionTypeP22Il2CppReflectionMethod
Lef:_Match__ctor_m478172746
CMe:_Array_InternalArray__Insert_TisWorkRequest_t1154022482_m452198486_gshared
vfd:_Math_Pow_m3099781906
Uug:__ZN6il2cpp2vm14TypeNameParser23ParseNestedTypeOptionalERi
ghd:_MonoType_ReorderParamArrayArguments_m979187413
aud:_BigInteger_ToString_m1842353154
a_g:__ZN6il2cpp2os13FastMutexImplC2Ev
ohc:__ZN22BaseUnityConnectClient14QueueCoreEventERN11UnityEngine15CloudWebService17CloudServiceEventEb
Xre:_InternalEnumerator_1_get_Current_m2882946014_gshared
Yib:__ZN30RuntimeInitializeOnLoadManager9ClassInfo8TransferI14SafeBinaryReadEEvRT_
omf:_PKCS12_AddCertificate_m2800455360
oLa:__ZL13RenderCastersiRK8Vector3fS1_RK13ShadowJobDataR17ShaderPassContextRKNSt3__26vectorI16ShadowCasterData13stl_allocatorIS9_L18MemLabelIdentifier2ELi16EEEERKNS8_I20ShadowCasterPartDataSA_ISG_LSB_2ELi16EEEERK15RenderNodeQueuebPKj
Dk:_emscripten_glGetShaderInfoLog
Gvg:__ZNSt3__26vectorIiNS_9allocatorIiEEE8allocateEj
ipc:_RIPEMD160Managed_Compress_m3844168032
dVc:_DBNull_System_IConvertible_ToInt32_m3596596664
K5c:_Int16_ToString_m1247017262_AdjustorThunk
Sk:_glUniform1i
lB:__Z92Register_UnityEngine_Audio_AudioMixerPlayable_INTERNAL_CALL_CreateAudioMixerPlayableInternalv
m6c:_Int32_System_IConvertible_ToType_m573330549_AdjustorThunk
He:___syscall122
WFb:__ZN6prcoreL11inner_clearILj3EEEvPhjjj
m9e:__Z99RuntimeInvoker_RuntimeObject_RuntimeObject_RuntimeObject_Vector3_t2243707580_Quaternion_t4030073918PFvvEPK10MethodInfoPvPS4_
F0a:__Z29FindReflectionProbeFromAnchorP9TransformRK4AABBRS1_RsS5_
b0c:_CultureInfo_insert_into_shared_tables_m348522444
qRd:_Interval_Merge_m1170166798
EVd:_WellKnownServiceTypeEntry__ctor_m1109686429
Qxf:_PlayableHandle_SetInputCount_m2001045454_AdjustorThunk
yrg:__ZN6il2cpp6icalls8mscorlib6System18CollectTypeMethodsINS_5utils10functional10TrueFilterEEEvP11Il2CppClassPKS7_jRKT_RNSt3__26vectorIPK10MethodInfoNSE_9allocatorISI_EEEERA65535_b
c3f:_Enumerator_get_Current_m2566716693_AdjustorThunk
tZ:__Z14SetPlayerPause11PlayerPauseb
Jpf:_AudioClipPlayable_GetLooped_m2341122984_AdjustorThunk
QK:__Z30scripting_stack_trace_info_for21ScriptingExceptionPtrR14StackTraceInfo
_6g:_glCompressedTexSubImage3D__wrapper
jMa:__ZN18ShadowMapJobHeaderD0Ev
haf:__Z127RuntimeInvoker_Boolean_t3825574718_PlayableGraphU26_t427420260_Int32_t2071877448_SByte_t454417549_PlayableHandleU26_t4210769902PFvvEPK10MethodInfoPvPS4_
Ezg:__ZN15dense_hashtableINSt3__24pairIK10KeyWrapperINS1_IPK12PropertyInfoP11Il2CppClassEEEjEES9_17ReflectionMapHashIS8_EN14dense_hash_mapIS9_jSD_NS9_14EqualsComparerINS0_8equal_toIS8_EEEENS0_9allocatorISB_EEE9SelectKeyESI_SK_EC2ERKSN_j
St:__ZN15AudioReverbZone7CleanupEv
Yta:__ZN10BufferGLESD0Ev
Ixe:_InternalEnumerator_1_System_Collections_IEnumerator_get_Current_m790514740_gshared
A9b:__Z25EvaluateRandomGradientHDRIL12GradientMode1ELS0_1EEN4math8floatNx4ERK14MinMaxGradientRKNS1_7_float4ES8_
Euc:__Z9NullCheckPv
ckc:__ZN22UnityAnalyticsSettings8TransferI14SafeBinaryReadEEvRT_
Ekb:__ZN9Scripting35ErrorMessageForUnsupportedEnumFieldE17ScriptingFieldPtr
fMe:_Array_InternalArray__Insert_TisIntPtr_t_m3232864760_gshared
lte:_InternalEnumerator_1_get_Current_m1389169756_gshared
ffg:__ZL24UnresolvedVirtualCall_10P12Il2CppObjectPK10MethodInfo
mbh:_emscripten_glCompressedTexSubImage2D__wrapper
T_d:_DSA_FromXmlString_m2141326025
$kc:__ZZN18UnityConnectClient23RegisterGlobalCallbacksEvEN46EarlyUpdateUnityConnectClientUpdateRegistrator7ForwardEv
Wyd:_CipherSuite_Expand_m1800208652
N3b:__ZN15SerializeTraitsI27ParticleSystemEmissionBurstE8TransferI14SafeBinaryReadEEvRS0_RT_
Fqg:__ZN6il2cpp2vmL29SocketPollingThreadEntryPointEPv
HTc:_DateTime_GetNow_m1004310079
Lcb:__ZN10Matrix4x4f8TransferI18StreamedBinaryReadILb0EEEEvRT_
CGd:_SslStreamBase_get_Length_m763159069
Zw:__ZN4FMOD7Channel19getReverbPropertiesEP29FMOD_REVERB_CHANNELPROPERTIES
qye:_InternalEnumerator_1_get_Current_m906360510_AdjustorThunk
BXc:_StackFrame_GetSecureFileName_m389986943
XVd:_FormatterConverter_ToInt16_m2774942580
k9b:__ZN11NoiseModule6UpdateERK27ParticleSystemReadOnlyStateR23ParticleSystemParticlesjjfRKN4math7_float4Eb
Iee:_UTF32Encoding_GetCharCount_m3319809517
kQb:__Z12CancelInvokeR13MonoBehaviourR11ICallString
org:__ZN6il2cpp6icalls8mscorlib6System8MonoType13GetInterfacesEP20Il2CppReflectionType
yE:__ZN11UnityEngine15CloudWebService25WebRequestDownloadHandler7OnAbortEv
iz:__ZN9AudioClip16EnableLegacyModeEv
Nib:__ZN14SafeBinaryRead21TransferSTLStyleArrayINSt3__26vectorIi13stl_allocatorIiL18MemLabelIdentifier12ELi16EEEEEEvRT_17TransferMetaFlags
FWc:_Decimal_ToString_m752193835_AdjustorThunk
uEd:_RecordProtocol_InternalSendRecordCallback_m3984764857
aPg:__ZN6il2cpp2os6Thread22SetNativeThreadCleanupEPFvPvE
_sg:_il2cpp_class_from_system_type
rrb:__Z18Transfer_BlittableI24GenerateTypeTreeTransferLb1E10ColorRGBAfEvRK29SerializationCommandArgumentsR31RuntimeSerializationCommandInfo
I7:__ZN6prcoreL17RemapGenericFloatI18TexFormatRGBAFloat16TexFormatRGFloatEEvPKNS_9InnerInfoE
Cjd:_MSCompatUnicodeTable_FillCJKCore_m1100372933
Pqg:__ZN6il2cpp6icalls8mscorlib6System8MonoType8get_NameEP20Il2CppReflectionType
oob:__ZNSt3__26vectorI10RectOffset13stl_allocatorIS1_L18MemLabelIdentifier1ELi16EEE8__appendEj
bPc:_DateTime_op_Inequality_m1607380213
Tjg:__ZN6il2cpp2vm5Class12HasAttributeEP11Il2CppClassS3_
g1b:__ZN27ForceModulePropertyBindings13AddPropertiesER10vector_mapIi22ParticleModulePropertyNSt3__24lessIiEENS2_9allocatorINS2_4pairIiS1_EEEEE
GGe:_Array_InternalArray__ICollection_Contains_TisResourceCacheItem_t333236149_m1769941464_gshared
Gn:FUNCTION_TABLE_ff
In:FUNCTION_TABLE_fi
l$g:__ZN6il2cpp2vm16GenericContainer19GetGenericParameterEPK22Il2CppGenericContainert
kGc:_Char_System_IConvertible_ToSingle_m2547558725_AdjustorThunk
oib:__ZN18StreamedBinaryReadILb0EE21TransferSTLStyleArrayINSt3__26vectorIN15ResourceManager10DependencyE13stl_allocatorIS5_L18MemLabelIdentifier51ELi16EEEEEEvRT_17TransferMetaFlags
Qc:_emscripten_glGetAttribLocation
bO:__ZNSt3__26vectorINS_4pairIiiEE13stl_allocatorIS2_L18MemLabelIdentifier37ELi16EEE6insertENS_11__wrap_iterIPKS2_EERS8_
hBa:__ZZ23InitPlayerLoopCallbacksvEN39PostLateUpdateResetInputAxisRegistrator7ForwardEv
kw:__ZN4FMOD12ChannelGroup14getParentGroupEPPS0_
SEd:_SslClientStream_add_ServerCertValidation_m684653638
Uc:_emscripten_set_blur_callback
Z7g:___cxa_pure_virtual__wrapper
vpa:__ZNK14ImageReference9ClipImageEiiii
aMa:__ZN10Matrix4x4f30SetPositionAndOrthoNormalBasisERK8Vector3fS2_S2_S2_
y_a:__ZN5RectTIfE8TransferI24GenerateTypeTreeTransferEEvRT_
tSe:_CrossAppDomainSink__cctor_m1547233779
Zid:_TableRange__ctor_m1944319286_AdjustorThunk
XFa:__ZN12FlareManager6UpdateEv
v8g:_glColorMask__wrapper
ZHf:__ZL59_ConstructorInfo_t3269099341_CustomAttributesCacheGeneratorP21CustomAttributesCache
wDe:_Dictionary_2_ContainsKey_m1385349577_gshared
prd:_X509CertificateEnumerator_MoveNext_m1031936092
xHg:__ZN6il2cpp6icalls8mscorlib6System4Type29GetGenericTypeDefinition_implEP20Il2CppReflectionType
fAd:_TlsStream__ctor_m2982031560
BLd:_X509EnhancedKeyUsageExtension__ctor_m4050164330
Ywb:__ZN18StreamedBinaryReadILb1EE8TransferI8Vector3fEEvRT_PKc17TransferMetaFlags
kxe:_InternalEnumerator_1_get_Current_m2198364332_AdjustorThunk
baa:__ZN27GenericSlowGarbageCollector16ProcessReferenceEi
nUd:_RealProxy_InternalGetProxyType_m858618403
r_c:_FieldAccessException__ctor_m1240495912
Bkf:_Uri_HexUnescapeMultiByte_m25670899
H1g:_fopen
w0b:__ZN32PlaneColliderCache_dense_hashmapD2Ev
hG:__ZN19CloudServiceHandler8SaveFileERKN4core12basic_stringIcNS0_20StringStorageDefaultIcEEEEPKvj
XGg:__ZN6il2cpp2vm9Exception5RaiseEib
UOd:_X509EnhancedKeyUsageExtension_CopyFrom_m1426370958
nWb:__ZN9rapidjson13GenericReaderINS_4UTF8IcEES2_13JSONAllocatorE10ParseValueILj1ENS_25GenericInsituStringStreamIS2_EENS_15GenericDocumentIS2_S3_S3_EEEEvRT0_RT1_
p9g:_glFramebufferTexture2D__wrapper
q$g:__ZN6il2cpp6icalls8mscorlib6System7Runtime8Remoting7Proxies9RealProxy27InternalGetTransparentProxyEP12Il2CppObjectP12Il2CppString
Pyd:_CipherSuite_DecryptRecord_m1247194570
FPg:__ZN6il2cpp2vm6Method10IsInflatedEPK10MethodInfo
hUg:__ZNK6il2cpp8metadata14Il2CppTypeLessclEPK10Il2CppTypeS4_
_Ug:_GC_remove_header
s3c:_RegionInfo_GetHashCode_m1038358761
pkg:__ZN15dense_hashtableINSt3__24pairIK10KeyWrapperIPK11Il2CppClassEPKcEES6_N6il2cpp5utils11PointerHashIS3_EEN14dense_hash_mapIS6_S9_SE_NS6_14EqualsComparerINS0_8equal_toIS5_EEEENS0_9allocatorISA_EEE9SelectKeyESJ_SL_E14squash_deletedEv
zA:__ZN17AudioClipPlayableC2E18DirectorPlayerType
W$a:__ZNSt3__26vectorI17SortingLayerEntryNS_9allocatorIS1_EEE7reserveEj
bBd:_Context_set_MasterSecret_m1422386411
lub:__Z19TransferField_ArrayI19StreamedBinaryWriteILb0EE27Converter_UnityEngineObjectEvRK23StaticTransferFieldInfoR31RuntimeSerializationCommandInfoRT0_
Cxd:_RSAManaged_ToXmlString_m2606223477
Igf:_CharacterClass__ctor_m1318163925
h1d:_AssemblyName_GetObjectData_m1221677827
Cma:__Z16GetMSAALevelDesc9MSAALevel
vDa:__ZN8Renderer27EnsureTransformInfoUpToDateEv
lV:__ZN15dense_hashtableINSt3__24pairIKN4core12basic_stringIcNS2_20StringStorageDefaultIcEEEEP11AssetBundleEES6_20StringHash32FunctionIS6_EN14dense_hash_mapIS6_S9_SC_NS0_8equal_toIS6_EENS0_9allocatorISA_EEE9SelectKeyESF_SH_E9copy_fromERKSK_j
Ndh:_emscripten_glFrontFace__wrapper
Ba:invoke_fiffi
BZg:__ZN6il2cpp5utils6Memory6CallocEjj
vO:__ZN14SerializedFile14SerializedType8ReadTypeILb1EEEbibRPKhS3_Pi
k9g:_emscripten_glRenderbufferStorage__wrapper
Q3a:__ZN8Playable7SetTimeEd
nK:__ZN13RuntimeStaticI12GraphicsCapsLb0EE16StaticInitializeEPv
oca:__ZN9Texture3D17UploadToGfxDeviceEv
IZb:__Z18Transfer_BlittableI8JSONReadLb1E8Vector4fEvRK29SerializationCommandArgumentsR31RuntimeSerializationCommandInfo
x$:__ZN13RenderTexture14SetColorFormatE19RenderTextureFormat
A1c:_NumberFormatter_Init_m1515770916
Zif:_Literal_Compile_m3864266818
xZa:__ZN9Scripting20SendScriptingMessageER10GameObjectPKc18ScriptingObjectPtr
pZ:__Z26IsSplashScreenFadeCompletev
odb:__Z17SendMessageDirectR6ObjectRK17MessageIdentifierR11MessageData
wSb:__Z42Register_UnityEngine_Camera_get_clearFlagsv
qrg:__ZNSt3__26__treeIP11Il2CppClassNS_4lessIS2_EENS_9allocatorIS2_EEED2Ev
ECe:_Dictionary_2_InitArrays_m852496598_gshared
Sde:_StringBuilder_set_Chars_m1019094834
cPa:__ZN15LODGroupManager24UpdateLODGroupComponentsEv
oUa:__ZN13RenderManager27UpdatePreviousFrameMatricesEv
mFc:_Byte_System_IConvertible_ToUInt64_m2667486567
mQ:__Z22SetManagerPtrInContextiP6Object
yhb:__ZN14PlayerSettings8TransferI19StreamedBinaryWriteILb0EEEEvRT_
uZb:__Z18Transfer_BlittableI8JSONReadLb0E10ColorRGBAfEvRK29SerializationCommandArgumentsR31RuntimeSerializationCommandInfo
cMe:_Array_InternalArray__Insert_TisInt16_t4041245914_m371511339_gshared
z2d:_ConstructorBuilder_get_next_table_index_m932085784
Bng:__ZN15dense_hashtableINSt3__24pairIK10KeyWrapperIN6il2cpp5utils13dynamic_arrayIPK10Il2CppTypeLj4EEEEPFvvEEESA_NS3_8metadata19Il2CppSignatureHashEN14dense_hash_mapISA_SD_SG_NSA_14EqualsComparerINSF_22Il2CppSignatureCompareEEENS0_9allocatorISE_EEE9SelectKeyESK_SM_E14squash_deletedEv
sZd:_SByte_Equals_m755715567
gT:__ZN15DirectorManagerD2Ev
bkd:_SortKeyBuffer_AppendNormal_m2554296431
rJb:__ZNK30SpriteRendererAnimationBinding15GenerateBindingERKN4core12basic_stringIcNS0_20StringStorageDefaultIcEEEEbRN11UnityEngine9Animation14GenericBindingE
i4f:_Collection_1_InsertItem_m3611385334_gshared
EJg:__ZN6il2cpp6icalls8mscorlib6System13Globalization11CultureInfo45construct_internal_locale_from_current_localeEP17Il2CppCultureInfo
kJe:_Array_IndexOf_TisCustomAttributeNamedArgument_t94157543_m2205974312_gshared
Zsa:__ZN15TextureTFMethod16BindForRenderingEj
BFe:_DefaultComparer_GetHashCode_m3250641461_gshared
OPd:_Key_ToString_m1129871742
fCc:_Array_Sort_m1417611156
_1g:_access
j_e:__Z59RuntimeInvoker_RuntimeObject_RuntimeObject_Int64_t909078037PFvvEPK10MethodInfoPvPS4_
XJg:__ZN15dense_hashtableINSt3__24pairIK10KeyWrapperINS1_IPKcS4_EEEiEES6_24NamespaceAndNamePairHashN14dense_hash_mapIS6_iS9_NS6_14EqualsComparerI26NamespaceAndNamePairEqualsEENS0_9allocatorIS8_EEE9SelectKeyESD_SF_E4findERS7_
hkf:_Uri_Merge_m2181117222
Jpg:__ZN6il2cpp2os19SocketHandleWrapper7ReleaseEv
Nvc:_Single_System_IConvertible_ToDouble_m1424421571
VIa:__Z20RenderFullScreenQuadR9GfxDeviceRK6Camera17ShaderChannelMaskRK5RectTIfEf21MonoOrStereoscopicEye
yie:_TimeSpan_get_TotalDays_m3496775483_AdjustorThunk
Fgb:__ZNSt3__27__sort4IRNS_6__lessINS_4pairIPKN5Unity4TypeE7Hash128EES8_EEPS8_EEjT0_SC_SC_SC_T_
R1:__ZNK11NamedObject22GetTypeVirtualInternalEv
F1:__ZN16RenderTextureMap5QueryEPK17RenderSurfaceBase
Ccg:_EqualityComparer_1_System_Collections_IEqualityComparer_Equals_m3463759377_gshared
saf:__Z94RuntimeInvoker_Void_t1841601450_RuntimeObject_PlayableGraph_t1041204988_RuntimeObject_IntPtr_tPFvvEPK10MethodInfoPvPS4_
xOe:_Array_InternalArray__get_Item_TisDictionaryEntry_t3048875398_m2371191320_gshared
Qm:FUNCTION_TABLE_viiii
p0e:__Z65RuntimeInvoker_Double_t4078015681_RuntimeObject_Int32_t2071877448PFvvEPK10MethodInfoPvPS4_
tre:_InternalEnumerator_1_get_Current_m2351441486_gshared
nQg:__ZL14on_heap_resizem
g5g:dynCall_vidi
P7g:_glVertexAttribPointer__wrapper
T4g:___udivdi3
dGb:__ZN11PlayerPrefs9SetStringERKN4core12basic_stringIcNS0_20StringStorageDefaultIcEEEES6_
QXg:__ZN6il2cpp6icalls8mscorlib6System8Delegate18SetMulticastInvokeEP14Il2CppDelegate
pgf:_Regex_InitNewRegex_m692548389
Ojc:__ZNSt3__26__treeINS_12__value_typeIN4core12basic_stringIcNS2_20StringStorageDefaultIcEEEEN11UnityEngine7Connect19RemoteSettingsValueEEENS_19__map_value_compareIS6_SA_NS_4lessIS6_EELb1EEE13stl_allocatorISA_L18MemLabelIdentifier5ELi16EEE16__construct_nodeERKNS_4pairIKS6_S9_EE
ima:__ZN4gles16CreateBlendStateER15DeviceStateGLESRK13GfxBlendState
Rvd:_ARC4Managed_GenerateIV_m2815460576
gvc:_String_Substring_m2032624251
KLb:__ZN8Material12CleanupClassEv
CTc:_DateTime_get_DayOfWeek_m2345429939_AdjustorThunk
ila:__ZN13GfxDeviceGLES23DrawIndexedNullGeometryE16GfxPrimitiveTypeP9GfxBufferiii
QPe:_ResourceSet_GetObjectInternal_m3556256510
Sqb:__Z22TransferField_NonArrayI17RemapPPtrTransfer27Converter_SimpleNativeClassI10RectOffsetEEvRK23StaticTransferFieldInfoR31RuntimeSerializationCommandInfoRT0_
dPc:_DateTimeOffset__ctor_m2870721395
$xc:_String_ReplaceFallback_m64616664
X9d:_MonoMethod_GetCustomAttributes_m2493833930
qhb:__ZN24GenerateTypeTreeTransfer32TransferSTLStyleArrayWithElementI16SplashScreenLogoEEvRT_17TransferMetaFlags
Zwg:__ZN15dense_hashtableINSt3__24pairIK10KeyWrapperINS1_IPK9FieldInfoP11Il2CppClassEEEjEES9_17ReflectionMapHashIS8_EN14dense_hash_mapIS9_jSD_NS9_14EqualsComparerINS0_8equal_toIS8_EEEENS0_9allocatorISB_EEE9SelectKeyESI_SK_E6insertERKSB_
Jkg:__ZN14dense_hash_mapI10KeyWrapperIPKcEP11Il2CppClassN6il2cpp5utils11StringUtils12StringHasherIS2_EENS3_14EqualsComparerINS7_13VmStringUtils21CaseSensitiveComparerEEENSt3__29allocatorINSF_4pairIKS3_S5_EEEEEC2EjRKSA_RKSE_
b6c:_Int32_System_IConvertible_ToDouble_m3322226667_AdjustorThunk
LLe:_Array_InternalArray__ICollection_CopyTo_TisPlayableBinding_t2498078091_m2296273826_gshared
R4g:_memmove
qUg:_GC_log_printf
NZd:_CodeAccessPermission_ToString_m3345031296
INg:__ZN6il2cpp2vm6Object5UnboxEP12Il2CppObject
VId:_FtpWebRequest__ctor_m3003551676
bSb:__Z52Register_UnityEngine_ScriptableObject_CreateInstancev
vpd:_EncryptedPrivateKeyInfo__ctor_m832236482
HI:__ZN23DefaultMeshVertexFormatC2E17ShaderChannelMask
Fvb:__ZL26Transfer_SimpleNativeClassI18StreamedBinaryReadILb1EE8GradientLb1EEvRK29SerializationCommandArgumentsR31RuntimeSerializationCommandInfo
owc:_Single_Equals_m3359827399
Tge:_Thread_FreeLocalSlotValues_m2948667652
cVa:__ZNSt3__26vectorINS_4pairIN4core12basic_stringIcNS2_20StringStorageDefaultIcEEEES6_EE13stl_allocatorIS7_L18MemLabelIdentifier37ELi16EEE12__move_rangeEPS7_SC_SC_
kma:__ZN7ApiGLES10InvalidateERK14GfxContextGLES
Zac:__ZN11ShapeModule20EmitterStoreMeshDataI11ColorRGBA32EEvRK27ParticleSystemReadOnlyStateRK19ParticleSystemStateR23ParticleSystemParticlesRKN4math8float3x3ERKNSA_8float4x4Ejb
cnd:_ASN1Convert_ToOid_m2695991795
ZZg:__ZN6il2cpp2os5Mutex7TryLockEjb
II:__Z20IsVectorBuiltinParamPKcPi
fNg:__ZN6il2cpp2vm5Field8GetFlagsEP9FieldInfo
fxf:_PlayableGraph_INTERNAL_CALL_CreatePlayableHandleInternal_m1089209954
ywe:_InternalEnumerator_1_get_Current_m727737343_AdjustorThunk
mGg:__ZN6il2cpp6icalls8mscorlib6System10ReflectionL16LoadResourceFileEP24Il2CppReflectionAssembly
ZN:__Z13IsFileCreatedRKN4core12basic_stringIcNS_20StringStorageDefaultIcEEEE
YYg:__ZN6il2cpp6icalls8mscorlib6System21CurrentSystemTimeZone15GetTimeZoneDataEiPP11Il2CppArrayS6_
V6a:__ZN16LightmapSettings18TransferDeprecatedI14SafeBinaryReadEEvRT_
afb:__ZN8Renderer11SetMaterialE4PPtrI8MaterialEi
QMg:__ZN15dense_hashtableINSt3__24pairIK10KeyWrapperIP12Il2CppObjectEN6il2cpp2gc9CachedCCWEEES5_NS7_5utils11PointerHashIS3_EEN14dense_hash_mapIS5_S9_SD_NS5_14EqualsComparerINS0_8equal_toIS4_EEEENS0_9allocatorISA_EEE9SelectKeyESI_SK_E5eraseE30dense_hashtable_const_iteratorISA_S5_SD_SM_SI_SK_E
dM:__ZN15dense_hashtableINSt3__24pairIKiP6ObjectEEi21InstanceIDHashFunctorN14dense_hash_mapIiS4_S6_NS0_8equal_toIiEE13stl_allocatorIS5_L18MemLabelIdentifier65ELi16EEE9SelectKeyES9_SC_E12maybe_shrinkEv
efc:__ZN14ParticleSystem28SetPlayOnAwakeDirectChildrenEPS_b
Hwc:_String__cctor_m710226597
Uof:_AsyncOperation_InternalDestroy_m3312061823
z1a:__ZN12FlareManager9AddCameraER6Camera
gbe:_ParameterInfo_GetCustomAttributes_m2985072480
LNe:_Array_Sort_TisRuntimeObject_m1954851512_gshared
Z4g:___divdi3
Wjd:_SimpleCollator_GetSortKey_m540875593
ODb:__ZN9ShaderLab9IntShader26CreateFromSerializedShaderERKNS_16SerializedShaderERNSt3__26vectorI4PPtrI6ShaderENS4_9allocatorIS8_EEEEbPS7_
ZDa:__ZN19ShaderPropertySheet16SetComputeBufferEN9ShaderLab16FastPropertyNameE15ComputeBufferIDNS_8SetFlagsE
sRg:__ZNK15dense_hashtableINSt3__24pairIK10KeyWrapperIPK19Il2CppGenericMethodEP10MethodInfoEES6_N6il2cpp8metadata23Il2CppGenericMethodHashEN14dense_hash_mapIS6_S9_SD_NS6_14EqualsComparerINSC_26Il2CppGenericMethodCompareEEENS0_9allocatorISA_EEE9SelectKeyESH_SJ_E5beginEv
o4f:_Collection_1_set_Item_m3489932746_gshared
Wge:_Thread_GetCachedCurrentCulture_m450033007
uPa:__ZL12CullGroupJobP20CullingGroupsJobDataj
wVg:_GC_remove_dangling_disappearing_links
YE:__ZN11UnityEngine15CloudWebService14RestDownloader9IsAbortedEv
YQd:_Interval_t2354235237_marshal_pinvoke_back
Ln:FUNCTION_TABLE_i
BWc:_Decimal_ToString_m541380585_AdjustorThunk
SU:__ZN11TypeManager12RegisterTypeERK20TypeRegistrationDesc
Jm:FUNCTION_TABLE_v
vcb:__ZNSt3__26vectorI17BlendShapeChannelNS_9allocatorIS1_EEE8__appendEj
Jof:_AssetBundleCreateRequest_get_assetBundle_m2931245245
G8b:__ZNK11ColorModule12UpdateSingleERK22ParticleSystemParticleR11ColorRGBA32
Xo:__ZN18StreamedBinaryReadILb0EE21TransferSTLStyleArrayI13dynamic_arrayI8Vector3fLj4EEEEvRT_17TransferMetaFlags
nBa:__ZZ23InitPlayerLoopCallbacksvEN43PostLateUpdateUpdateAllRenderersRegistrator7ForwardEv
qba:__ZN21LightProbeProxyVolume13GetRenderDataER27LightProbeProxyVolumeSample
KSc:_CurrentSystemTimeZone_GetDaylightChanges_m2777828412
Hsg:__ZN6il2cpp2vm7Runtime30CallUnhandledExceptionDelegateEP12Il2CppDomainP14Il2CppDelegateP15Il2CppException
uUd:_RemotingProxy_get_TypeName_m1400928020
lgb:__ZN11TimeManager8TransferI24GenerateTypeTreeTransferEEvRT_
$jd:_SortKeyBuffer_GetResult_m962852575
Ijd:_SimpleCollator_Category_m1504096908
Qjc:__ZN18UnityConnectClient17InitConnectClientEv
sqe:_ArrayReadOnlyList_1_ReadOnlyError_m2158247090_gshared
z0g:_memcmp
UTc:_DateTime_CompareTo_m3372173896
n9f:_Rect_ToString_m2728794442
N9:__ZN9Scripting32GetCachedPtrFromScriptingWrapperE18ScriptingObjectPtr
$v:__ZN5audio5mixer22CreateAudioMixerMemoryERKNS0_18AudioMixerConstantEPN4FMOD6SystemERN7mecanim6memory9AllocatorEib
tkb:__ZL65EmitSerializationCommandsForLinearCollectionOfManagedObjectsFieldRK31TransferFunctionScriptingTraitsRK23TransferArrayField_InfoR20SerializationCommandR32SerializationCommandQueueBuilderRP20AllowNameConversions
BEd:_RSASslSignatureDeformatter_VerifySignature_m3138484348
lLe:_Array_InternalArray__ICollection_CopyTo_TisDecimal_t724701077_m1087621311_gshared
OAe:_Enumerator_System_Collections_IDictionaryEnumerator_get_Value_m2325383168_AdjustorThunk
Hac:__ZL8Perlin1DRKN4math8floatNx3ERKf
gRc:_Convert_ToInt64_m4280008532
cga:__ZL20ShaderWarmupFuncImplP6ShaderiPN9ShaderLab4PassERK16ShaderKeywordSetP10DynamicVBOPvR17ShaderPassContext
J$d:_HMAC_set_Key_m1530357889
vmg:__ZN15dense_hashtableI10KeyWrapperIPK17Il2CppGenericInstES4_N6il2cpp8metadata21Il2CppGenericInstHashEN14dense_hash_setIS4_S7_NS4_14EqualsComparerINS6_24Il2CppGenericInstCompareEEENSt3__29allocatorIS4_EEE8IdentityESB_SE_E6insertERKS4_
pwg:__ZN15dense_hashtableINSt3__24pairIK10KeyWrapperINS1_IPK14Il2CppAssemblyP11Il2CppClassEEEjEES9_17ReflectionMapHashIS8_EN14dense_hash_mapIS9_jSD_NS9_14EqualsComparerINS0_8equal_toIS8_EEEENS0_9allocatorISB_EEE9SelectKeyESI_SK_E3endEv
E6g:dynCall_iiii
cna:__ZN14DataBufferGLES12RecordUpdateEv
NTb:__Z34MonoBehaviour_CUSTOM_StopCoroutineP12Il2CppObjectP12Il2CppString
BCa:__ZN10systeminfo19IsPlatformWebPlayerE15RuntimePlatform
KNg:__ZN6il2cpp2vm12GenericClass12SetupMethodsEP11Il2CppClass
bY:__ZNK20LocalFileSystemPosix18GetApplicationPathEv
GPc:_Decimal__ctor_m3876694886
pkb:__ZN9Scripting30IsSystemCollectionsGenericListE17ScriptingClassPtr
SCc:_AttributeUsageAttribute__ctor_m2873156923
vSa:__ZN10GameObject16CheckConsistencyEv
IJb:__ZN14RenderSettings15InitializeClassEv
hLd:_AsnEncodedData_set_Oid_m3568255745
pFd:_SslClientStream_OnRemoteCertificateValidation2_m3416857045
NYd:_RuntimeTypeHandle_Equals_m452760426_AdjustorThunk
SJb:__ZL19OnLightProbesUpdatev
iJb:__ZN14SpriteRenderer13GetRenderDataEv
m6g:dynCall_iifii
Aoc:__Z3BoxP11Il2CppClassPv
L$c:_CultureInfo_Clone_m2970753766
rQd:_IntStack_Push_m1259764820
cta:__ZN21UniformBufferTFMethodD2Ev
cad:_FileStream_InitBuffer_m2153931481
S$b:__Z29Transfer_Blittable_ArrayFieldI8JSONReadhEvRT_R9ArrayInfoRK23StaticTransferFieldInfo
tQb:__ZL34GetComponentsImplementationRecurseILb1ELi1ELi2EEbR10GameObjectbRK17CompareParametersRK39GetComponentsImplementation_ReturnValue
B6:__ZN6prcoreL12RemapGenericI15TexFormatRGB56515TexFormatRGB888EEvPKNS_9InnerInfoE
lYg:__ZN6il2cpp5utils10MemoryPool9AddRegionEj
y0c:_NumberFormatter_GetInstance_m2421260460
hAb:__ZNSt3__26vectorIN9ShaderLab26SerializedShaderDependencyENS_9allocatorIS2_EEE8__appendEj
Kue:_InternalEnumerator_1_System_Collections_IEnumerator_get_Current_m4242639349_gshared
LP:__ZN32TransformHierarchyChangeDispatch26DispatchSelfAndAllChildrenE15TransformAccessNS_12InterestTypeE
Zce:_UTF32Encoding__ctor_m3199945978
qR:__ZN13RuntimeStaticI22VirtualJoystickManagerLb0EE13StaticDestroyEPv
Ws:__ZN13AudioListener12ApplyFiltersEv
B3c:_SortKey_GetHashCode_m2534654444
xGe:_Array_InternalArray__ICollection_Contains_TisInt64_t909078037_m1425723755_gshared
bCd:_HandshakeMessage_Update_m1733566706
C6g:dynCall_viiif
VZg:__ZN6il2cpp8metadata27Il2CppGenericContextCompare7CompareEPK20Il2CppGenericContextS4_
X5g:dynCall_viiii
tIc:_ArrayListWrapper_ToArray_m235921330
Mvd:_ARC4Managed_set_Key_m663161993
P7d:_MemberInfoSerializationHolder_Serialize_m4243060728
uvg:__ZNSt3__214__split_bufferIN6il2cpp2vm17TypeNameParseInfoERNS_9allocatorIS3_EEED2Ev
q9b:__ZNK16CustomDataModule6UpdateER23ParticleSystemParticlesjj
xke:_Type_GetConstructor_m663514781
_6c:_Int64_System_IConvertible_ToDouble_m638786774_AdjustorThunk
gU:__ZN15DirectorManager14ConnectionPool16GrowEmptyBucketsEv
J5c:_Int16_ToString_m1247017262
RL:__ZN17PersistentManager32CopyToAwakeFromLoadQueueInternalER18AwakeFromLoadQueue
hXc:_Delegate_Combine_m1976351882
HIa:__ZNK6Camera16SetActiveVRUsageEv
ome:_UInt32_System_IConvertible_ToUInt16_m2798641702
nB:__ZN13PlayableGraph12CreateOutputI19AudioPlayableOutputEEPT_PKc
WZb:__ZL26Transfer_SimpleNativeClassI8JSONRead8GradientLb1EEvRK29SerializationCommandArgumentsR31RuntimeSerializationCommandInfo
b1g:_open
MPc:_Decimal_ThrowInvalidExp_m3430267638
vFg:__ZN6il2cpp6icalls8mscorlib6System5Array5CloneEP11Il2CppArray
vUa:__Z30GetPlayerShouldRunInBackgroundv
BA:__ZNK17AudioClipPlayable13GetStartDelayEv
loe:_UnitySerializationHolder__ctor_m2832165173
ree:_UnicodeEncoding_GetBytes_m4175529985
v6:__ZN6prcoreL12RemapGenericI11TexFormatI815TexFormatRGB565EEvPKNS_9InnerInfoE
WI:__ZN13RuntimeStaticINSt3__23setI19RepeatingLogMessageNS0_4lessIS2_EE13stl_allocatorIS2_L18MemLabelIdentifier71ELi16EEEELb0EE13StaticDestroyEPv
G5e:__Z75RuntimeInvoker_DateTime_t693205669_DateTime_t693205669_TimeSpan_t3430258949PFvvEPK10MethodInfoPvPS4_
fha:__ZNK13TranslateGLES17FramebufferTargetEN2gl17FramebufferTargetE
mQg:__ZL11on_gc_event11GCEventType
pEg:__ZNSt3__214__split_bufferIN6il2cpp8metadata18GenericArrayMethodERNS_9allocatorIS3_EEED2Ev
Evc:_Single_System_IConvertible_ToBoolean_m2661548087_AdjustorThunk
n$d:_DSASignatureDeformatter_VerifySignature_m4078616251
pbh:b62
ibh:b61
bbh:b60
Dbh:b67
WJe:_Array_InternalArray__IndexOf_TisUInt16_t986882611_m390127593_gshared
Bbh:b65
Abh:b64
myc:_String_Concat_m3881798623
Ibh:b68
w4d:_FieldBuilder_IsDefined_m2730324893
hQf:__ZL56FlagsAttribute_t859561169_CustomAttributesCacheGeneratorP21CustomAttributesCache
P8e:__Z102RuntimeInvoker_RuntimeObject_RuntimeObject_RuntimeObject_Int32_t2071877448_RuntimeObject_RuntimeObjectPFvvEPK10MethodInfoPvPS4_
X3e:__Z93RuntimeInvoker_Single_t2076509932_SingleU26_t4173844468_Single_t2076509932_Single_t2076509932PFvvEPK10MethodInfoPvPS4_
Mwf:_Object_FindSceneObjectsOfType_m1833688338
sMc:_SyncHashtable_ContainsKey_m3408601214
WZ:__Z28SetupPixelCorrectCoordinatesi
UNb:__ZNSt3__218__insertion_sort_3IRN10vector_mapIiiNS_4lessIiEE13stl_allocatorINS_4pairIiiEEL18MemLabelIdentifier1ELi16EEE13value_compareEPS6_EEvT0_SD_T_
Hma:__Z5SplitRKN4core12basic_stringIcNS_20StringStorageDefaultIcEEEEcRNSt3__26vectorIS3_NS6_9allocatorIS3_EEEEi
ujf:_RegularExpression_Compile_m3944989565
Iig:__ZN6il2cpp2vmL10InitLockedEP11Il2CppClassRKNS_2os12FastAutoLockE
dPa:__ZN15LODGroupManager26CollectAllLODGroupManagersEPK6CameraR13dynamic_arrayIPS_Lj4EEb
tFe:_DefaultComparer_Equals_m524689061_gshared
iec:__Z9UpdateTplIL22MinMaxGradientEvalMode2EL12GradientMode0ELS1_0EEvRK23ParticleSystemParticlesP11ColorRGBA32RK14MinMaxGradientRK23OptimizedMinMaxGradientRK8Vector2f
WXc:_Double_System_IConvertible_ToType_m4036266196_AdjustorThunk
bt:__ZN12AudioManagerD0Ev
H0g:___fwritex
wb:invoke_viiififii
G2b:__Z27CubicPolynomialRootsGenericPfdddd
_ad:_Stream_EndRead_m2148943753
xec:__ZN11ShapeModuleC2Ev
zJb:__ZN6ShaderC2E18MemLabelIdentifier18ObjectCreationMode
D3g:__ZNSt3__211char_traitsIcE4findEPKcjRS2_
GAa:__ZN11TypeManager18InitializeAllTypesEv
lr:__ZN9AudioClipD0Ev
dtg:_il2cpp_class_from_name
dHe:_Array_InternalArray__ICollection_Remove_TisKeyValuePair_2_t38854645_m3060436673_gshared
Bne:_UInt64_ToString_m794467354
zVb:__Z12CalculateEtaiid
bHb:__Z13RegisterClassI8GUILayerEvv
WYa:__ZN25ThreadsafeLinearAllocatorC2EiiPKc
ukd:_SimpleCollator_IsSuffix_m740049399
Zqa:__ZN14GfxContextGLES11MakeCurrentER7ApiGLESN2gl13ContextHandleE
_lf:_PKCS12__cctor_m3312759338
lAd:_RecordProtocol_BeginSendRecord_m166940611
Egd:_ShortComparer_Compare_m1398180168
xwf:_Object_Internal_InstantiateSingleWithParent_m509082884
Xfa:__ZN16GraphicsSettings22WarmupPreloadedShadersEv
mcd:_MonoIO_get_ConsoleError_m592181393
Fdg:__ZL11decimalLog2P19il2cpp_decimal_repr
Tfc:__ZN16ParticleSortData12CompareValueERKS_S1_
MEd:_SslCipherSuite_prf_m2084589217
zxg:__ZN6il2cpp2gc19AppendOnlyGCHashMapIPK10Il2CppTypeP20Il2CppReflectionTypeNS_8metadata14Il2CppTypeHashENS7_26Il2CppTypeEqualityComparerEE3AddERKS4_S6_
cC:__ZN11UnityEngine15CloudWebService17CloudJobScheduler11ScheduleJobEPFvPvES2_
k_f:__ZL57CSSMeasureFunc_t2092170507_CustomAttributesCacheGeneratorP21CustomAttributesCache
q4c:_Guid_Equals_m2389236871_AdjustorThunk
lD:__ZN11UnityEngine15CloudWebService17CloudServiceEvent12ToJsonStringER9JSONWrite
QR:__ZNK18VertexChannelsInfoltERKS_
e8b:__Z19UpdateProceduralTplIL27ParticleSystemCurveEvalMode1EEvRK22DualMinMax3DPolyCurvesS3_R23ParticleSystemParticlesRKN4math8float3x3E
Zqf:_AudioPlayableOutput_InternalSetTarget_m372979907
sMf:__ZL93ASCIIEncoding_t3022927988_CustomAttributesCacheGenerator_ASCIIEncoding_GetDecoder_m3693600923P21CustomAttributesCache
MVb:__ZN9JSONWrite8TransferIfEEvRT_PKc17TransferMetaFlags
bya:__ZN10MemoryFileD0Ev
A_d:_DES_set_Key_m2689203108
jCa:__Z23DrawSplashAndWatermarksv
Dre:_InternalEnumerator_1_get_Current_m1526874475_gshared
gPe:_Array_InternalArray__get_Item_TisWorkRequest_t1154022482_m2456727038_gshared
qlf:_SubjectAltNameExtension_ToString_m1300810903
Vpd:_RSAManaged_ImportParameters_m2382611442
Snb:__ZN13GUIStyleState8TransferI14SafeBinaryReadEEvRT_
cze:_Comparer_1_System_Collections_IComparer_Compare_m2490067344_gshared
yff:_PatternCompiler_EmitSet_m866698437
jd:_glDrawArrays
_te:_InternalEnumerator_1_System_Collections_IEnumerator_get_Current_m127456009_AdjustorThunk
BOb:__Z17InstantiateObjectR6ObjectR9TransformRK8Vector3fRK11Quaternionf
G6c:_Int32_TryParse_m656840904
_Ge:_Array_InternalArray__ICollection_Remove_TisChar_t3454481338_m1562002771_gshared
W6c:_Int64_System_IConvertible_ToDateTime_m1002280174_AdjustorThunk
Kcb:__ZN14BlendShapeData8TransferI18StreamedBinaryReadILb0EEEEvRT_
r$g:__ZN6il2cpp6icalls8mscorlib6System7Runtime8Remoting7Proxies9RealProxy20InternalGetProxyTypeEP12Il2CppObject
BEa:__ZN13sorted_vectorINSt3__24pairIiN17InstancedPropInfo12PropertyTypeEEEN10vector_mapIiS3_NS0_4lessIiEE13stl_allocatorIS4_L18MemLabelIdentifier1ELi16EEE13value_compareESA_E21sort_clear_duplicatesEv
iog:__ZN15dense_hashtableINSt3__24pairIK10KeyWrapperIPK11Il2CppClassEPKcEES6_N6il2cpp5utils11PointerHashIS3_EEN14dense_hash_mapIS6_S9_SE_NS6_14EqualsComparerINS0_8equal_toIS5_EEEENS0_9allocatorISA_EEE9SelectKeyESJ_SL_E12maybe_shrinkEv
n3g:__ZNSt3__212basic_stringIcNS_11char_traitsIcEENS_9allocatorIcEEEC2ERKS5_jjRKS4_
KV:__ZL20FormatOrderedProcessPKcP17FormatOrderedDataPc
dqa:__ZL17ProgramUniform1fvPK7ApiGLESjiihPKv
$$b:__ZN9rapidjson6WriterI16TempBufferWriterNS_4UTF8IcEES3_13JSONAllocatorE9WriteBoolEb
WSb:__Z35DebugLogHandler_CUSTOM_Internal_Log7LogTypeP12Il2CppStringP12Il2CppObject
C9g:_emscripten_glShaderBinary__wrapper
bqa:__ZL17ProgramUniform3ivPK7ApiGLESjiihPKv
sl:_glGenRenderbuffers
aja:__ZN9GfxDevice25GetBackBufferColorSurfaceEv
tya:__ZN25SingleBlockMemoryFileData9SetLengthEy
eOb:__Z29AwakeAndActivateClonedObjectsPP6ObjectRK10vector_mapIiiNSt3__24lessIiEE13stl_allocatorINS3_4pairIiiEEL18MemLabelIdentifier1ELi16EEE
jCg:__ZN15dense_hashtableINSt3__24pairIK10KeyWrapperINS1_IPK10MethodInfoP11Il2CppClassEEEjEES9_17ReflectionMapHashIS8_EN14dense_hash_mapIS9_jSD_NS9_14EqualsComparerINS0_8equal_toIS8_EEEENS0_9allocatorISB_EEE9SelectKeyESI_SK_E14squash_deletedEv
sHb:__Z13RegisterClassI6ShaderEvv
i5c:_Int16_System_IConvertible_ToUInt32_m883204517
dce:_ResourceCacheItem_t333236149_marshal_pinvoke_cleanup
hJ:__ZN13RuntimeStaticI11WindManagerLb0EE13StaticDestroyEPv
nSc:_Convert_ToUInt64_m3559662221
BXb:__Z18Transfer_BlittableI9JSONWriteLb1EaEvRK29SerializationCommandArgumentsR31RuntimeSerializationCommandInfo
eCg:__ZN13Il2CppHashMapINSt3__24pairIPK10MethodInfoP11Il2CppClassEEj17ReflectionMapHashIS7_ENS0_8equal_toIS7_EENS0_9allocatorINS1_IK10KeyWrapperIS7_EjEEEEEC2EjRKS9_RKSB_
kHc:_ArrayList_set_Item_m1858827078
bca:__ZN9Texture3D23VirtualRedirectTransferER19StreamedBinaryWriteILb0EE
dTc:_DateTime_System_IConvertible_ToInt32_m2789391054
_vd:_HMAC__ctor_m2605930831
DLa:__ZNK23ForwardShaderRenderLoop18RenderObjectSorterILb1EEclERK21ForwardRenderPassDataS4_
ZA:__Z76Register_UnityEngine_Audio_AudioClipPlayable_INTERNAL_CALL_GetLoopedInternalv
Xng:__ZN15dense_hashtableI10KeyWrapperIPK19Il2CppGenericMethodES4_N6il2cpp8metadata23Il2CppGenericMethodHashEN14dense_hash_setIS4_S7_NS4_14EqualsComparerINS6_26Il2CppGenericMethodCompareEEENSt3__29allocatorIS4_EEE8IdentityESB_SE_E12maybe_shrinkEv
Tta:__ZN10BufferGLES10BeginWriteEjj
Wng:__ZNK15dense_hashtableI10KeyWrapperIPK19Il2CppGenericMethodES4_N6il2cpp8metadata23Il2CppGenericMethodHashEN14dense_hash_setIS4_S7_NS4_14EqualsComparerINS6_26Il2CppGenericMethodCompareEEENSt3__29allocatorIS4_EEE8IdentityESB_SE_E12test_deletedEj
tLa:__ZN21BillboardBatchManager24AutoBillboardShaderPropsC2ER16ShaderKeywordSetR24BuiltinShaderParamValues
dDg:__GLOBAL__sub_I_ArrayMetadata_cpp
Nme:_UInt64_System_IConvertible_ToByte_m953298241
Sta:__ZN7ApiGLES11FlushBufferEjN2gl12BufferTargetEll
wSc:_Convert_ToUInt64_m1896191125
Lob:__ZN14SafeBinaryRead21TransferSTLStyleArrayI13dynamic_arrayI8BitFieldLj4EEEEvRT_17TransferMetaFlags
ora:__ZN12_GLOBAL__N_127PrepareReadback_ResolveMSAAER18GfxFramebufferGLESR7ApiGLESP17RenderSurfaceGLESS5_
F3d:_EnumBuilder_GetAttributeFlagsImpl_m4263246832
yec:__ZN11ShapeModule13DidDeleteMeshEP14ParticleSystem
b2d:_CustomAttributeData_GetHashCode_m3989739430
mLb:__ZNK24RendererAnimationBinding9BindValueER6ObjectRKN11UnityEngine9Animation14GenericBindingERNS3_10BoundCurveE
ie:_glBindBuffer
l3b:__ZN15CollisionModule8TransferI14SafeBinaryReadEEvRT_
Cyb:__ZN8GUIStyle8TransferI18StreamedBinaryReadILb0EEEEvRT_
wS:__ZNSt3__213__stable_sortIRN10vector_mapIijNS_4lessIiEENS_9allocatorINS_4pairIijEEEEE13value_compareENS_11__wrap_iterIPS6_EEEEvT0_SE_T_NS_15iterator_traitsISE_E15difference_typeEPNSH_10value_typeEi
DKe:_Array_InternalArray__ICollection_Add_TisCustomAttributeNamedArgument_t94157543_m1003067274_gshared
yUb:__ZN13PlayableGraph12CreateOutputI20ScriptPlayableOutputEEPT_PKc
Faa:__ZN18LoadSceneOperation13CleanupMemoryEv
m0g:_isupper
X0d:_AssemblyName__ctor_m609734316
h4:__ZNSt3__26__treeINS_12__value_typeIN9ShaderLab16FastPropertyNameEN18UnityPropertySheet11UnityTexEnvEEENS_19__map_value_compareIS3_S6_NS_4lessIS3_EELb1EEENS_9allocatorIS6_EEE7destroyEPNS_11__tree_nodeIS6_PvEE
SFd:_InternalAsyncResult_get_IsCompleted_m1463732458
gpg:__ZN6il2cpp2vm13MetadataCache24GetExportedTypeFromIndexEi
qy:__ZN18AudioMixerPlayable18InsertFMODResourceEPN4FMOD6SystemE
jgc:__Z29RegisterModule_ParticleSystemv
M2g:_getuid
GHb:__Z13RegisterClassI10MonoScriptEvv
Wod:_AttrListImpl__ctor_m3211398293
Rde:_StringBuilder_get_Chars_m256627635
Oac:__Z9UpdateTplIL27ParticleSystemCurveEvalMode2EEvRK11MinMaxCurveS3_S3_R23ParticleSystemParticlesjjRKN4math8float3x3E
Nqg:__ZN6il2cpp6icalls8mscorlib6System8MonoType22get_IsGenericParameterEP20Il2CppReflectionType
znb:__Z34scripting_class_array_element_size17ScriptingClassPtr
k9c:_MonoIO_GetException_m957022672
Q4:__ZN18StreamedBinaryReadILb0EE19TransferSTLStyleMapINSt3__23mapIN9ShaderLab16FastPropertyNameE10ColorRGBAfNS2_4lessIS5_EENS2_9allocatorINS2_4pairIKS5_S6_EEEEEEEEvRT_17TransferMetaFlags
IMd:_X509Certificate2_GetValueAsString_m1286925493
MGc:_Char_ToLower_m2719897546
qNe:_Array_InternalArray__set_Item_TisHitInfo_t1761367055_m2693590376_gshared
chd:_MonoType_IsPointerImpl_m648213545
Z1c:_InvalidOperationException__ctor_m2801133788
nUa:__ZN13RenderManager28AreCamerasUsingMotionVectorsEv
BR:__Z25InitializeLODGroupManagerPv
UKe:_Array_InternalArray__ICollection_Add_TisUriScheme_t1876590943_m3218110478_gshared
nFa:__ZNK12ImageFilters28ApplyAfterTransparentFiltersEv
ojc:__ZN11UnityEngine7Connect15AppRunningEvent12ToJsonStringER9JSONWrite
oJ:__ZN19ShaderPropertySheet5ClearEb
NCd:_TlsServerCertificate_ProcessAsTls1_m3083203628
rJa:__ZNK6Camera11GetPositionEv
Tch:_emscripten_glClearDepth__wrapper
xRc:_Convert_ToSByte_m1880147062
yXa:__ZNK16MemoryFileSystem8FilenameERK13FileEntryData
mf:_glUniform1fv
qf:_JS_FileSystem_Sync
eoc:_MD5CryptoServiceProvider_HashCore_m2367253552
Qla:__ZNSt3__26__treeINS_12__value_typeI21GLESRenderTargetSetupN2gl6HandleILNS3_10ObjectTypeE9EEEEENS_19__map_value_compareIS2_S7_NS_4lessIS2_EELb1EEENS_9allocatorIS7_EEE7destroyEPNS_11__tree_nodeIS7_PvEE
nnf:_X509StoreManager_get_TrustedRootCertificates_m122138510
_dg:_UnityAction_1_BeginInvoke_m530778538_gshared
of:__emscripten_sample_gamepad_data
vIb:__Z22DelayedDestroyCallbackP6ObjectPv
Xlc:__ZN20UnityWebRequestProtoI19TransportJavaScript16AtomicRefCounter14RedirectHelper14ResponseHelper15DownloadHandler13UploadHandler12HeaderHelper14AsyncOperationE19Job_InvokeCoroutineEPS7_
Gjc:__ZN11UnityEngine7Connect20BasePersistentValues13RestoreValuesER8JSONRead
txd:_KeyGeneratedEventHandler_Invoke_m1298576133
agb:__ZN11TimeManagerD0Ev
a6a:__ZN9Texture2D16DeleteGfxTextureEv
qX:__ZN20LocalFileSystemPosix4OpenER13FileEntryData14FilePermission16FileAutoBehavior
Uvd:_KeyBuilder_get_Rng_m2539978716
hqf:_AudioClipPlayable_INTERNAL_CALL_ValidateType_m1977251214
eng:__ZN15dense_hashtableINSt3__24pairIK10KeyWrapperIN6il2cpp5utils13dynamic_arrayIPK10Il2CppTypeLj4EEEEPFvvEEESA_NS3_8metadata19Il2CppSignatureHashEN14dense_hash_mapISA_SD_SG_NSA_14EqualsComparerINSF_22Il2CppSignatureCompareEEENS0_9allocatorISE_EEE9SelectKeyESK_SM_ED2Ev
LNb:__Z37GetTransformFromComponentOrGameObjectP6Object
iBe:_ShimEnumerator_get_Current_m2516732679_gshared
mSa:__ZN23ManagedAttributeManager21GetRequiredComponentsE17ScriptingClassPtr
xha:__ZN9GfxDevice18GetNumGraphicsJobsEj
fVa:__Z23InitializeStdConvertersv
AKa:__ZN19ShaderPropertySheet17UpdateTextureInfoEiRK23FastTexturePropertyNamePK10TextureRef
gBa:__ZZ23InitPlayerLoopCallbacksvEN38PreUpdateCheckTexFieldInputRegistrator7ForwardEv
aKg:__ZNK10KeyWrapperINSt3__24pairIPKcS3_EEE14EqualsComparerI26NamespaceAndNamePairEqualsEclERKS5_SA_
KXc:_StackTrace__ctor_m772333217
Xvc:_Single_System_IConvertible_ToSingle_m2540530435
rrd:_X509CertificateEnumerator__ctor_m1500464146
Nje:_Type_get_IsPointer_m3832342327
mHg:__ZN6il2cpp2vm9Exception27GetExecutionEngineExceptionEPKc
hDe:_Dictionary_2_System_Collections_ICollection_CopyTo_m2784181332_gshared
Cg:_JS_WebRequest_GetResponseHeaders
TWa:__ZNSt3__26__treeINS_12__value_typeI26SerializedObjectIdentifieriEENS_19__map_value_compareIS2_S3_NS_4lessIS2_EELb1EEENS_9allocatorIS3_EEE7destroyEPNS_11__tree_nodeIS3_PvEE
Bwg:__ZN15dense_hashtableINSt3__24pairIK10KeyWrapperINS1_IPK14Il2CppAssemblyP11Il2CppClassEEEjEES9_17ReflectionMapHashIS8_EN14dense_hash_mapIS9_jSD_NS9_14EqualsComparerINS0_8equal_toIS8_EEEENS0_9allocatorISB_EEE9SelectKeyESI_SK_EC2ERKSN_j
V3b:__ZN13InitialModule8TransferI24GenerateTypeTreeTransferEEvRT_
XQb:__ZN9Scripting18RaiseNullExceptionEPKcz
sU:__ZN13RuntimeStaticI13RendererSceneLb0EE16StaticInitializeEPv
sYe:__Z46RuntimeInvoker_RuntimeObject_Int32_t2071877448PFvvEPK10MethodInfoPvPS4_
Ng:_glCreateProgram
LAg:__ZN6il2cpp2vm10Reflection7IsFieldEP12Il2CppObject
QIc:_SimpleEnumerator_Reset_m3524591211
c0a:__ZN24GenerateTypeTreeTransfer32TransferSTLStyleArrayWithElementI17SortingLayerEntryEEvRT_17TransferMetaFlags
I8g:_glUniformMatrix3fv__wrapper
V1a:__ZN5Light9SetupHaloEv
Bvb:__Z18Transfer_BlittableI18StreamedBinaryReadILb1EELb1E12PropertyNameEvRK29SerializationCommandArgumentsR31RuntimeSerializationCommandInfo
ovc:_SecurityFrame__ctor_m3738328608_AdjustorThunk
GBg:__ZN15dense_hashtableINSt3__24pairIK10KeyWrapperIPK22Il2CppGenericParameterEPK24MonoGenericParameterInfoEES6_N6il2cpp5utils11PointerHashIS4_EEN14dense_hash_mapIS6_SA_SF_NS6_14EqualsComparerINS0_8equal_toIS5_EEEENS0_9allocatorISB_EEE9SelectKeyESK_SM_EC2ERKSP_j
aJ:__ZN23TransformChangeDispatch12CleanupClassEPv
GQ:__ZNSt3__26__treeINS_12__value_typeI18UnityInterfaceGUIDP15IUnityInterfaceEENS_19__map_value_compareIS2_S5_NS_4lessIS2_EELb1EEE13stl_allocatorIS5_L18MemLabelIdentifier6ELi16EEE7destroyEPNS_11__tree_nodeIS5_PvEE
auc:_EvidenceEnumerator_get_Current_m632582639
TNa:__Z15CullLocalLightsR8JobFenceS0_RK22SceneCullingParametersiPK8Vector4fRK13dynamic_arrayIhLj1EER9IndexListSC_PfP5RectTIfEP13TargetEyeMaskPPK5LightRK14ShadowCullData
Azc:_DecoderFallback_get_ReplacementFallback_m2155645318
C1:__ZNK6Camera16GetTargetTextureEv
APc:_Convert_ToDateTime_m3528521877
dob:__Z35Transfer_Blittable_SingleValueFieldI14SafeBinaryReadyEvRT_R17GeneralMonoObjectRK23StaticTransferFieldInfo
_3a:__ZN8Playable20ClearInputConnectionEi
udc:__Z34ParticleSystemRenderer_RenderTrailRK15RenderNodeQueueRK17BatchInstanceDataR21DynamicVBOChunkHandleR13dynamic_arrayIN10DynamicVBO10DrawParamsELj4EER9GfxDevice
hHa:__ZN13BatchRenderer12EndLoopFlushEv
WYc:_Enum_System_IConvertible_ToChar_m1838232954
__c:_CultureInfo_CreateTextInfo_m2269397562
xTd:_SerializationInfoEnumerator_get_Current_m173929557
gIb:__ZN16MessageForwarder23RegisterMessageCallbackEiPFvPviR11MessageDataEPKN5Unity4TypeE
wh:_gmtime
Dh:_emscripten_glUniform3i
ema:__ZNK7ApiGLES10GetContextEv
Qvc:_Single_System_IConvertible_ToInt16_m962677079_AdjustorThunk
Rmb:__Z18Transfer_BlittableI14SafeBinaryReadLb1E5RectTIfEEvRK29SerializationCommandArgumentsR31RuntimeSerializationCommandInfo
cba:__ZN15TextureSettings14SetAnisoLimitsEii
Asb:__Z19TransferField_ArrayI24GenerateTypeTreeTransfer27Converter_SimpleNativeClassI10RectOffsetEEvRK23StaticTransferFieldInfoR31RuntimeSerializationCommandInfoRT0_
T7:__ZN6prcoreL17RemapGenericFloatI18TexFormatARGBFloat15TexFormatRGHalfEEvPKNS_9InnerInfoE
fug:_il2cpp_object_unbox
mtc:_String_memcpy2_m2338403668
b1b:__ZN36ExternalForcesModulePropertyBindings13GetFloatValueERK14ParticleSystemi
NG:__GLOBAL__sub_I_runtime_graphics_lod_lump_cpp
QMe:_Array_InternalArray__set_Item_TisDateTime_t693205669_m197118909_gshared
u6d:_ModuleBuilder_GetToken_m4190668737
peh:_emscripten_glIsProgram__wrapper
zLb:__ZL22PrepareMeshRenderNodesILb1EEvR35RenderNodeQueuePrepareThreadContext
pZf:__ZL66NativeContainerAttribute_t269240268_CustomAttributesCacheGeneratorP21CustomAttributesCache
_X:__ZN20LocalFileSystemPosix5TouchER13FileEntryData
NYb:__ZN9JSONWrite8TransferI13dynamic_arrayItLj2EEEEvRT_PKc17TransferMetaFlags
ige:_NativeEventCalls_SetEvent_internal_m2449488771
Th:_emscripten_glDrawElements
B9b:__Z11EvaluateHDRIL12GradientMode1ELS0_0EEN4math8floatNx4ERK14MinMaxGradientRKNS1_7_float4ES8_
uqc:_RSAPKCS1SignatureDeformatter_SetHashAlgorithm_m894366837
ord:_X509Certificate_get_DSA_m3959895595
KDc:_Boolean_System_IConvertible_ToDouble_m624978277
lce:_ResourceInfo_t3933049236_marshal_pinvoke
qWd:_ObjectReader_ReadObjectGraph_m4290798209
Jae:_MonoProperty_GetValue_m2150318626
Hie:_TimeSpan_CompareTo_m2891128664
rmf:_PKCS12_AddCertificate_m3637520737
anb:__ZL26Transfer_SimpleNativeClassI14SafeBinaryRead8GradientLb0EEvRK29SerializationCommandArgumentsR31RuntimeSerializationCommandInfo
Edh:_emscripten_glClientActiveTexture__wrapper
sog:__ZNK15dense_hashtableI10KeyWrapperIPK17Il2CppGenericInstES4_N6il2cpp8metadata21Il2CppGenericInstHashEN14dense_hash_setIS4_S7_NS4_14EqualsComparerINS6_24Il2CppGenericInstCompareEEENSt3__29allocatorIS4_EEE8IdentityESB_SE_E4findERKS4_
d6e:__Z71RuntimeInvoker_Double_t4078015681_Double_t4078015681_Double_t4078015681PFvvEPK10MethodInfoPvPS4_
amd:_PrimalityTests_RabinMillerTest_m1376858197
inc:_HMACSHA1__ctor_m2027292306
w_d:_DES_Create_m2705450713
enf:_X509CertificateCollection_Remove_m2722259192
TJe:_Array_InternalArray__IndexOf_TisSingle_t2076509932_m2151846718_gshared
QJa:__Z24CalculateLightShadowFadeRK6CamerafffR8Vector4f
L$:__ZN13RenderTexture23VirtualRedirectTransferER18StreamedBinaryReadILb0EE
GMf:__ZL56StringBuilder_t1221177846_CustomAttributesCacheGeneratorP21CustomAttributesCache
T0c:_NumberFormatter_FormatHexadecimal_m1317851390
LNd:_X509Certificate2Collection_AddRange_m1503879780
tsa:__Z17ComputeMipmapSizeiii14GraphicsFormat
gad:_StreamReader__ctor_m871771009
Soa:__ZN4crnd12crn_unpacker12unpack_dxt5aEPPhjjjjjj
vDg:__ZNK15dense_hashtableINSt3__24pairIK10KeyWrapperINS1_IP11Il2CppClassjEEES4_EES6_N6il2cpp8metadata14ArrayClassHashEN14dense_hash_mapIS6_S4_SB_NS6_14EqualsComparerINSA_17ArrayClassCompareEEENS0_9allocatorIS8_EEE9SelectKeyESF_SH_E3endEv
Ohf:_AnchorInfo_get_Length_m1721106162
wag:_Transform_get_childCount_m881385315
BUd:_RemotingConfiguration_RegisterActivatedClientType_m2207611714
esf:_GameObject_GetComponentInChildren_m4263325740
dCe:_Transform_1_Invoke_m1224512163_gshared
XZg:__ZN6il2cpp2os5Mutex4LockEb
axb:__Z29Transfer_Blittable_ArrayFieldI18StreamedBinaryReadILb1EE8Vector2fEvRT_R9ArrayInfoRK23StaticTransferFieldInfo
lT:__ZN14PlayableOutput15PrepareTraverseERK9FrameData
THg:__ZN6il2cpp2vm13LivenessState25FieldCanContainReferencesEP9FieldInfo
ozb:__ZL19RequireCorLibMethodPKcS0_S0_
Hvf:_MonoBehaviour_IsInvoking_m1469271462
wcb:__ZN15SerializeTraitsI13dynamic_arrayI10BlendShapeLj4EEE19ResizeSTLStyleArrayERS2_i18MemLabelIdentifier
a_a:__ZNK5Unity9Component22GetTypeVirtualInternalEv
xEf:__ZL111RegionInfo_t3784626978_CustomAttributesCacheGenerator_RegionInfo_t3784626978____CurrencyNativeName_PropertyInfoP21CustomAttributesCache
Ync:_MD5_Create_m1572997499
Zsd:_AppDomain_LoadAssembly_m1537679648
G8:__ZN6prcoreL26RemapGenericIntegerToFloatI17TexFormatARGB888817TexFormatRGBFloatEEvPKNS_9InnerInfoE
R2e:__Z146RuntimeInvoker_Void_t1841601450_RuntimeObject_RuntimeObject_Int64_t909078037_RuntimeObject_RuntimeObject_RuntimeObject_RuntimeObject_RuntimeObjectPFvvEPK10MethodInfoPvPS4_
fPa:__ZN15LODGroupManager27GarbageCollectCameraLODDataEv
g2:__ZN11NamedObjectC2E18MemLabelIdentifier18ObjectCreationMode
rUa:__ZN13ScreenManagerC2Ev
X$d:_OrdinalComparer_GetHashCode_m3400975772
Nrb:__Z18Transfer_BlittableI24GenerateTypeTreeTransferLb0E12PropertyNameEvRK29SerializationCommandArgumentsR31RuntimeSerializationCommandInfo
ama:__ZN7ApiGLES4InitERK14GfxContextGLESR16GfxDeviceLevelGL
Mba:__ZNK11LightProbes14LightProbeData33GetLightProbeInterpolationWeightsERK8Vector3fRiR8Vector4fRf
aTd:_SoapServices_GetAssemblyName_m2037446159
iZa:__ZN21UnityDefaultAllocatorI17LowLevelAllocatorED0Ev
Epa:__Z14DecodeBC7BlockP9HDRColorAPKh
kLb:__ZNK24RendererAnimationBinding12GetPPtrValueERKN11UnityEngine9Animation10BoundCurveE
IAd:_ClientSessionCache__cctor_m1134810266
Kif:_CharacterClass_GetIntervalCost_m2706255216
DWd:_ObjectReader_ReadGenericArray_m788836286
o3f:_Queue_1__ctor_m4288477928_gshared
jXg:_GC_new_proc_inner
Kb:invoke_fiiffi
gmc:__ZN14RedirectHelper10RedirectToERKN4core12basic_stringIcNS0_20StringStorageDefaultIcEEEES6_
l$:__ZN19RenderBufferManager13GetTempBufferE17RenderTextureDesc
mmb:__Z35Transfer_Blittable_FixedBufferFieldI14SafeBinaryReadiEvRK29SerializationCommandArgumentsR31RuntimeSerializationCommandInfo
Woc:_RijndaelManagedTransform_TransformFinalBlock_m3663752599
iyc:_String_Format_m4262916296
Uca:__ZL24stbir__filter_catmullromff
nkd:_SimpleCollator_CompareInternal_m280569710
gNd:_X509ExtensionEnumerator_get_Current_m3926549773
E6e:__Z77RuntimeInvoker_TimeSpan_t3430258949_TimeSpan_t3430258949_TimeSpan_t3430258949PFvvEPK10MethodInfoPvPS4_
Xrg:__ZN6il2cpp6icalls8mscorlib6SystemL16CheckMemberMatchI9EventInfoNS_5utils10functional6FilterINSt3__212basic_stringIcNS8_11char_traitsIcEENS8_9allocatorIcEEEENS5_13VmStringUtils21CaseSensitiveComparerEEEEEbPKT_PK11Il2CppClassSN_iRKT0_
c1c:_NumberFormatter_IsZeroOnly_m3495795110
E5c:_Int32_ValidDigit_m2682121722
iSa:__Z23ValidateScriptComponentP10MonoScriptPN4core12basic_stringIcNS1_20StringStorageDefaultIcEEEE
Xab:__ZNSt3__215__inplace_mergeIRNS_4lessI4PPtrI11SpriteAtlasEEENS_11__wrap_iterIPS4_EEEEvT0_SA_SA_T_NS_15iterator_traitsISA_E15difference_typeESE_PNSD_10value_typeEi
XXd:_SerializationInfo_AddValue_m2342806462
N9b:__Z18MagnitudeUpdateTplIL27ParticleSystemCurveEvalMode0EEvRK11MinMaxCurveR23ParticleSystemParticlesjjRKN4math7_float4E
iMd:_X509BasicConstraintsExtension__ctor_m4017912156
Q7g:_glTexStorage3D__wrapper
iZg:__ZNSt3__26__treeINS_12__value_typeINS_12basic_stringIcNS_11char_traitsIcEENS_9allocatorIcEEEEPFvvEEENS_19__map_value_compareIS7_SA_NS_4lessIS7_EELb1EEENS5_ISA_EEE25__emplace_unique_key_argsIS7_JRKNS_21piecewise_construct_tENS_5tupleIJOS7_EEENSL_IJEEEEEENS_4pairINS_15__tree_iteratorISA_PNS_11__tree_nodeISA_PvEEiEEbEERKT_DpOT0_
lkb:__Z25scripting_field_get_flags17ScriptingFieldPtr
f9d:_MonoEvent_GetObjectData_m4084431065
M_b:__ZN8JSONRead8TransferIyEEvRT_PKc17TransferMetaFlagsb
Lmb:__Z18Transfer_BlittableI14SafeBinaryReadLb0EtEvRK29SerializationCommandArgumentsR31RuntimeSerializationCommandInfo
kpe:_U3CGetEnumeratorU3Ec__Iterator0_MoveNext_m2489948797_gshared
AH:__ZNK20DynamicHeapAllocatorI17LowLevelAllocatorE8ContainsEPKv
pAc:_EncoderReplacementFallbackBuffer_Fallback_m4111893059
I2e:__Z128RuntimeInvoker_Void_t1841601450_Byte_t3683104436_RuntimeObject_SByte_t454417549_ObjectU26_t597476745_HeaderU5BU5DU26_t2818328198PFvvEPK10MethodInfoPvPS4_
Oxf:_PlayableHandle_INTERNAL_CALL_SetInputCountInternal_m3510545880
rHg:__ZN6il2cpp2vm14PlatformInvoke36MarshalCppStringToCSharpStringResultEPKc
QMa:__ZN8Material23GetStencilWriteMaterialEv
Rra:__Z12GetBlockSize14GraphicsFormat
y_:__ZNK9ShaderLab11ShaderState16ApplyShaderStateEjPK19ShaderPropertySheetRK17ShaderPassContextP6ShaderPNS_4PassEPNS_11SubProgramsE
dhf:_Assertion__ctor_m1169129098
a0a:__ZN10TagManager8TransferI24GenerateTypeTreeTransferEEvRT_
QQd:_InterpreterFactory_get_GroupCount_m1785101782
_Gc:_CharEnumerator_Clone_m3844021309
nnd:_BlockProcessor_Initialize_m3476609078
J$a:__ZN10TagManager23VirtualRedirectTransferER24GenerateTypeTreeTransfer
Oca:__ZL23stbir__filter_trapezoidff
eWe:_MethodCall_get_MethodName_m257326115
MPd:_Key_GetHashCode_m345804220
rYc:_Double_System_IConvertible_ToUInt16_m286326038
Uoa:__ZN4crnd12crn_unpacker11unpack_dxt1EPPhjjjjjj
Mqd:_PKCS12__ctor_m3492967071
kyg:__ZN15dense_hashtableINSt3__24pairIK10KeyWrapperINS1_IPK10MethodInfoP11Il2CppClassEEEjEES9_17ReflectionMapHashIS8_EN14dense_hash_mapIS9_jSD_NS9_14EqualsComparerINS0_8equal_toIS8_EEEENS0_9allocatorISB_EEE9SelectKeyESI_SK_E15insert_noresizeERKSB_
LT:__ZZN15DirectorManager15InitializeClassEvEN48PreLateUpdateDirectorDeferredEvaluateRegistrator7ForwardEv
IFg:__ZN6il2cpp6icalls8mscorlib6System19ExtractWidenedValueE14Il2CppTypeEnumPv
fxe:_InternalEnumerator_1_get_Current_m2198364332_gshared
RWg:_GC_invoke_finalizers
_ib:__ZNSt3__26vectorIN30RuntimeInitializeOnLoadManager9ClassInfoE13stl_allocatorIS2_L18MemLabelIdentifier12ELi16EEE6assignINS_11__wrap_iterIPS2_EEEENS_9enable_ifIXaasr21__is_forward_iteratorIT_EE5valuesr16is_constructibleIS2_NS_15iterator_traitsISC_E9referenceEEE5valueEvE4typeESC_SC_
Wmb:__Z18Transfer_BlittableI14SafeBinaryReadLb0E8BitFieldEvRK29SerializationCommandArgumentsR31RuntimeSerializationCommandInfo
B6d:_OpCode_GetHashCode_m2974727122_AdjustorThunk
d2d:_CustomAttributeNamedArgument_GetHashCode_m3715408876
FFc:_Byte_ToString_m1309661918_AdjustorThunk
f9c:_Directory_CreateDirectoriesInternal_m2817848291
_fc:__ZN13ProduceHelperI22ParticleSystemRendererLb0EE7ProduceE18MemLabelIdentifier18ObjectCreationMode
ese:_InternalEnumerator_1_System_Collections_IEnumerator_get_Current_m3546309124_gshared
XIe:_Array_BinarySearch_TisRuntimeObject_m3048647515_gshared
ife:_UTF7Encoding_GetDecoder_m396865028
x2:__ZNK9ShaderLab22ShaderStencilStateDesc17ToGfxStencilStateEPK19ShaderPropertySheetS3_RK14GfxRasterStateR15GfxStencilState
wod:_SmallXmlParser_ReadContent_m4038164984
$nf:_X509Extension_WriteLine_m364247613
hYa:__ZN15GUIEventManager10QueueEventERK10InputEvent
Fpa:__Z15DecodeBC6HBlockP9HDRColorAPKh
ynd:_CryptoConvert_FromCapiPublicKeyBlob_m812595523
w6c:_Int32_Equals_m753832628_AdjustorThunk
YWg:_GC_malloc_uncollectable
xXa:__ZNK16MemoryFileSystem6ParentERK13FileEntryDataRN4core12basic_stringIcNS3_20StringStorageDefaultIcEEEE
DR:__ZN15LODGroupManagerD2Ev
t0d:_Assembly_IsDefined_m2841897391
xug:__GLOBAL__sub_I_File_cpp
Qxa:__ZN12IFileAdapter9SetLengthER13FileEntryDatay
hc:_Mix_PlayMusic
dp:__ZN7Hash1288TransferI19StreamedBinaryWriteILb0EEEEvRT_
tqf:_AudioMixerPlayable_CreateHandle_m628052855
R8:__ZN19RuntimeSceneManager24PrepareNewBootstrapSceneEv
TAc:_Array_GetLongLength_m3005360186
WQa:__ZN10SpookyHash7Hash128EPKvjPyS2_
sOa:__ZL60CombineDirectionalShadowCasterCullingIndexListsAndDestroyJobP20ShadowCullingJobData
E4c:_Guid_ToString_m3858592945_AdjustorThunk
hue:_InternalEnumerator_1_get_Current_m3206960238_gshared
euc:_Hash_GetData_m3416116641
K$d:_HMAC_get_Block_m1367204253
tCb:__ZN9ShaderLab18SerializedPropertyC2ERKS0_
teb:__ZN14SpriteRenderer10SmartResetEv
QVc:_Decimal_System_IConvertible_ToInt64_m2504363272_AdjustorThunk
Ybe:_ResourceReader_LoadResourceValues_m1346096618
UJb:__ZN16ReflectionProbes20DidChangeActiveSceneEP10UnitySceneS1_
$0c:_NumberFormatter_RoundDecimal_m176606570
f0e:__Z90RuntimeInvoker_RuntimeObject_RuntimeObject_SByte_t454417549_RuntimeObject_SByte_t454417549PFvvEPK10MethodInfoPvPS4_
mRd:_Interval_Contains_m3209397137_AdjustorThunk
K9a:__ZN16SpriteRenderData8TransferI14SafeBinaryReadEEvRT_
iQc:_Convert_ToDouble_m1714698801
pxe:_InternalEnumerator_1_get_Current_m35328337_gshared
ywd:_MD4Managed_Encode_m2097839378
uMb:__ZN6CameraC2E18MemLabelIdentifier18ObjectCreationMode
jeg:_UnityAction_1_Invoke_m3061904506_gshared
P7c:_Int64_ToString_m1544341651
BY:__ZN20LocalFileSystemPosix4CopyER13FileEntryDataS1_
HMa:__ZL31SetRenderStateForStencilMarkingR9GfxDeviceR17ShaderPassContextjj
AAa:__ZN20ArchiveStorageReader20FillChunkCachedBlockEPNS_11CachedBlockE
I6b:__ZN11TrailModule5ResetEv
dx:__ZN10AudioMixer16ResumeProcessingEv
Cob:__ZNSt3__26vectorI17AnimationCurveTplIfE13stl_allocatorIS2_L18MemLabelIdentifier1ELi16EEE7reserveEj
Rud:_BigInteger_op_Inequality_m4286929594
X9b:__Z15UpdateRandomTplIL27ParticleSystemCurveEvalMode4EEvRK11MinMaxCurveS3_S3_R5RandNR23ParticleSystemParticlesjjRKN4math8float3x3ERKNS8_7_float4E
Xuc:_SecurityException__ctor_m230238597
cd:_glClearColor
W0c:_CustomInfo_Parse_m3558073058
B_f:_KeyValuePair_2_get_Value_m1916631176_gshared
sDb:__ZN9ShaderLab16SerializedTagMap8TransferI19StreamedBinaryWriteILb0EEEEvRT_
ZFg:__ZN6il2cpp6icalls8mscorlib6System9Threading6Thread25SetCachedCurrentUICultureEP12Il2CppThreadP12Il2CppObject
beh:_glIsVertexArray__wrapper
bUd:_RemotingServices_DisposeIdentity_m266836454
kqc:_RSAPKCS1KeyExchangeFormatter_SetRSAKey_m3575964424
OOc:_DateTimeUtils_GetStandardPattern_m4198947977
tOa:__Z22CullDirectionalShadowsR9IndexListPK9SceneNodePK4AABBR22DirectionalCullContext
$Oe:_Array_InternalArray__get_Item_TisUInt16_t986882611_m2599215710_gshared
B1d:_Default_IsArrayAssignable_m3862319150
wlf:_PKCS12_MAC_m3228833816
Gog:__ZN15dense_hashtableINSt3__24pairIK10KeyWrapperIPK11Il2CppClassEPKcEES6_N6il2cpp5utils11PointerHashIS3_EEN14dense_hash_mapIS6_S9_SE_NS6_14EqualsComparerINS0_8equal_toIS5_EEEENS0_9allocatorISA_EEE9SelectKeyESJ_SL_E4findERS7_
QXf:__ZL107AudioClipPlayable_t192218916_CustomAttributesCacheGenerator_AudioClipPlayable_Seek_m2908742681____duration2P21CustomAttributesCache
E0c:_NumberFormatter_FastAppendDigits_m2324805728
jF:__ZN11UnityEngine15CloudWebService14RestDownloader7OnAbortEv
UWd:_FormatterServices_GetUninitializedObject_m1786947853
szd:_CipherSuiteCollection_cultureAwareCompare_m1825407448
K9:__ZN13MonoBehaviour26WillUnloadScriptableObjectEv
MEa:__Z13VFormatBufferPciPKcPi
Bsb:__Z19TransferField_ArrayI24GenerateTypeTreeTransfer27Converter_SimpleNativeClassI8GradientEEvRK23StaticTransferFieldInfoR31RuntimeSerializationCommandInfoRT0_
vnc:_KeyedHashAlgorithm__ctor_m2868676404
NC:__ZN11UnityEngine15CloudWebService16SessionContainer16MarkAsDispatchedERKN4core12basic_stringIcNS2_20StringStorageDefaultIcEEEE
eMb:__ZN16GraphicsSettings15InitializeClassEv
Nld:_BigInteger_op_Subtraction_m2941563507
nLb:__ZN13ProduceHelperI11PreloadDataLb0EE7ProduceE18MemLabelIdentifier18ObjectCreationMode
FAe:_Enumerator_Reset_m3129803197_gshared
$ha:__ZNK13GfxDeviceGLES11GetViewportEv
U2:__ZNK9ShaderLab11ShaderState34ShouldRemoveAnyUnsupportedProgramsEv
zEa:__ZN19ShaderPropertySheet29PreallocateArrayUninitializedEN9ShaderLab16FastPropertyNameENS_12PropertyTypeEj
E9b:__Z25EvaluateRandomGradientHDRIL12GradientMode0ELS0_1EEN4math8floatNx4ERK14MinMaxGradientRKNS1_7_float4ES8_
mSe:_CrossAppDomainData__ctor_m899931420
Bpg:__ZL32InitializeCustomAttributesCachesPv
yya:__ZN20ArchiveStorageReaderD0Ev
Pzb:__ZN6Shader23VirtualRedirectTransferER19StreamedBinaryWriteILb0EE
RHc:_ArrayListWrapper__ctor_m3783588291
_Ve:_MethodCall_get_MethodBase_m688041003
Orc:_SHAConstants__cctor_m2781430679
Rlc:__ZN19TransportJavaScript7PrepareEv
zGe:_Array_InternalArray__ICollection_Contains_TisRuntimeObject_m4286375615_gshared
Sef:_Match_NextMatch_m1088868049
ehb:__ZN10VRSettings9Cardboard8TransferI14SafeBinaryReadEEvRT_
Nfb:__ZNSt3__214__split_bufferI9InputAxisRNS_9allocatorIS1_EEED2Ev
Qtf:_InvokableCall_add_Delegate_m1598143083
cY:__ZNK20LocalFileSystemPosix20GetApplicationFolderEv
PC:__ZN11UnityEngine15CloudWebService14DataDispatcher31SetupSessionContainerToDispatchEv
iVb:__Z68Register_UnityEngine_Object_INTERNAL_CALL_Internal_InstantiateSinglev
jzb:__Z29Transfer_Blittable_ArrayFieldI18StreamedBinaryReadILb0EE8Vector3fEvRT_R9ArrayInfoRK23StaticTransferFieldInfo
wHe:_Array_InternalArray__ICollection_Remove_TisResourceInfo_t3933049236_m1768394498_gshared
uxd:_RSAManaged_get_KeySize_m3478823737
tdc:__Z47ParticleSystemRenderer_RenderMultipleBillboardsIL21SpriteMaskInteraction2EEvRK15RenderNodeQueueRK18RenderMultipleData17ShaderChannelMask
I2:__ZN9ShaderLab11shaderprops9GetVectorEPK19ShaderPropertySheetS3_NS_16FastPropertyNameE
Ht:__ZN4FMOD12ChannelGroup10getDSPHeadEPPNS_3DSPE
y$f:_Enumerator_System_Collections_IEnumerator_Reset_m610822832_gshared
ct:__ZN12AudioManager17MainThreadCleanupEv
Ree:_UTF32Encoding_GetByteCount_m77034086
iLa:__ZNK6Camera18ScreenToWorldPointERK8Vector3f
MFg:__ZN6il2cpp6icalls8mscorlib6System9Threading6Thread11GetDomainIDEv
hha:__ZNK13TranslateGLES13GetFormatDescE14GraphicsFormat
pza:__ZN17ArchiveFileSystemD0Ev
Rge:_Thread_get_CurrentContext_m3123598616
Sdg:__ZL22div192by96to32withRestPyS_S_jjj
rLa:__ZN14qsort_internal5QSortIP20ShadowCasterSortDatai26ShadowCasterSortDataSorterEEvT_S4_T0_T1_
uF:__ZN11UnityEngine15CloudWebService19SessionEventManager5StartERKN4core12basic_stringIcNS2_20StringStorageDefaultIcEEEEii
xob:__Z22TransferField_NonArrayI14SafeBinaryRead27Converter_SimpleNativeClassI8GradientEEvRK23StaticTransferFieldInfoR31RuntimeSerializationCommandInfoRT0_
We:_emscripten_glBufferData
_e:_glUniform3iv
W1g:___fseeko
yKe:_Array_InternalArray__ICollection_Add_TisInt16_t4041245914_m321723604_gshared
$ge:_Thread_SetCachedCurrentUICulture_m1504514384
A2g:_fwrite
vjb:__ZN13MonoBehaviourD0Ev
isd:_X509CertificateEnumerator_Reset_m3421070487
XGc:_CharEnumerator_System_Collections_IEnumerator_get_Current_m1338581333
yzc:_DecoderFallback__cctor_m215821245
p7f:_Func_2_Invoke_m2968608789_gshared
jCb:__ZNSt3__26vectorIN9ShaderLab19SerializedSubShaderENS_9allocatorIS2_EEE6resizeEj
mWc:_Decimal_Multiply_m1884379383
VUa:__ZN4FileC2Ev
cUe:_Context_GetNamedDataSlot_m372993642
qyg:__ZN15dense_hashtableINSt3__24pairIK10KeyWrapperINS1_IPK10MethodInfoP11Il2CppClassEEEjEES9_17ReflectionMapHashIS8_EN14dense_hash_mapIS9_jSD_NS9_14EqualsComparerINS0_8equal_toIS8_EEEENS0_9allocatorISB_EEE9SelectKeyESI_SK_E12maybe_shrinkEv
aea:__ZN14BatchAllocator16AllocateInternalEPPvijjj
uHb:__Z13RegisterClassI6SpriteEvv
TUg:_min_bytes_allocd
Bwb:__ZN17AnimationCurveTplIfE15InvalidateCacheEv
wab:__ZN6Sprite8TransferI19StreamedBinaryWriteILb0EEEEvRT_
Jwf:_Object_get_hideFlags_m4158950869
gxa:__ZN15dense_hashtableINSt3__24pairIKN4core12basic_stringIcNS2_20StringStorageDefaultIcEEEEP20ArchiveStorageReaderEES6_20StringHash32FunctionIS6_EN14dense_hash_mapIS6_S9_SC_NS0_8equal_toIS6_EE13stl_allocatorISA_L18MemLabelIdentifier54ELi16EEE9SelectKeyESF_SI_E12expand_arrayEjN21dense_hash_map_traits17integral_constantIbLb0EEE
B2:__ZNK9ShaderLab6TexEnv11PrepareDataEiiP15GfxTextureParam
e$c:_CompareInfo_internal_compare_managed_m1173317301
Fyb:__Z22TransferField_NonArrayI18StreamedBinaryReadILb0EE27Converter_SimpleNativeClassI8GUIStyleEEvRK23StaticTransferFieldInfoR31RuntimeSerializationCommandInfoRT0_
t1:__ZNK19StereoRenderTexture7IsEmptyEv
Dad:_FileStream_get_CanSeek_m1833070492
PWg:_GC_notify_or_invoke_finalizers
e3f:_Queue_1__ctor_m2730788670_gshared
kr:__ZN9AudioClipD2Ev
wnd:_CryptoConvert_ToCapiPrivateKeyBlob_m850465939
ZOg:__ZN6il2cpp2os6Thread5SleepEjb
ET:__ZN15DirectorManagerC2Ev
aWc:_Decimal_Add_m1535064574
o4b:__ZN16CustomDataModule8TransferI24GenerateTypeTreeTransferEEvRT_
M7g:_emscripten_glUniform3f__wrapper
fpb:__ZN14SafeBinaryRead21TransferSTLStyleArrayI13dynamic_arrayI10ColorRGBAfLj4EEEEvRT_17TransferMetaFlags
nlf:_SubjectAltNameExtension_Decode_m3676245240
ERg:__ZN15dense_hashtableINSt3__24pairIK10KeyWrapperIPK19Il2CppGenericMethodEP10MethodInfoEES6_N6il2cpp8metadata23Il2CppGenericMethodHashEN14dense_hash_mapIS6_S9_SD_NS6_14EqualsComparerINSC_26Il2CppGenericMethodCompareEEENS0_9allocatorISA_EEE9SelectKeyESH_SJ_E4findERS7_
t5c:_Int16_Parse_m4244889614
Q$a:__ZN10TagManager23AddDefaultLayerIfNeededEv
w1a:__ZN10FlareLayer12AddToManagerEv
aSg:__ZN6il2cpp6icalls8mscorlib6System10Reflection10MethodBase31GetMethodFromHandleInternalTypeE12Il2CppIntPtrS5_
tpc:_RIPEMD160Managed_HHH_m1385141959
IEg:__ZNK15dense_hashtableINSt3__24pairIK10KeyWrapperINS1_IP11Il2CppClassjEEES4_EES6_N6il2cpp8metadata14ArrayClassHashEN14dense_hash_mapIS6_S4_SB_NS6_14EqualsComparerINSA_17ArrayClassCompareEEENS0_9allocatorIS8_EEE9SelectKeyESF_SH_E12test_deletedEj
SSf:__ZL79X509Chain_t777637347_CustomAttributesCacheGenerator_X509Chain_Build_m2341271288P21CustomAttributesCache
vgb:__ZN13BuildSettings23VirtualRedirectTransferER24GenerateTypeTreeTransfer
JF:__ZN11UnityEngine15CloudWebService14DataDispatcher22ResetNetworkRetryIndexEv
rsb:__ZN24GenerateTypeTreeTransfer21TransferSTLStyleArrayINSt3__26vectorI8GUIStyle13stl_allocatorIS3_L18MemLabelIdentifier1ELi16EEEEEEvRT_17TransferMetaFlags
FJa:__Z16ApplySHConstantsI28ApplyBuiltinInstancePropertyEvRT_RK20SphericalHarmonicsL2
rZb:__Z18Transfer_BlittableI8JSONReadLb1E8Vector2fEvRK29SerializationCommandArgumentsR31RuntimeSerializationCommandInfo
vAa:__ZN20ArchiveStorageReader15ReadFromStorageEyyPvPy
W4:__ZN8Material43AddDefaultShaderPropertiesToSavedPropertiesEv
bPb:__ZNK17AnimationCurveTplIfE15GetPostInfinityEv
BIa:__Z19DoPrePassRenderLoopR17RenderLoopContextR13dynamic_arrayI16RenderObjectDataLj4EES4_RK11CullResultsRP13RenderTextureSA_Pb
XH:__ZN13MemoryManager12LowLevelFreeEPvj
tpb:__Z29Transfer_Blittable_ArrayFieldI14SafeBinaryReadiEvRT_R9ArrayInfoRK23StaticTransferFieldInfo
dCa:__Z16PresentAfterDrawN9GfxDevice11PresentModeE
qoa:__ZN10DynamicVBO19FillQuadIndexBufferER21DynamicVBOChunkHandle
MAe:_Enumerator_System_Collections_IDictionaryEnumerator_get_Value_m2325383168_gshared
U9g:_glGenFramebuffers__wrapper
gch:_glBindBufferBase__wrapper
XCb:__ZN9ShaderLab19SerializedSubShader8TransferI18StreamedBinaryReadILb0EEEEvRT_
$I:__ZN23TransformChangeDispatch15InitializeClassEPv
P7f:_Nullable_1_GetHashCode_m1791015856_gshared
XIa:__ZN22MotionVectorRenderLoop16PerformRenderingER8JobFence
Qnd:_DSAManaged_ImportParameters_m987307570
TE:__ZN11UnityEngine15CloudWebService18RestFileDownloader13OnReceiveDataEPKvj
bnd:_ASN1Convert_ToInt32_m2828871616
cLd:_AsnEncodedData__ctor_m1211934482
cte:_InternalEnumerator_1_System_Collections_IEnumerator_get_Current_m1025729343_AdjustorThunk
T6g:dynCall_iiiiiiiii
GW:__ZL25InitializeUnityWebStreamsPv
Izb:__ZN6ShaderD0Ev
sjb:__ZN18BackgroundJobQueue19ScheduleJobInternalEPFvPvES0_RKNS_8JobFenceE
DWc:_Decimal_ToString_m759431975_AdjustorThunk
JCa:__ZN25CameraStackRenderingState18EndStereoRenderingEv
yX:__ZN20LocalFileSystemPosix9SetLengthER13FileEntryDatay
pTa:__ZN13dynamic_arrayIN23ReflectionProbesContext23ReflectionProbeCubeInfoELj8EE18resize_initializedEjRKS1_12ResizePolicy
SYc:_Enum__cctor_m3214832791
nHd:_HybridDictionary_set_Item_m4049906479
R_g:__ZN6il2cpp5utils25NativeDelegateMethodCache17GetNativeDelegateEPFvvE
Iqe:_InternalEnumerator_1_System_Collections_IEnumerator_get_Current_m1335784110_AdjustorThunk
jxc:_String_IndexOf_m1887352430
nhb:__ZN26PlayerSettingsSplashScreen8TransferI24GenerateTypeTreeTransferEEvRT_
L7:__ZN6prcoreL17RemapGenericFloatI18TexFormatRGBAFloat14TexFormatRHalfEEvPKNS_9InnerInfoE
Vf:_glScissor
OWa:__ZNSt3__26vectorI10vector_mapIiiNS_4lessIiEE13stl_allocatorINS_4pairIiiEEL18MemLabelIdentifier37ELi16EEES4_IS9_LS7_37ELi16EEE21__push_back_slow_pathIKS9_EEvRT_
b$d:_DSACryptoServiceProvider_ExportParameters_m2503144019
E0d:_Assembly_GetName_m790410837
YB:__Z6simd4fIN6detail9FourTupleEE13Simd4fFactoryIT_ERK13Simd4iFactoryIS3_E
h8e:__Z109RuntimeInvoker_Boolean_t3825574718_Int32_t2071877448_Int32U26_t455636984_Int32U26_t455636984_SByte_t454417549PFvvEPK10MethodInfoPvPS4_
tja:__ZN13GfxDeviceGLES21RegisterNativeTextureE9TextureIDi16TextureDimension
rm:FUNCTION_TABLE_iiiiiiif
Muf:_Gradient_Init_m4156899649
nzc:_DecoderExceptionFallback__ctor_m3330792769
HRe:_ConstructionCall_set_IsContextOk_m90795526
yse:_InternalEnumerator_1_System_Collections_IEnumerator_get_Current_m4259662004_gshared
Ech:_emscripten_glUniform4fv__wrapper
om:FUNCTION_TABLE_iiiiiiii
Roc:_RijndaelManaged_CreateEncryptor_m315737265
rLe:_Array_InternalArray__ICollection_CopyTo_TisRuntimeObject_m1162822425_gshared
eXc:_DelegateEntry__ctor_m2996191962
kNe:_Array_InternalArray__set_Item_TisUInt16_t986882611_m59367493_gshared
Lgc:__ZN19ControllerHitReportD2Ev
DBe:_Transform_1_Invoke_m1023901590_gshared
wyc:_String_GetCaseInsensitiveHashCode_m74381984
JE:__ZN11UnityEngine15CloudWebService23WebRequestUploadHandler8GetBytesEv
x6:__ZN6prcoreL12RemapGenericI11TexFormatI817TexFormatARGB4444EEvPKNS_9InnerInfoE
adg:_GenericEqualityComparer_1_Equals_m2469044952_gshared
Wgb:__ZNK14PlayerSettings22GetTypeVirtualInternalEv
xTc:_DateTime_System_IConvertible_ToUInt64_m2788957482
Kbg:_SymmetricTransform_CheckInput_m1287204652
nke:_Type_GetProperty_m1510204374
eKc:_CollectionBase_System_Collections_IList_Remove_m2931078938
rgf:_Parser__ctor_m1719025083
mKg:__ZN15dense_hashtableINSt3__24pairIK10KeyWrapperINS1_IPKcS4_EEEiEES6_24NamespaceAndNamePairHashN14dense_hash_mapIS6_iS9_NS6_14EqualsComparerI26NamespaceAndNamePairEqualsEENS0_9allocatorIS8_EEE9SelectKeyESD_SF_EC2ERKSI_j
sT:__ZN15DirectorManager12RegisterJobsEP13PlayableGraph
pF:__ZN11UnityEngine15CloudWebService14DataDispatcher10InitializeERKN4core12basic_stringIcNS2_20StringStorageDefaultIcEEEEPvjRNS0_18ICloudJobSchedulerE
jlc:__ZN22CrashReportingSettingsC2Ev
pXd:_ObjectManager_GetObject_m2241027343
aG:__ZN11UnityEngine15CloudWebService14DataDispatcher17PlayerLoopHandlerEv
ZVc:_Decimal_System_IConvertible_ToUInt64_m2457277336
mjc:__ZN11UnityEngine7Connect15AppRunningEventC2Ejjjj
AN:__Z26GetManagedAttributeManagerv
GAe:_Enumerator_System_Collections_IEnumerator_Reset_m3225937576_AdjustorThunk
ojd:_MSCompatUnicodeTable_Category_m3854768527
rEa:__ZN19ComputeShaderKernelC2ERKS_
KG:__GLOBAL__sub_I_runtime_graphics2_lump_cpp
Bhe:_Timer__cctor_m3277205579
ldb:__ZN4Mesh14ClearSkinCacheEv
DXb:__Z18Transfer_BlittableI9JSONWriteLb0EjEvRK29SerializationCommandArgumentsR31RuntimeSerializationCommandInfo
IDb:__ZL15GetIndexForNameRNSt3__23mapIN4core12basic_stringIcNS1_20StringStorageDefaultIcEEEEiNS_4lessIS5_EENS_9allocatorINS_4pairIKS5_iEEEEEERSA_
ig:__exit
e9c:_File_Exists_m1685968367
Zmf:_X509CertificateCollection_AddRange_m3644738604
uhc:__ZN22BaseUnityConnectClient19OnEnterStateStoppedEv
BZa:__ZL31FindActiveTransformWithPathImplPKcR10GameObjectb
end:_BitConverterLE_UShortFromBytes_m2795078058
K8g:_glViewport__wrapper
HN:__ZNK14dense_hash_mapIPKcPK4RTTIN11TypeManager23ConstCharPtrHashFunctorENS5_19ConstCharPtrEqualToE13stl_allocatorINSt3__24pairIKS1_S4_EEL18MemLabelIdentifier6ELi16EEE5beginEv
XBe:_Transform_1_Invoke_m2770612589_gshared
$6g:b4
a7g:b5
b7g:b6
c7g:b7
V6g:b0
W6g:b1
X6g:b2
Acb:__ZN4Mesh8TransferI24GenerateTypeTreeTransferEEvRT_
VYb:__ZN9JSONWrite8TransferI13dynamic_arrayI10ColorRGBAfLj4EEEEvRT_PKc17TransferMetaFlags
d7g:b8
e7g:b9
Cqg:__ZN6il2cpp2vm21ThreadPoolCompartmentC2Ev
x4:__Z14resize_trimmedINSt3__26vectorIN4core12basic_stringIcNS2_20StringStorageDefaultIcEEEE13stl_allocatorIS6_L18MemLabelIdentifier1ELi16EEEEEvRT_j
LC:__ZN11UnityEngine15CloudWebService16SessionContainer13DeleteArchiveERKN4core12basic_stringIcNS2_20StringStorageDefaultIcEEEE
Qac:__Z9UpdateTplIL27ParticleSystemCurveEvalMode4EEvRK11MinMaxCurveS3_S3_R23ParticleSystemParticlesjjRKN4math8float3x3E
EHc:_ArrayList_CopyTo_m1348662971
k5c:_Int16_System_IConvertible_ToUInt64_m2064691861
Kda:__ZN23TransformChangeDispatch28GetAndClearChangedTransformsE27TransformChangeSystemHandleR13dynamic_arrayI23TransformAccessReadOnlyLj4EEP19ProfilerInformation
Rxg:__ZN15dense_hashtableINSt3__24pairIK10KeyWrapperIPK10Il2CppTypeEjEES6_N6il2cpp8metadata14Il2CppTypeHashEN14dense_hash_mapIS6_jSB_NS6_14EqualsComparerINSA_26Il2CppTypeEqualityComparerEEENS0_9allocatorIS8_EEE9SelectKeyESF_SH_E9copy_fromERKSK_j
lcg:_AesTransform__cctor_m619532760
vF:__ZN19CloudServiceHandler17PauseEventHandlerEb
zJ:__ZN19ShaderPropertySheetD0Ev
NGe:_Array_InternalArray__ICollection_Contains_TisTimeSpan_t3430258949_m802614527_gshared
Vrb:__Z18Transfer_BlittableI24GenerateTypeTreeTransferLb0EaEvRK29SerializationCommandArgumentsR31RuntimeSerializationCommandInfo
ORb:__Z50AsyncOperation_Get_Custom_PropAllowSceneActivationP12Il2CppObject
wCd:_TlsClientFinished_ProcessAsSsl3_m1576972610
sC:__ZN11UnityEngine15CloudWebService18CloudServiceConfigD2Ev
Jcc:__ZN11ColorModuleD0Ev
a8:__ZN6prcoreL17RemapGenericFloatI15TexFormatRGHalf15TexFormatRFloatEEvPKNS_9InnerInfoE
Klb:__ZN11MonoManagerD2Ev
Prd:_PKCS12_Clone_m4018301141
Rwa:__ZN20ArchiveStorageReader18DestroyCachedBlockEPNS_11CachedBlockE
lBg:__ZN15dense_hashtableINSt3__24pairIK10KeyWrapperIPK14Il2CppAssemblyEPK22Il2CppMonoAssemblyNameEES6_N6il2cpp5utils11PointerHashIS4_EEN14dense_hash_mapIS6_SA_SF_NS6_14EqualsComparerINS0_8equal_toIS5_EEEENS0_9allocatorISB_EEE9SelectKeyESK_SM_E9copy_fromERKSP_j
LKe:_Array_InternalArray__ICollection_Add_TisTypeTag_t141209596_m1991820054_gshared
VDb:__ZN9ShaderLab4Pass24CreateFromSerializedPassERKNS_14SerializedPassEPK6Shader
nId:_KeysCollection_System_Collections_ICollection_CopyTo_m1079819835
gbb:__ZNK14Texture2DArray22GetTypeVirtualInternalEv
bjb:__Z14resize_trimmedINSt3__26vectorIN4core12basic_stringIcNS2_20StringStorageDefaultIcEEEE13stl_allocatorIS6_L18MemLabelIdentifier12ELi16EEEEEvRT_j
VQf:__ZL61StringSplitOptions_t2996162939_CustomAttributesCacheGeneratorP21CustomAttributesCache
NFc:_Char_System_IConvertible_ToBoolean_m1492656201
BAg:__ZN6il2cpp2vm10Reflection15GetParamObjectsEPK10MethodInfoP11Il2CppClass
c3c:_RegionInfo_get_CurrentRegion_m4024176963
RHg:__ZN6il2cpp2vm13LivenessState14TraverseObjectEP12Il2CppObjectPS1_
kb:invoke_viifiii
T$:__ZNK13RenderTexture12IsMemorylessEv
y_e:__Z110RuntimeInvoker_Int32_t2071877448_RuntimeObject_Int32_t2071877448_Int32_t2071877448_RuntimeObject_RuntimeObjectPFvvEPK10MethodInfoPvPS4_
_dd:_SynchronizedReader_ReadLine_m723354621
yne:_UInt64_ToString_m446228920_AdjustorThunk
_oa:__ZN4crnd12crn_unpacker22decode_alpha_selectorsEv
Jdg:__ZL7log2_64y
f1g:_scanexp
JY:__ZNK10FileSystem9EnumerateEPKcP13dynamic_arrayI13FileEntryInfoLj8EEb19FileEnumerationFlag
RQb:__ZN9Scripting30CreateScriptableObjectWithTypeE28ScriptingSystemTypeObjectPtrb
rec:__Z9UpdateTplIL22MinMaxGradientEvalMode1EL12GradientMode0ELS1_0EEvRK23ParticleSystemParticlesP11ColorRGBA32RK14MinMaxGradientRK23OptimizedMinMaxGradient
Kha:__ZN13GfxDeviceGLES19SetUserBackfaceModeEb
W_c:_CompareInfo_System_Runtime_Serialization_IDeserializationCallback_OnDeserialization_m3125905389
hPc:_DateTimeOffset_get_UtcDateTime_m3162550774
SWc:_Delegate_CreateDelegate_m3052767705
C1e:__Z106RuntimeInvoker_RuntimeObject_Int32_t2071877448_Int32_t2071877448_RuntimeObject_RuntimeObject_RuntimeObjectPFvvEPK10MethodInfoPvPS4_
o4d:_FieldBuilder_get_FieldHandle_m1845846823
WSc:_DateTime_System_IConvertible_ToChar_m2489529194
OPe:_ResourceSet_Dispose_m2615980752
Tjc:__ZN20UnityConnectSettingsD0Ev
gba:__Z15GetLightManagerv
xsf:_Component_CompareTag_m3443292365
W$:__ZNK13RenderTexture20GetTextureLayerCountEv
Hua:__ZN9GfxDevice13SetViewMatrixERK10Matrix4x4f
S_d:_DSA_ZeroizePrivateKey_m86428970
f7:__ZN6prcoreL12RemapGenericI17TexFormatRGBA888817TexFormatARGB1555EEvPKNS_9InnerInfoE
Dne:_UInt64_ToString_m794467354_AdjustorThunk
q9f:_ReapplyDrivenProperties_Invoke_m1090213637
CFa:__ZN13MonoBehaviour30InvokeMethodOrCoroutineCheckedE18ScriptingMethodPtr18ScriptingObjectPtrP21ScriptingExceptionPtr
ffa:__ZNSt3__27__sort3IRN18AssetBundleManager27SortPreloadDataByIdentifierEPNS1_11PreloadDataEEEjT0_S6_S6_T_
Oha:__ZN9GfxDevice21SetWorldMatrixAndTypeERK10Matrix4x4f13TransformType
Bd:emscriptenWebGLComputeImageSize
hja:__ZN13GfxDeviceGLES32CreateDepthRenderSurfacePlatformEP17RenderSurfaceBase17DepthBufferFormat
njf:_PositionAssertion_Compile_m519727600
GJe:_Array_InternalArray__IndexOf_TisIntPtr_t_m1629926061_gshared
H8c:_ObjectDisposedException__ctor_m2844841908
nTa:__ZN17SharedTextureData17GetImageReferenceEP14ImageReferenceii
ISf:__ZL99X509Certificate2_t4056456767_CustomAttributesCacheGenerator_X509Certificate2_GetNameInfo_m402390219P21CustomAttributesCache
Pkg:__ZN15dense_hashtableINSt3__24pairIK10KeyWrapperIPKcEP11Il2CppClassEES5_N6il2cpp5utils11StringUtils12StringHasherIS4_EEN14dense_hash_mapIS5_S8_SE_NS5_14EqualsComparerINSB_13VmStringUtils21CaseSensitiveComparerEEENS0_9allocatorIS9_EEE9SelectKeyESJ_SL_EC2ERKSO_j
rOg:__ZN6il2cpp6icalls8mscorlib6System9AppDomain15getFriendlyNameEP15Il2CppAppDomain
aed:_SynchronizedReader_Read_m222289562
Ded:_TextWriter_Write_m3202446297
dbb:__ZN14Texture2DArray13AwakeFromLoadE17AwakeFromLoadMode
DGa:__ZL18ReplacementPassJobPN21GfxDeviceAsyncCommand10ArgScratchEPKNS_3ArgE
pYe:__Z64RuntimeInvoker_RuntimeObject_Int32_t2071877448_Int32_t2071877448PFvvEPK10MethodInfoPvPS4_
Jha:__ZN13GfxDeviceGLES12GetSRGBWriteEv
Oo:__ZN14SafeBinaryRead21TransferSTLStyleArrayI13dynamic_arrayIiLj4EEEEvRT_17TransferMetaFlags
QV:__ZNSt3__219__merge_move_assignIRNS_4lessIN4core12basic_stringIcNS2_20StringStorageDefaultIcEEEEEEPS6_S9_NS_11__wrap_iterIS9_EEEEvT0_SC_T1_SD_T2_T_
bic:__ZN11UnityEngine15PlatformWrapper15GetBuildVersionEv
nwc:_Single_CompareTo_m1534635028_AdjustorThunk
Usf:_DelegatePInvokeWrapper_CSSMeasureFunc_t2092170507
A7a:__ZN18StreamedBinaryReadILb0EE21TransferSTLStyleArrayI13dynamic_arrayI33EnlightenTerrainChunksInformationLj4EEEEvRT_17TransferMetaFlags
fUc:_DateTimeUtils_GetStandardPattern_m32972750
sNc:_Stack_Peek_m2790636182
Goe:_Version__ctor_m85867749
QFa:__ZN18ScriptingArguments9AddIntPtrEPv
qMc:_SyncHashtable_GetEnumerator_m2934066942
Dme:_UInt32_ToString_m554020223
e1b:__GLOBAL__sub_I_runtime_particlesystem_modules3_lump_cpp
zK:__ZNSt3__26__treeINS_12__value_typeINS_4pairIPcS3_EEPFbPvR14SafeBinaryReadEEENS_19__map_value_compareIS4_SA_20smaller_tstring_pairIPKcELb1EEENS_9allocatorISA_EEE7destroyEPNS_11__tree_nodeISA_S5_EE
Qlc:__ZN20UnityWebRequestProtoI19TransportJavaScript16AtomicRefCounter14RedirectHelper14ResponseHelper15DownloadHandler13UploadHandler12HeaderHelper14AsyncOperationE20Task_FinalizeRequestEPv
bL:__ZN19ScriptingInvocationC2E18ScriptingMethodPtr
kcg:_AesManaged_Dispose_m2144430298
R4b:__ZN9SubModule8TransferI17RemapPPtrTransferEEvRT_
j$c:_CompareInfo_Equals_m1849093104
qRe:_ActivatedClientTypeEntry__ctor_m2437890002
Cqc:_SHA1_Create_m139442991
Djg:__ZN6il2cpp2vm5Class9IsGenericEPK11Il2CppClass
qmb:__Z18Transfer_BlittableI14SafeBinaryReadLb0EfEvRK29SerializationCommandArgumentsR31RuntimeSerializationCommandInfo
flf:_KeyUsageExtension_Encode_m1269721630
TDa:__Z11CopyTextureP7TextureiiiiiiS0_iiii
Cz:__ZN12AudioManagerC2E18MemLabelIdentifier18ObjectCreationMode
Mnd:_DSAManaged_get_KeySize_m3029954771
u9g:_glFramebufferTextureLayer__wrapper
HU:__ZNSt3__26__treeINS_12__value_typeIPK6CameraNS_6vectorIfNS_9allocatorIfEEEEEENS_19__map_value_compareIS4_S9_NS_4lessIS4_EELb1EEENS6_IS9_EEE7destroyEPNS_11__tree_nodeIS9_PvEE
Ckc:__ZN16UnityAdsSettings5ResetEv
_jc:__ZN20UnityConnectSettings23VirtualRedirectTransferER24GenerateTypeTreeTransfer
kte:_InternalEnumerator_1_System_Collections_IEnumerator_get_Current_m2842514953_gshared
t0e:__Z68RuntimeInvoker_Void_t1841601450_Int32_t2071877448_Single_t2076509932PFvvEPK10MethodInfoPvPS4_
yr:__ZN9AudioClip8TransferI24GenerateTypeTreeTransferEEvRT_
id:_pthread_getspecific
Ugb:__ZN14PlayerSettings5ResetEv
Xmg:__ZNK15dense_hashtableINSt3__24pairIK10KeyWrapperIN6il2cpp5utils13dynamic_arrayIPK10Il2CppTypeLj4EEEEPFvvEEESA_NS3_8metadata19Il2CppSignatureHashEN14dense_hash_mapISA_SD_SG_NSA_14EqualsComparerINSF_22Il2CppSignatureCompareEEENS0_9allocatorISE_EEE9SelectKeyESK_SM_E12test_deletedEj
dac:__Z9UpdateTplIL27ParticleSystemCurveEvalMode2EEvRK11MinMaxCurveR23ParticleSystemParticlesjjPKN4math8floatNx3E
Sxf:_PlayableHandle_GetPlayState_m514486667_AdjustorThunk
NNc:_Convert_ToBase64String_m1259091507
plf:_SubjectAltNameExtension_get_IPAddresses_m3207151211
r9b:__Z20UpdateCustomCurveTplIL27ParticleSystemCurveEvalMode3EEvRK11MinMaxCurveR23ParticleSystemParticlesiijjRKN4math5_int4E
bdd:_StreamReader__ctor_m4193167698
GT:__ZZN15DirectorManager15InitializeClassEvEN40EarlyUpdateDirectorSampleTimeRegistrator7ForwardEv
Ora:__ZN7ApiGLES15BlitFramebufferEN2gl6HandleILNS0_10ObjectTypeE9EEENS0_15FramebufferReadES3_iiNS0_15FramebufferTypeE
v3a:__ZN14RenderSettings8TransferI17RemapPPtrTransferEEvRT_
L:Math_acos
cHg:__ZN6il2cpp2vm9Exception20GetTypeLoadExceptionEv
ymc:__ZNK20UnityWebRequestProtoI19TransportJavaScript16AtomicRefCounter14RedirectHelper14ResponseHelper15DownloadHandler13UploadHandler12HeaderHelper14AsyncOperationE14GetUploadBytesEv
u1d:_Default_BindToMethod_m1132635736
Exg:__ZN15dense_hashtableINSt3__24pairIK10KeyWrapperIPK10Il2CppTypeEjEES6_N6il2cpp8metadata14Il2CppTypeHashEN14dense_hash_mapIS6_jSB_NS6_14EqualsComparerINSA_26Il2CppTypeEqualityComparerEEENS0_9allocatorIS8_EEE9SelectKeyESF_SH_E12resize_deltaEjj
QLe:_Array_InternalArray__Insert_TisBoolean_t3825574718_m1732360951_gshared
CPc:_Convert_ToDateTime_m1626410554
rNc:_Enumerator__ctor_m2494147503
SPb:__ZN13MonoBehaviour14GetOrCreateDSPEv
$Dd:_TlsStream_get_EOF_m1728604576
$ta:__ZN19ConstantBuffersGLES8UpdateCBENS_8BufferIDEiPKv
bDd:_TlsServerFinished__cctor_m3702151001
PXb:__Z30TransferField_LinearCollectionI9JSONWriteEvRK29SerializationCommandArgumentsR31RuntimeSerializationCommandInfo
ckb:__ZN17MessageIdentifier24GetOptimizedMessageCountEv
_Ie:_Array_compare_TisRuntimeObject_m1481822507_gshared
D$d:_HashAlgorithm_TransformFinalBlock_m3071802428
Jec:__ZN13InitialModuleC2Ev
Yr:__ZN12SoundManager10UnloadClipEP10SampleClip
LQb:__ZN9Scripting27SendScriptingMessageUpwardsER10GameObjectRKN4core12basic_stringIcNS2_20StringStorageDefaultIcEEEE18ScriptingObjectPtri
Uhc:__ZN11UnityEngine15PlatformWrapper16GetVideoMemoryMBEv
OZb:__Z18Transfer_BlittableI8JSONReadLb1E11ColorRGBA32EvRK29SerializationCommandArgumentsR31RuntimeSerializationCommandInfo
gjf:_Parser_IsIgnorePatternWhitespace_m2555790826
gdh:_glDepthMask__wrapper
r4b:__ZN11MinMaxCurve8TransferI24GenerateTypeTreeTransferEEvRT_
yYg:__ZN6il2cpp2vm10WaitHandle17GetPlatformHandleEP16Il2CppWaitHandle
pWd:_ObjectReader__ctor_m1523640331
tF:__ZN19CloudServiceHandler17StartEventHandlerERKN4core12basic_stringIcNS0_20StringStorageDefaultIcEEEEii
Zvb:__Z26Transfer_UnityEngineObjectI18StreamedBinaryReadILb1EELb1EEvRK29SerializationCommandArgumentsR31RuntimeSerializationCommandInfo
nyf:_PlayableOutputHandle_IsValid_m2589655993_AdjustorThunk
iud:_BigInteger_op_Equality_m3089846781
$Ha:__Z26BeginRenderQueueExtractionR15RenderNodeQueuePK16RendererCullDataRK13CullingOutputPK12LODDataArray15ExtractionFlagsP18JobBatchDispatcher
ue:_JS_Eval_SetTimeout
BM:__ZN14SafeBinaryReadC2Ev
A5e:__Z118RuntimeInvoker_Boolean_t3825574718_RuntimeObject_Int32_t2071877448_Int32_t2071877448_RuntimeObject_Int32U26_t455636984PFvvEPK10MethodInfoPvPS4_
k7c:_Int64_System_IConvertible_ToType_m189452160_AdjustorThunk
PMc:_SortedList_Add_m3160058320
B6b:__ZN17SizeBySpeedModule5ResetEv
ufa:__ZN13LoadOperation19IntegrateMainThreadEv
sYa:__ZN13MemoryManager16ThreadInitializeEj
aYc:_Double_System_IConvertible_ToChar_m398636054_AdjustorThunk
gUb:__Z53Register_UnityEngine_MonoBehaviour_GetScriptClassNamev
lQd:_Interpreter_EvalChar_m1135512271
S8d:_MonoCMethod_GetCustomAttributes_m2886701175
sPg:__ZN6il2cpp2os10ThreadImpl24CheckForUserAPCAndHandleEv
J6d:_OpCodeNames__cctor_m2437275178
o1g:_setlocale
D9d:_MonoField_GetObjectData_m3571455087
BSb:__Z54Register_UnityEngine_Camera_INTERNAL_CALL_RaycastTry2Dv
Ms:__ZNK13AudioListener22GetTypeVirtualInternalEv
BQa:__Z27scripting_array_element_ptr17ScriptingArrayPtrij
use:_InternalEnumerator_1_get_Current_m3444791149_AdjustorThunk
$9f:_SendMouseEvents_SendEvents_m2738043830
oEc:_Boolean_Equals_m294106711
Ucb:__ZN16BlendShapeVertex8TransferI18StreamedBinaryReadILb0EEEEvRT_
iQa:__ZN25CameraStackRenderingStateC2Ev
Hld:_BigInteger_op_Multiply_m3289461939
uJg:__ZN15dense_hashtableINSt3__24pairIK10KeyWrapperIP14Il2CppIUnknownEjEES5_N6il2cpp5utils11PointerHashIS3_EEN14dense_hash_mapIS5_jSB_NS5_14EqualsComparerINS0_8equal_toIS4_EEEENS0_9allocatorIS7_EEE9SelectKeyESG_SI_E3endEv
ss:__ZN9AudioClip8WWWCloseEPvS0_
Ixa:__ZN12IFileAdapter4OpenER13FileEntryData14FilePermission16FileAutoBehavior
_ce:_UTF8Encoding__ctor_m3476740866
up:__ZN14SharedMeshDataD2Ev
RUg:_GC_try_to_collect_inner
eBa:__ZZ23InitPlayerLoopCallbacksvEN40EarlyUpdateUpdateInputManagerRegistrator7ForwardEv
w3c:_SortKey_Compare_m2911165038
EBe:_Transform_1_BeginInvoke_m345445247_gshared
GEg:__ZN15dense_hashtableINSt3__24pairIK10KeyWrapperINS1_IP11Il2CppClassjEEES4_EES6_N6il2cpp8metadata14ArrayClassHashEN14dense_hash_mapIS6_S4_SB_NS6_14EqualsComparerINSA_17ArrayClassCompareEEENS0_9allocatorIS8_EEE9SelectKeyESF_SH_E15insert_noresizeERKS8_
WDg:__ZNK15dense_hashtableINSt3__24pairIK10KeyWrapperIP11Il2CppClassES4_EES5_N6il2cpp8metadata16SZArrayClassHashEN14dense_hash_mapIS5_S4_SA_NS5_14EqualsComparerINS9_19SZArrayClassCompareEEENS0_9allocatorIS7_EEE9SelectKeyESE_SG_E3endEv
fY:__ZNK22LocalFileSystemHandler17GetExecutablePathEv
uxc:_String_Compare_m2851607672
Ufe:_CompressedStack_CreateCopy_m3321727874
ED:__ZN11UnityEngine15CloudWebService16SessionContainer17CreateAndOpenFileERKN4core12basic_stringIcNS2_20StringStorageDefaultIcEEEES8_R12FileAccessor
Kx:__ZN17AudioClipPlayable18InsertFMODResourceEPN4FMOD6SystemE
Gye:_DefaultComparer_Compare_m265474847_gshared
hec:__Z9UpdateTplIL22MinMaxGradientEvalMode1EL12GradientMode1ELS1_1EEvRK23ParticleSystemParticlesP11ColorRGBA32RK14MinMaxGradientRK23OptimizedMinMaxGradientRK8Vector2f
Ooe:_Version_Equals_m637934620
G7c:_Int64_ToString_m689375889
iea:__Z9RecordJobPFvPvES_R21SingleThreadedJobInfo
Wke:_UInt16_System_IConvertible_ToBoolean_m887616848_AdjustorThunk
qQg:__ZN6il2cpp2gc16GarbageCollector7DisableEv
yMa:__ZN18DeferredRenderLoop24AddReflectionsToEmissionEP13RenderTextureS1_
hCg:__ZN14dense_hash_mapI10KeyWrapperINSt3__24pairIPK10MethodInfoP11Il2CppClassEEEj17ReflectionMapHashIS8_ENS9_14EqualsComparerINS1_8equal_toIS8_EEEENS1_9allocatorINS2_IKS9_jEEEEE15set_deleted_keyERSH_
Ssa:__Z19UnsignedIntToStringj
L4g:_i64Subtract
Jgf:_Parser_ParseEscape_m2516946817
Puc:_SecurityElement__cctor_m256761998
OYe:__Z67RuntimeInvoker_Void_t1841601450_Int32_t2071877448_Int16_t4041245914PFvvEPK10MethodInfoPvPS4_
Ysc:_X509Certificate_Import_m562956152
SRe:_ChannelData_get_ClientProviders_m648877347
wid:_NumberFormatter_NumberToString_m4251434822
kcc:__ZN14qsort_internal13Partition3WayIP16MeshTriangleDataiPFbRKS1_S4_ES6_EENSt3__24pairIT_S9_EES9_S9_T0_T1_T2_
O0g:_frexpl
Htd:_ArgumentOutOfRangeException__ctor_m2861707692
vJa:__ZN6Skybox16RenderSingleFaceEP8Materiali
Ltb:__Z18Transfer_BlittableI19StreamedBinaryWriteILb0EELb1E12PropertyNameEvRK29SerializationCommandArgumentsR31RuntimeSerializationCommandInfo
p4d:_FieldBuilder_CreateNotSupportedException_m3999938861
Y$d:_OutOfMemoryException__ctor_m1340150080
zY:__Z23EndsWithCaseInsensitivePKcjS0_j
OGb:__Z20RegisterBuiltinTypesv
Grf:_CameraCallback_Invoke_m3079065225
vme:_UInt32_Equals_m3998179817
hyc:_String_Format_m1811873526
Rqb:__Z19TransferField_ArrayI17RemapPPtrTransfer27Converter_SimpleNativeClassI10RectOffsetEEvRK23StaticTransferFieldInfoR31RuntimeSerializationCommandInfoRT0_
lVg:_GC_finalize
lg:_emscripten_glColorMask
vSb:__Z45Register_UnityEngine_Camera_get_targetTexturev
Ocb:__ZN17CollisionMeshData8TransferI18StreamedBinaryReadILb0EEEEvRT_R4Mesh
Aug:__ZN6il2cpp2os4File11GetStdInputEv
rab:__ZN18StreamedBinaryReadILb0EE21TransferSTLStyleArrayI13dynamic_arrayI7SubMeshLj4EEEEvRT_17TransferMetaFlags
cLa:__Z21StoreShadowMapInCacheP14ShadowMapCacheRK17ShadowCachingDatai
ofb:__Z14RecalculateUVs14StrideIteratorI8Vector2fES1_S_I8Vector3fER9Texture2DRKS0_RK5RectTIfERK8Vector4fSB_S7_21SpritePackingRotationf
kJg:__ZNK15dense_hashtableINSt3__24pairIK10KeyWrapperIP14Il2CppIUnknownEjEES5_N6il2cpp5utils11PointerHashIS3_EEN14dense_hash_mapIS5_jSB_NS5_14EqualsComparerINS0_8equal_toIS4_EEEENS0_9allocatorIS7_EEE9SelectKeyESG_SI_E13find_positionERS6_
t5b:__ZN11TrailModule8TransferI18StreamedBinaryReadILb0EEEEvRT_
XZe:__Z42RuntimeInvoker_UInt64_t2909196914_IntPtr_tPFvvEPK10MethodInfoPvPS4_
aff:_MatchCollection_CopyTo_m4207128571
QKc:_Hashtable_ToPrime_m4277665615
HKb:__ZL20DidChangeActiveSceneP10UnitySceneS0_
Ktf:_ArgumentCache_TidyAssemblyTypeName_m1302102306
m_b:__Z30TransferField_LinearCollectionI8JSONReadEvRK29SerializationCommandArgumentsR31RuntimeSerializationCommandInfo
Dcc:__ZN14EmissionModuleD0Ev
Y3:__ZN14SafeBinaryRead19TransferSTLStyleMapINSt3__23mapIN9ShaderLab16FastPropertyNameEN18UnityPropertySheet11UnityTexEnvENS1_4lessIS4_EENS1_9allocatorINS1_4pairIKS4_S6_EEEEEEEEvRT_17TransferMetaFlags
Ina:__ZN13GfxDeviceGLES21ProcessPendingMipGensEv
zZb:__Z18Transfer_BlittableI8JSONReadLb1EsEvRK29SerializationCommandArgumentsR31RuntimeSerializationCommandInfo
mqa:__ZL25ProgramUniformMatrix3x4fvPK7ApiGLESjiihPKv
cqf:_PlayableHandle_INTERNAL_CALL_GetPlayStateInternal_m3547377595
ZHb:__ZN17GlobalGameManagerC2E18MemLabelIdentifier18ObjectCreationMode
W7d:_MethodBase_GetParameterCount_m3877953436
rib:__ZNK22GenericPropertyBinding13GetFloatValueERKN11UnityEngine9Animation10BoundCurveE
zea:__ZN27TimeSliceAwakeFromLoadQueue19IntegrateTimeSlicedEi
_ab:__ZN23SharedMeshRenderingData6UnloadEv
U9b:__Z15UpdateRandomTplIL27ParticleSystemCurveEvalMode3EEvRK11MinMaxCurveS3_S3_R5RandNR23ParticleSystemParticlesjjRKN4math8float3x3ERKNS8_7_float4E
lN:__Z27scripting_class_get_methods17ScriptingClassPtrRNSt3__26vectorI18ScriptingMethodPtr13stl_allocatorIS2_L18MemLabelIdentifier1ELi16EEEE
VR:__ZL28CleanupRendererUpdateManagerPv
cN:__ZNSt3__23mapIiP15MonoScriptCacheNS_4lessIiEE13stl_allocatorINS_4pairIKiS2_EEL18MemLabelIdentifier76ELi16EEEixERS7_
DDb:__ZN19StreamedBinaryWriteILb0EE21TransferSTLStyleArrayINSt3__26vectorIN9ShaderLab20SerializedSubProgram12UAVParameterENS2_9allocatorIS6_EEEEEEvRT_17TransferMetaFlags
rpf:_AudioClipPlayable_InternalCreateAudioClipPlayable_m311079462
fXg:_GC_push_typed_structures_proc
w0f:_List_1_RemoveAt_m1644402641_gshared
DS:__ZN16LightmapSettings15AppendLightmapsEiRK13dynamic_arrayI12LightmapDataLj4EE
mng:__ZN30dense_hashtable_const_iteratorINSt3__24pairIK10KeyWrapperIN6il2cpp5utils13dynamic_arrayIPK10Il2CppTypeLj4EEEEPFvvEEESA_NS3_8metadata19Il2CppSignatureHashEN14dense_hash_mapISA_SD_SG_NSA_14EqualsComparerINSF_22Il2CppSignatureCompareEEENS0_9allocatorISE_EEE9SelectKeyESK_SM_EppEv
sX:__ZN20LocalFileSystemPosix4ReadER13FileEntryDatayPvPy
QId:_FileWebRequest_GetObjectData_m3667486695
bwb:__Z19TransferField_ArrayI18StreamedBinaryReadILb1EE27Converter_UnityEngineObjectEvRK23StaticTransferFieldInfoR31RuntimeSerializationCommandInfoRT0_
BSc:_CultureAwareComparer_Equals_m3891174449
_nd:_KeyPairPersistence__ctor_m2662458254
QVd:_FixupRecord_FixupImpl_m2837267335
bFe:_Dictionary_2_U3CCopyToU3Em__0_m2061238213_gshared
MK:__ZN18ScriptingArguments9AddStructEPKv
Y7c:_IntPtr__ctor_m4104029105_AdjustorThunk
KUc:_DateTimeOffset_Equals_m3467127074_AdjustorThunk
Snc:_MACTripleDES_Dispose_m327233254
GXd:_CallbackHandler_BeginInvoke_m2132218624
rCb:__ZNSt3__26vectorIN9ShaderLab18SerializedPropertyENS_9allocatorIS2_EEE8__appendEj
Rnd:_DSAManaged_CreateSignature_m1139224029
dZd:_SByte_System_IConvertible_ToInt64_m2979869236
$nb:__ZN14SafeBinaryRead8TransferIdEEvRT_PKc17TransferMetaFlags
xWc:_Decimal_Equals_m1115043331_AdjustorThunk
Bcb:__ZN14BlendShapeData8TransferI24GenerateTypeTreeTransferEEvRT_
iGc:_Char_System_IConvertible_ToSByte_m2054294501_AdjustorThunk
xja:__ZN13GfxDeviceGLES17UploadTextureCubeE9TextureIDPKhiii14GraphicsFormati18TextureUploadFlags
zmf:_X509Certificate_get_Hash_m2470366345
FOg:__ZN6il2cpp6icalls8mscorlib6SystemL24string_icall_is_in_arrayEP11Il2CppArrayiDs
hsg:__ZN6il2cpp2vm7Runtime4InitEPKcS3_
pib:__ZN15ResourceManager8TransferI19StreamedBinaryWriteILb0EEEEvRT_
tkd:_SimpleCollator_IsSuffix_m3137828155
zrc:_SHA512Managed_HashCore_m3357570262
RPc:_Convert_ToDecimal_m4037963518
x8b:__ZNK9SubModule6UpdateER24ParticleSystemUpdateDataR23ParticleSystemParticlesjjRKN4math7_float4E
h9a:__ZNSt3__26vectorIN15QualitySettings14QualitySettingENS_9allocatorIS2_EEE7reserveEj
Leh:b95
mOb:__ZNK12CachedWriter11GetPositionEv
P4g:___muldsi3
ASa:__ZN10GameObject12SetHideFlagsEN6Object9HideFlagsE
hMb:__ZN13RenderManager30RemoveAllIntermediateRenderersEv
VF:__ZN11UnityEngine15CloudWebService17WebFileDownloaderINS0_20WebRequestRestClientENS0_23WebRequestRestHeaderMapEE10InitializeERKN4core12basic_stringIcNS5_20StringStorageDefaultIcEEEESB_SB_
Wma:__ZN13GfxDeviceGLES16SetComputeBufferE15ComputeBufferIDi20ComputeBufferCounterbb
KRc:_Convert_ToSingle_m2579590104
si:_emscripten_request_pointerlock
wJc:_BitArray_Get_m659851701
mjf:_Parser_IsECMAScript_m926812226
kVb:__Z66Register_UnityEngine_Object_GetOffsetOfInstanceIDInCPlusPlusObjectv
CHa:__Z22CullAllPerObjectLightsiRK15RenderNodeQueueRK12ActiveLightsR27PerObjectLightCullingOutput
_ma:__ZNK15dense_hashtableINSt3__24pairIK9TextureIDiEES2_N12TextureIdMap20TextureIDHashFunctorEN14dense_hash_mapIS2_iS6_NS0_8equal_toIS2_EE13stl_allocatorIS4_L18MemLabelIdentifier65ELi16EEE9SelectKeyES9_SC_E13find_positionERS3_
Slc:__ZN20UnityWebRequestProtoI19TransportJavaScript16AtomicRefCounter14RedirectHelper14ResponseHelper15DownloadHandler13UploadHandler12HeaderHelper14AsyncOperationE8FinalizeEv
n_b:__Z26Transfer_UnityEngineObjectI8JSONReadLb0EEvRK29SerializationCommandArgumentsR31RuntimeSerializationCommandInfo
ssg:__ZN6il2cpp5utils9PathUtils7CombineIcEENSt3__212basic_stringIT_NS3_11char_traitsIS5_EENS3_9allocatorIS5_EEEERKSA_RKNS0_10StringViewIS5_EE
MP:__ZN17TransformInternal20FreeTransformHandlesER18TransformHierarchyi
a:HEAP8
uVb:__Z41Register_UnityEngine_Object_DestroyObjectv
oLc:_HashValues__ctor_m1179103037
k9a:__ZNSt3__26vectorIN15QualitySettings14QualitySettingENS_9allocatorIS2_EEEC2INS_11__wrap_iterIPS2_EEEET_SA_RKS4_PNS_9enable_ifIXaasr21__is_forward_iteratorISA_EE5valuesr16is_constructibleIS2_NS_15iterator_traitsISA_E9referenceEEE5valueEvE4typeE
s4a:__ZN8Playable14ProcessVisitorER19DirectorVisitorInfo
UIa:__ZNK6Camera17GetProjectionNearEv
sA:__ZN16BaseVideoTexture18PauseVideoTexturesEv
Odb:__ZN12MeshRenderer23VirtualRedirectTransferER19StreamedBinaryWriteILb0EE
muf:_UnityEvent__ctor_m588741179
ROc:_DateTime__ParseString_m2623687350
Mqf:_AudioPlayableGraphExtensions_INTERNAL_CALL_InternalCreateAudioOutput_m285536192
Qze:_Enumerator_System_Collections_IDictionaryEnumerator_get_Value_m313528997_gshared
hke:_Type_IsInstanceOfType_m2802212815
Qeh:_glGetError__wrapper
oWb:__ZN9rapidjson13GenericReaderINS_4UTF8IcEES2_13JSONAllocatorE9ParseNullILj1ENS_25GenericInsituStringStreamIS2_EENS_15GenericDocumentIS2_S3_S3_EEEEvRT0_RT1_
Lvd:_ARC4Managed_get_Key_m3234603170
w7:__ZN6prcoreL17RemapGenericFloatI16TexFormatRGFloat18TexFormatARGBFloatEEvPKNS_9InnerInfoE
Ghe:_Scheduler_InternalRemove_m3311205655
UMb:__Z13RegisterClassI16LevelGameManagerEvv
Yeb:__ZN14SpriteRenderer8TransferI24GenerateTypeTreeTransferEEvRT_
Hob:__Z29Transfer_Blittable_ArrayFieldI14SafeBinaryRead12PropertyNameEvRT_R9ArrayInfoRK23StaticTransferFieldInfo
bjc:__ZN18UnityConnectClient14QueueCoreEventERN11UnityEngine15CloudWebService17CloudServiceEventEb
ayb:__ZL26Transfer_SimpleNativeClassI18StreamedBinaryReadILb0EE17AnimationCurveTplIfELb1EEvRK29SerializationCommandArgumentsR31RuntimeSerializationCommandInfo
eCf:__ZL43MemberInfo_t_CustomAttributesCacheGeneratorP21CustomAttributesCache
tke:_Type_IsContextfulImpl_m1952300657
tzd:_CipherSuiteCollection_get_Item_m2606225922
wig:__ZN15dense_hashtableINSt3__24pairIK10KeyWrapperIPK22Il2CppGenericParameterEP11Il2CppClassEES6_N6il2cpp5utils11PointerHashIS4_EEN14dense_hash_mapIS6_S9_SE_NS6_14EqualsComparerINS0_8equal_toIS5_EEEENS0_9allocatorISA_EEE9SelectKeyESJ_SL_E12maybe_shrinkEv
oad:_FileNotFoundException__ctor_m594134677
uob:__ZNSt3__26vectorI8Gradient13stl_allocatorIS1_L18MemLabelIdentifier1ELi16EEE6assignINS_11__wrap_iterIPS1_EEEENS_9enable_ifIXaasr21__is_forward_iteratorIT_EE5valuesr16is_constructibleIS1_NS_15iterator_traitsISB_E9referenceEEE5valueEvE4typeESB_SB_
ZJa:__ZNK16LightmapSettings23GetLightmapDecodeValuesEv
ODa:__ZN13ComputeBuffer9CopyCountEPS_S0_j
h3a:__ZN14RenderSettings13AwakeFromLoadE17AwakeFromLoadMode
avb:__Z18Transfer_BlittableI18StreamedBinaryReadILb1EELb1E8Vector2fEvRK29SerializationCommandArgumentsR31RuntimeSerializationCommandInfo
$U:__ZN11TypeManagerC2ERN4RTTI16RuntimeTypeArrayE
eJ:__ZL30InitializeSpeedTreeWindManagerPv
lxg:__ZN15dense_hashtableINSt3__24pairIK10KeyWrapperINS1_IPK9FieldInfoP11Il2CppClassEEEjEES9_17ReflectionMapHashIS8_EN14dense_hash_mapIS9_jSD_NS9_14EqualsComparerINS0_8equal_toIS8_EEEENS0_9allocatorISB_EEE9SelectKeyESI_SK_E9copy_fromERKSN_j
JN:__Z33RenderImageFilterValidateCallback18ScriptingMethodPtr17ScriptingClassPtrP6Object
chf:_Parser_ParseName_m3760980906
Zsg:_il2cpp_class_enum_basetype
v1a:__ZNK10FlareLayer22GetTypeVirtualInternalEv
rme:_UInt32_System_IConvertible_ToUInt64_m4083788326
X$c:_CultureInfo_set_DateTimeFormat_m4021616765
qec:__Z9UpdateTplIL22MinMaxGradientEvalMode0EL12GradientMode0ELS1_1EEvRK23ParticleSystemParticlesP11ColorRGBA32RK14MinMaxGradientRK23OptimizedMinMaxGradient
d$a:__ZN15FileSystemEntry12CreateAsFileEv
yla:__ZN9GfxDevice26UpdateRenderSurfaceWrapperER12ObjectHandleI17RenderSurface_TagP17RenderSurfaceBaseES3_17DepthBufferFormat
HEg:__ZNK15dense_hashtableINSt3__24pairIK10KeyWrapperINS1_IP11Il2CppClassjEEES4_EES6_N6il2cpp8metadata14ArrayClassHashEN14dense_hash_mapIS6_S4_SB_NS6_14EqualsComparerINSA_17ArrayClassCompareEEENS0_9allocatorIS8_EEE9SelectKeyESF_SH_E13find_positionERS7_
Nma:__ZN4gles14GetProcAddressEPKc
U8:__ZN11TimeManager9ResetTimeEb
Wud:_ModulusRing_Pow_m661630322
wje:_Type_FilterName_impl_m2806300061
Xif:_Group_GetAnchorInfo_m2066989791
Mue:_InternalEnumerator_1_System_Collections_IEnumerator_get_Current_m4242639349_AdjustorThunk
V0:__ZN8TypeTree16AssignByteOffsetERK16TypeTreeIteratorj
lFa:__ZNSt3__26__treeI4PPtrI10GUIElementENS_4lessIS3_EE11memory_poolIS3_EE5eraseENS_21__tree_const_iteratorIS3_PNS_11__tree_nodeIS3_PvEEiEE
KQc:_Convert_ToInt16_m1818890065
LG:__GLOBAL__sub_I_runtime_graphics4_lump_cpp
Y2:__ZN16PropertyNamesSet6insertERKS_
aZg:__ZNK6il2cpp8metadata14Il2CppTypeHashclEPK10Il2CppType
MA:__Z54AudioClipPlayable_CUSTOM_INTERNAL_CALL_GetClipInternalR9HPlayable
L_b:__Z29Transfer_Blittable_ArrayFieldI8JSONReadyEvRT_R9ArrayInfoRK23StaticTransferFieldInfo
wAd:_TlsStream_ReadSmallValue_m1760325248
B8a:__ZN8Renderer16SetMaterialCountEi
M3a:__ZN8Playable14SetOutputCountEi
g_:__ZNK26PlayerSettingsSplashScreen39GetSplashScreenBackgroundPortraitAspectEv
Jfa:__ZN9ShaderLab28UpdateGlobalShaderPropertiesEf
sic:__ZN11UnityEngine15PlatformWrapper17GetMaxCubeMapSizeEv
hVg:_GC_finish_collection
tlc:__ZN15DownloadHandler7PrepareEv
ird:_X509Extension__ctor_m3226803314
rzb:__ZN16ScriptingManager32InitializeSynchronizationContextEv
aob:__Z29Transfer_Blittable_ArrayFieldI14SafeBinaryReaddEvRT_R9ArrayInfoRK23StaticTransferFieldInfo
g4:__ZN15SerializeTraitsINSt3__24pairIN9ShaderLab16FastPropertyNameEfEEE8TransferI14SafeBinaryReadEEvRS4_RT_
PKc:_Hashtable__ctor_m846339375
ZRg:__ZN6il2cpp2vm6String7NewSizeEi
zWg:_GC_new_hblk
Ilf:_PKCS12_AddPrivateKey_m4216166133
XVg:_GC_reclaim_check
ijg:__ZN6il2cpp2vm5Class15SetupInterfacesEP11Il2CppClass
DG:__GLOBAL__sub_I_runtime_camera4_lump_cpp
c3d:_ConstructorBuilder_ToString_m347700767
_5a:__Z30CalculateImageSizeWithMipCountii13TextureFormatj
Tgb:__ZN14PlayerSettings16CheckConsistencyEv
kG:__ZZN23CloudWebServicesManagerC1E18MemLabelIdentifier18ObjectCreationModeEN44EarlyUpdateCloudWebServicesUpdateRegistrator7ForwardEv
iFb:__ZN15SerializeTraitsINSt3__24pairI4PPtrI6ShaderEN4core12basic_stringIcNS5_20StringStorageDefaultIcEEEEEEE8TransferI24GenerateTypeTreeTransferEEvRSA_RT_
Y2d:_ConstructorBuilder_GetILGenerator_m1407935730
aXg:_GC_register_finalizer_no_order
O$d:_HMAC_HashFinal_m3699989772
J3:__ZN8Material23VirtualRedirectTransferER19StreamedBinaryWriteILb0EE
hed:_SynchronizedWriter_Write_m1924840393
rya:__ZNK25SingleBlockMemoryFileData4ReadEyyPv
Lu:__ZN4FMOD5Sound11getSubSoundEiPPS0_
qc:_glEndTransformFeedback
XSg:__ZThn4_N6il2cpp2vm13ComObjectBase16DisconnectObjectEj
Ftb:__Z18Transfer_BlittableI19StreamedBinaryWriteILb0EELb1E10Matrix4x4fEvRK29SerializationCommandArgumentsR31RuntimeSerializationCommandInfo
zRa:__ZN10GameObject8ActivateEv
rS:__ZNSt3__227__insertion_sort_incompleteIR17CompareInstanceIDPP6ObjectEEbT0_S6_T_
Qyg:__ZN15dense_hashtableINSt3__24pairIK10KeyWrapperINS1_IPK11Il2CppImageP11Il2CppClassEEEjEES9_17ReflectionMapHashIS8_EN14dense_hash_mapIS9_jSD_NS9_14EqualsComparerINS0_8equal_toIS8_EEEENS0_9allocatorISB_EEE9SelectKeyESI_SK_E12resize_deltaEjj
$Vb:__ZN9rapidjson15GenericDocumentINS_4UTF8IcEE13JSONAllocatorS3_E11ParseStreamILj0ES2_NS_19GenericStringStreamIS2_EEEERS4_RT1_
pQa:__ZN23ScriptableRenderContext23ShouldUseRenderPipelineEv
TZd:_AsymmetricAlgorithm_set_KeySize_m3920505304
OBa:__ZN9ShaderLab9IntShader27RemoveUnsupportedSubShadersEv
Bha:__ZN13GfxDeviceGLES18CreateStencilStateERK15GfxStencilState
Lja:__ZN13GfxDeviceGLES8EndFrameEv
pBa:__ZZ23InitPlayerLoopCallbacksvEN45PostLateUpdateFinishFrameRenderingRegistrator7ForwardEv
hPg:__ZN6il2cpp2os10ThreadImpl3RunEPFvPvES2_
e8a:__ZN6Object11InvokeEventEi
FEd:_RSASslSignatureFormatter_SetHashAlgorithm_m1976793413
oYd:_RuntimeFieldHandle__ctor_m3142573784_AdjustorThunk
UMe:_Array_InternalArray__set_Item_TisInt32_t2071877448_m2959927234_gshared
yOa:__Z26CalculateLightScreenBoundsRK13ShadowJobDataRK15SharedLightDataP5RectTIfER13TargetEyeMask
gXe:__Z127RuntimeInvoker_Boolean_t3825574718_Int32U26_t455636984_RuntimeObject_SByte_t454417549_SByte_t454417549_ExceptionU26_t1467204777PFvvEPK10MethodInfoPvPS4_
Eua:__ZN18GfxFramebufferGLES11SetViewportERK5RectTIiE
Lsa:__ZL33GetTransformFeedbackShaderProgram17ShaderChannelMaskjj12TFMethodTypeb
dle:_UInt16_System_IConvertible_ToDouble_m4100549304
lZc:_Enum_GetTypeCode_m149067422
REe:_Dictionary_2_Resize_m2672264133_gshared
l2f:_List_1_System_Collections_IList_get_Item_m2094199825_gshared
hRa:__ZN6Camera18SetBackgroundColorERK10ColorRGBAf
Cra:__ZN18GfxFramebufferGLES43AddRenderSurfaceToDeferredFBOInvalidateListEPK17RenderSurfaceGLES
Mq:__ZNSt3__26vectorIN4core12basic_stringIcNS1_20StringStorageDefaultIcEEEENS_9allocatorIS5_EEEC2ERKS8_
nmb:__Z18Transfer_BlittableI14SafeBinaryReadLb0EhEvRK29SerializationCommandArgumentsR31RuntimeSerializationCommandInfo
FWb:__Z44InitializeTransferFunctionScriptingTraitsForI9JSONWriteEvR31TransferFunctionScriptingTraits
RBc:_Array_LastIndexOf_m512887013
c_g:__ZN6il2cpp2os13FastMutexImplD2Ev
EGg:__ZN6il2cpp2vm9Exception5RaiseEP15Il2CppException
fd:_emscripten_glGetBufferParameteriv
anf:_X509CertificateCollection_Contains_m2373814229
eLa:__Z29SetCascadedShadowShaderParamsPK10Matrix4x4fiPKfPK8Vector4fRK8Vector2fR17ShaderPassContext
YXg:__ZN6il2cpp6icalls8mscorlib6System9Threading7Monitor25Monitor_test_synchronisedEP12Il2CppObject
lHa:__ZN13BatchRenderer5FlushE15BatchBreakCause
C6:__ZN6prcoreL12RemapGenericI15TexFormatRGB56517TexFormatARGB4444EEvPKNS_9InnerInfoE
Fla:__ZN13GfxDeviceGLES15ReloadResourcesEv
yU:__ZN13RendererScene16UpdateVisibilityEPK9IndexList
wB:__GLOBAL__sub_I_SwSelfCollision_cpp
pPa:__ZN12CullingGroup15NotifyInvisibleEv
Qlb:__ZN11MonoManager23VirtualRedirectTransferER17RemapPPtrTransfer
Zob:__Z29Transfer_Blittable_ArrayFieldI14SafeBinaryReadxEvRT_R9ArrayInfoRK23StaticTransferFieldInfo
AHb:__Z13RegisterClassI14Texture2DArrayEvv
mmf:_PKCS12_GetBytes_m2884672032
lhd:_MonoType_getFullName_m1434947639
yAb:__ZN15dense_hashtableINSt3__24pairIKiN4core17string_with_labelILi1EEEEEi18SInt32HashFunctionN14dense_hash_mapIiS5_S7_NS0_8equal_toIiEE13stl_allocatorIS6_L18MemLabelIdentifier1ELi16EEE9SelectKeyESA_SD_ED2Ev
dwd:_HMAC_HashFinal_m1045191164
wob:__ZN8GradientC2Ev
rUd:_RealProxy_GetTransparentProxy_m4192467161
Lad:_FileStream_set_Position_m1177202695
Tjd:_SimpleCollator_FilterExtender_m2624562651
XRb:__Z33Coroutine_CUSTOM_ReleaseCoroutineP12Il2CppObject
IDc:_Decimal__ctor_m1010012873
dma:__Z23GetGfxDeviceLevelString16GfxDeviceLevelGL
tMb:__ZZN6Camera15InitializeClassEvEN32FunctorImpl_108kTransformChanged4CallEPviR11MessageData
NFb:__ZN9Transform23VirtualRedirectTransferER14SafeBinaryRead
Wlc:__ZN20UnityWebRequestProtoI19TransportJavaScript16AtomicRefCounter14RedirectHelper14ResponseHelper15DownloadHandler13UploadHandler12HeaderHelper14AsyncOperationE36Job_DownloadHandlerOnCompleteContentEPS8_
Gge:_SendOrPostCallback_Invoke_m4266976241
$Wg:_GC_grow_table
VG:__GLOBAL__sub_I_runtime_preloadmanager_lump_cpp
Vd:___cxa_throw
$cb:__ZN17PackedFloatVector10PackFloatsEPKfiiiib
leh:_emscripten_glIsBuffer__wrapper
OAc:_Array_InternalArray__ICollection_Clear_m1939687317
cye:_InternalEnumerator_1_System_Collections_IEnumerator_get_Current_m1933635818_AdjustorThunk
D3:__ZN8MaterialD0Ev
Nwf:_Object_FindObjectsOfTypeIncludingAssets_m3988851426
c2a:__ZNSt3__26vectorIN11HaloManager4HaloENS_9allocatorIS2_EEE21__push_back_slow_pathIKS2_EEvRT_
mA:__ZN11AudioModule21SetActiveOutputDriverEPv
Oxe:_InternalEnumerator_1_get_Current_m3959023023_AdjustorThunk
Rla:__ZN18GfxFramebufferGLES22EnsureDefaultFBOInitedEv
MWg:_GC_try_to_collect_general
d4:__ZN14SafeBinaryRead8TransferIN9ShaderLab16FastPropertyNameEEEvRT_PKc17TransferMetaFlags
qCa:__ZN10GUITexture17AlignRectToDeviceERK5RectTIfE
AW:__ZN12_GLOBAL__N_116StaticInitializeEPv
psa:__ZN4gles13UploadTextureEP7ApiGLESR11GLESTexture14GraphicsFormatPKvjiiiij16TextureUsageMode
A2:__ZNK21FullParameterPreparer16OnPrepareTextureERPKN9ShaderLab6TexEnvERKN20GpuProgramParameters16TextureParameterEj
QW:__ZNK13ScreenManager19GetSystemResolutionEv
Mvc:_Single_System_IConvertible_ToDecimal_m1265155491_AdjustorThunk
LCb:__ZN24GenerateTypeTreeTransfer8TransferINSt3__26vectorIN9ShaderLab20SerializedSubProgram13BufferBindingENS1_9allocatorIS5_EEEEEEvRT_PKc17TransferMetaFlags
xNe:_Array_Resize_TisRuntimeObject_m1113434054_gshared
nub:__ZN8GUIStyle8TransferI19StreamedBinaryWriteILb0EEEEvRT_
nPb:__Z15NormalizeRobustRK8Vector3fRf
uFb:__ZN9Transform25CompleteTransformTransferI17RemapPPtrTransferEEvRT_
iYb:__Z22TransferField_NonArrayI9JSONWrite27Converter_SimpleNativeClassI8GUIStyleEEvRK23StaticTransferFieldInfoR31RuntimeSerializationCommandInfoRT0_
AKb:__ZN14Texture2DArrayC2E18MemLabelIdentifier18ObjectCreationMode
Kzc:_DecoderReplacementFallbackBuffer_get_Remaining_m1631894831
wXc:_StackFrame__ctor_m883000144
Urb:__ZL26Transfer_SimpleNativeClassI24GenerateTypeTreeTransfer10RectOffsetLb1EEvRK29SerializationCommandArgumentsR31RuntimeSerializationCommandInfo
wYe:__Z91RuntimeInvoker_Int32_t2071877448_RuntimeObject_RuntimeObject_SByte_t454417549_RuntimeObjectPFvvEPK10MethodInfoPvPS4_
cIb:__ZNSt3__26vectorI16MessageForwarder13stl_allocatorIS1_L18MemLabelIdentifier6ELi8EEE8__appendEj
pU:__ZN19CullingGroupManager15InitializeClassEPv
V3a:__ZNK8Playable11DerivesFromE17ScriptingClassPtr
aog:__ZNK6il2cpp5utils11collections13ArrayValueMapIPK10Il2CppType17Il2CppInteropData26InteropDataToTypeConverterNS_8metadata14Il2CppTypeLessENS8_26Il2CppTypeEqualityComparerEE22LowerBoundFindComparerclERKS6_RKS5_
xof:_UnityAction_Invoke_m3703026869
opb:__Z22TransferField_NonArrayI14SafeBinaryRead16Converter_StringEvRK23StaticTransferFieldInfoR31RuntimeSerializationCommandInfoRT0_
Tgd:_MonoType_GetFields_internal_m2022019979
RKg:__ZNSt3__26__treeINS_12__value_typeIP24Il2CppReflectionAssemblyPvEENS_19__map_value_compareIS3_S5_NS_4lessIS3_EELb1EEENS_9allocatorIS5_EEE25__emplace_unique_key_argsIS3_JRKNS_21piecewise_construct_tENS_5tupleIJRKS3_EEENSH_IJEEEEEENS_4pairINS_15__tree_iteratorIS5_PNS_11__tree_nodeIS5_S4_EEiEEbEERKT_DpOT0_
F5b:__ZN14ParticleSystem8TransferI19StreamedBinaryWriteILb0EEEEvRT_
d6c:_Int32_System_IConvertible_ToInt16_m41807723_AdjustorThunk
yhc:__ZN11UnityEngine7Connect20BasePersistentValues12ToJsonStringERN4core12basic_stringIcNS2_20StringStorageDefaultIcEEEE
Ssb:__Z29Transfer_Blittable_ArrayFieldI24GenerateTypeTreeTransfer8Vector3fEvRT_R9ArrayInfoRK23StaticTransferFieldInfo
_u:__Z14FMOD_FILE_OpenPKciPjPPvS3_
nf:_llvm_pow_f64
X_a:__ZN4File5WriteEPKvj
lJc:_SynchronizedArrayListWrapper_AddRange_m2255992171
cuf:_UnityEventBase_FindMethod_m3336182189
UEg:__ZN6il2cpp2vm6Thread12UninitializeEP12Il2CppThread
Zee:_UTF7Encoding_Equals_m3706778156
Yge:_Thread_SetCachedCurrentCulture_m1219220170
QDc:_Boolean_System_IConvertible_ToInt32_m363493013
Si:_glGetActiveUniformsiv
lZd:_SByte_System_IConvertible_ToUInt16_m4121177786_AdjustorThunk
Sea:__ZN19RingbufferTemplates22WriteValueToRingBufferIi17GrowingRingbufferEEbRT0_RKT_
jP:__ZN12FileAccessor5CloseEv
V4a:__ZNK12CubemapArray20GetTextureLayerCountEv
$fe:_CompressedStack_GetObjectData_m2387204186
XCc:_BitConverter__cctor_m2650018227
O4g:___remdi3
b4a:__ZN8Playable7DestroyEv
kjb:__ZN30RuntimeInitializeOnLoadManager15ClassMethodInfo8TransferI24GenerateTypeTreeTransferEEvRT_
p9c:_Path_GetFileName_m893210218
Mad:_FileStream_ReadByte_m539591659
YI:__ZN10MemoryPool13StaticDestroyEPv
A5:__ZNSt3__27__sort3IRPFbRKNS_4pairIN9ShaderLab16FastPropertyNameEN18UnityPropertySheet11UnityTexEnvEEES8_EPS6_EEjT0_SD_SD_T_
UV:__ZNSt3__220__half_inplace_mergeINS_4lessIN4core12basic_stringIcNS2_20StringStorageDefaultIcEEEEEEPS6_NS_11__wrap_iterIS8_EESA_EEvT0_SB_T1_SC_T2_T_
D5:__ZNSt3__227__insertion_sort_incompleteIRPFbRKNS_4pairIN9ShaderLab16FastPropertyNameEN18UnityPropertySheet11UnityTexEnvEEES8_EPS6_EEbT0_SD_T_
DUc:_DateTimeOffset_System_Runtime_Serialization_ISerializable_GetObjectData_m1430367682
HXa:__ZN16MemoryFileSystem11CreateAsDirER13FileEntryData
cWg:_GC_add_smashed
Vka:__ZN13GfxDeviceGLES23ClearRandomWriteTargetsEv
$yc:_ASCIIEncoding_GetCharCount_m1069599754
f0g:___errno_location
e4b:__ZN19ClampVelocityModule8TransferI24GenerateTypeTreeTransferEEvRT_
Lze:_Enumerator_System_Collections_IDictionaryEnumerator_get_Entry_m3667889028_gshared
Ala:__ZN13GfxDeviceGLES16CreateDynamicVBOEv
Opa:__ZN7ApiGLES16DispatchIndirectEjj
Jrc:_SHA512Managed_Sigma1_m1692082325
Lkf:_UriFormatException_System_Runtime_Serialization_ISerializable_GetObjectData_m4053030608
pvc:_SecurityFrame__GetSecurityStack_m2546928721
hnc:_HMACSHA1__ctor_m1168389339
_kd:_BigInteger__ctor_m2550657544
Dga:__ZN13RenderTexture9SetActiveEPS_i11CubemapFaceiNS_14SetActiveFlagsE
Mg:_emscripten_glUseProgram
y9a:__ZN6SpriteD2Ev
jid:_NumberFormatter_SetThreadCurrentCulture_m44057051
JWc:_Decimal_op_Multiply_m363076371
X1d:_CustomAttributeTypedArgument_ToString_m1091739553
T0g:_strnlen
PNd:_X509Certificate2Enumerator_get_Current_m2016493949
xlb:__ZN9TextAsset23VirtualRedirectTransferER24GenerateTypeTreeTransfer
gwf:_PlayerConnection_MessageCallbackInternal_m267902474
S3d:_EnumBuilder_GetField_m1324325036
s0:__ZN14SafeBinaryRead23IsVersionSmallerOrEqualEi
Ola:__ZN18GfxFramebufferGLES10InvalidateEv
Kmd:_ASN1_Decode_m3985125917
Lmd:_ASN1_DecodeTLV_m3210347747
_Hb:__Z27RegisterAllowNameConversionPKcS0_S0_
Aya:__ZN12HandlerChainD0Ev
P2a:__Z17RenderStaticBatchR9GfxDevice10Matrix4x4fR13dynamic_arrayI7SubMeshLj4EERK11MeshBuffersPK17BatchInstanceDataj17ShaderChannelMask
F$e:__Z151RuntimeInvoker_Boolean_t3825574718_Int32_t2071877448_RuntimeObject_Int32_t2071877448_Int32_t2071877448_RuntimeObject_Int32_t2071877448_SByte_t454417549PFvvEPK10MethodInfoPvPS4_
th:_glBindRenderbuffer
Ntf:_BaseInvokableCall__ctor_m2877580597
Xua:__ZNSt3__26__treeINS_12__value_typeI15ComputeBufferIDP17ComputeBufferDataEENS_19__map_value_compareIS2_S5_NS_4lessIS2_EELb1EEENS_9allocatorIS5_EEE7destroyEPNS_11__tree_nodeIS5_PvEE
fLg:__ZN15dense_hashtableI10KeyWrapperIP18Il2CppGenericClassES3_N6il2cpp8metadata22Il2CppGenericClassHashEN14dense_hash_setIS3_S6_NS3_14EqualsComparerINS5_25Il2CppGenericClassCompareEEENSt3__29allocatorIS3_EEE8IdentityESA_SD_E13set_empty_keyERKS3_
ADf:__ZL79Hashtable_t909839986_CustomAttributesCacheGenerator_Hashtable__ctor_m4106078798P21CustomAttributesCache
tcd:_MonoIOStat_t1621921065_marshal_pinvoke_back
GGf:__ZL43MethodInfo_t_CustomAttributesCacheGeneratorP21CustomAttributesCache
UCa:__ZN19SharedRendererSceneD2Ev
Y_a:__ZN4FileD2Ev
OGc:_Char_ToLowerInvariant_m2418373518
GNe:_Array_Sort_TisRuntimeObject_m2295346640_gshared
Zga:__ZN7ApiGLES23GetTextureTargetDefaultE16TextureDimensionj
ufd:_Math_Round_m2632426160
epa:__ZN4crnd13prefix_coding14decoder_tables4initEjPKhj
Vpf:_AudioClipPlayable_INTERNAL_CALL_SetStartDelayInternal_m2409539192
ZU:__ZN15dense_hashtableINSt3__24pairIKPKcPK4RTTIEES3_N11TypeManager23ConstCharPtrHashFunctorEN14dense_hash_mapIS3_S7_SA_NS9_19ConstCharPtrEqualToE13stl_allocatorIS8_L18MemLabelIdentifier6ELi16EEE9SelectKeyESC_SF_E9copy_fromERKSI_j
ksb:__Z26Transfer_UnityEngineObjectI24GenerateTypeTreeTransferLb1EEvRK29SerializationCommandArgumentsR31RuntimeSerializationCommandInfo
iLc:_Enumerator_FailFast_m1266450269
Z2c:_NumberFormatInfo_Clone_m40553114
B3f:_Enumerator_get_Current_m2076859656_gshared
wtf:_Display_FireDisplaysUpdated_m3557250167
qvc:_SecurityFrame_InitFromRuntimeFrame_m45195821_AdjustorThunk
yVg:_GC_signal_mark_stack_overflow
cLe:_Array_InternalArray__ICollection_CopyTo_TisDictionaryEntry_t3048875398_m202302843_gshared
KEe:_Dictionary_2_get_Item_m2413909512_gshared
rcc:__ZN12LightsModule17MainThreadCleanupEv
MCb:__ZN9ShaderLab20SerializedSubProgram14ConstantBuffer8TransferI24GenerateTypeTreeTransferEEvRT_
b1d:_AssemblyName_ComputePublicKeyToken_m2254215863
KEc:_Byte_System_IConvertible_ToChar_m4188836679_AdjustorThunk
rQg:__ZN6il2cpp2gc16GarbageCollector6EnableEv
c9b:__ZN22ParticleCollisionEventC2ERK8Vector3fS2_S2_ii
Otd:_BigInteger__ctor_m2998639688
Zh:_emscripten_glDisable
nEd:_ReceiveRecordAsyncResult_get_IsCompleted_m2327274447
KD:__ZN11UnityEngine15CloudWebService16SessionContainer18DeleteArchivedFileERKN4core12basic_stringIcNS2_20StringStorageDefaultIcEEEES8_Rb
i1b:__ZN27ForceModulePropertyBindings13SetFloatValueER14ParticleSystemif
hNd:_X509ExtensionEnumerator_MoveNext_m1715898942
iac:__ZNK11NoiseModule14CalculateNoiseILi1ELb0ELb1EEEvR23ParticleSystemParticlesRK27ParticleSystemReadOnlyStatejjRKN4math7_float4E
Xyc:_ASCIIEncoding_GetBytes_m819071568
Pnd:_DSAManaged_ExportParameters_m727133363
aNd:_X509Chain_PrepareForNextCertificate_m1967807089
zvd:_ASN1_ToString_m2669105451
lNe:_Array_InternalArray__set_Item_TisUInt32_t2149682021_m1781075439_gshared
iq:__ZN11UnityEngine9Animation38InitializeGenericAnimationBindingCacheEPv
_dc:__ZN22ParticleSystemRenderer8TransferI19StreamedBinaryWriteILb0EEEEvRT_
vG:__GLOBAL__sub_I_platformdependent_webgl_source_lump_cpp
uIf:__ZL61CrossAppDomainSink_t2368859578_CustomAttributesCacheGeneratorP21CustomAttributesCache
PEc:_Byte_System_IConvertible_ToDecimal_m1036493607_AdjustorThunk
Ci:_emscripten_set_focus_callback
Xl:FUNCTION_TABLE_iiiiiii
w3g:__ZNSt3__212basic_stringIcNS_11char_traitsIcEENS_9allocatorIcEEE9__grow_byEjjjjjj
S$g:__ZN6il2cpp6icalls8mscorlib6System10Reflection18MonoGenericCMethod17get_ReflectedTypeEPv
sQd:_Interpreter_CreateMark_m603764609
Seh:_emscripten_glGetError__wrapper
$Zd:_CryptoConfig__cctor_m875093201
T5c:_Int32_System_IConvertible_ToBoolean_m1562905675_AdjustorThunk
KOe:_Array_InternalArray__get_Item_TisInt64_t909078037_m1431563204_gshared
GKe:_Array_InternalArray__ICollection_Add_TisLabelFixup_t4090909514_m3465405039_gshared
oXb:__Z18Transfer_BlittableI9JSONWriteLb0E11ColorRGBA32EvRK29SerializationCommandArgumentsR31RuntimeSerializationCommandInfo
WIc:_SynchronizedArrayListWrapper_get_IsReadOnly_m831018743
Vug:__ZN6il2cpp2vm14TypeNameParser26ParseTypeArgumentsOptionalERi
Aie:_TimeSpan_get_TotalMilliseconds_m51604504_AdjustorThunk
a5c:_Int16_System_IConvertible_ToSByte_m3207848993
lkd:_SimpleCollator_CompareOrdinalIgnoreCase_m3195572467
VLb:__ZNSt3__26vectorINS0_IfNS_9allocatorIfEEEENS1_IS3_EEE21__push_back_slow_pathIKS3_EEvRT_
mOe:_GameObject_GetComponentsInChildren_TisRuntimeObject_m1244802713_gshared
fzc:_ASCIIEncoding_GetBytes_m3744562901
Eyd:_CipherSuite_get_EffectiveKeyBits_m3588203390
atd:_AppDomain_InternalSetContext_m1264487503
eAc:_EncoderFallback_get_StandardSafeFallback_m2698839144
wIb:__Z34RegisterPrepareRenderNodesCallbackiPFvR35RenderNodeQueuePrepareThreadContextES2_PFPvvEPFvS3_E
MZg:__ZN6il2cpp2os11MutexHandle6SignalEv
aBc:_Array_GetEnumerator_m2284404958
cTa:__ZN9Transform35SetLocalRotationWithoutNotificationERKN4math7_float4E
pud:_ModulusRing__ctor_m630117946
MYd:_RuntimeTypeHandle_Equals_m452760426
QO:__ZNK10FileSystem10ToAbsoluteEPKc
zLg:__ZN6il2cpp8metadata15GenericMetadata15InflateIfNeededEPK10Il2CppTypePK20Il2CppGenericContextb
egb:__ZNK11TimeManager22GetTypeVirtualInternalEv
zZ:__ZN11TimeManager13StepFixedTimeEv
F$f:_Enumerator_MoveNext_m598197344_gshared
Slb:__ZN11MonoManager23VirtualRedirectTransferER14SafeBinaryRead
aOd:_X509Certificate2Enumerator_Reset_m3661628343
Nmb:__Z35Transfer_Blittable_FixedBufferFieldI14SafeBinaryReadtEvRK29SerializationCommandArgumentsR31RuntimeSerializationCommandInfo
NV:__ZNSt3__26vectorIN4core12basic_stringIcNS1_20StringStorageDefaultIcEEEE13stl_allocatorIS5_L18MemLabelIdentifier79ELi16EEE5eraseENS_11__wrap_iterIPKS5_EESD_
QEa:__ZN23SharedMeshRenderingData25CreateOrUpdateIndexBufferERK13GfxBufferDescPKv20GfxUpdateBufferFlags
Udh:_emscripten_glActiveTexture__wrapper
ind:_BitConverterLE_ToInt32_m2896100640
n6f:_ReadOnlyCollection_1_System_Collections_Generic_IListU3CTU3E_set_Item_m1769983091_gshared
HFd:_InternalAsyncResult_SetComplete_m4011593916
HDc:_Convert_ToDecimal_m3155136770
vrf:_Camera_get_cullingMask_m73686965
_Fa:__ZN14RenderSettings13CalcFogFactorEff
nr:__ZN9AudioClip13AwakeFromLoadE17AwakeFromLoadMode
uUg:_GC_unix_sbrk_get_mem
Gld:_ModulusRing__ctor_m59363820
cea:__ZN18JobBatchDispatcher8KickJobsEv
$Zg:__ZN6il2cpp2os9FastMutexC2Ev
ffb:__ZN16SpriteRenderData19UnloadRenderingDataEv
_hf:_BackslashNumber_Compile_m930299304
gVb:__Z48Register_UnityEngine_Object_Internal_CloneSinglev
Had:_FileStream_FlushBufferIfDirty_m1110148568
KTd:_SerializationInfo_AddValue_m1740888931
o6c:_Int32_System_IConvertible_ToUInt16_m372220115_AdjustorThunk
sMe:_Array_InternalArray__Insert_TisSingle_t2076509932_m3514232129_gshared
Qta:__ZN10BufferGLES8EndWriteEj
TNd:_X509ChainElement__ctor_m3644590622
WCa:__ZN15RenderNodeQueueD2Ev
ZR:__ZL52StaticUnregisterSceneLoadedCallback_LightmapSettingsPv
gJa:__ZN14qsort_internal13InsertionSortIP18RPDataMotionVectorN22MotionVectorRenderLoop18RenderObjectSorterEEEvT_S5_T0_
MAb:__ZN14SafeBinaryRead21TransferSTLStyleArrayINSt3__26vectorIN9ShaderLab20SerializedSubProgram15VectorParameterENS1_9allocatorIS5_EEEEEEvRT_17TransferMetaFlags
jyg:__ZN15dense_hashtableINSt3__24pairIK10KeyWrapperINS1_IPK10MethodInfoP11Il2CppClassEEEjEES9_17ReflectionMapHashIS8_EN14dense_hash_mapIS9_jSD_NS9_14EqualsComparerINS0_8equal_toIS8_EEEENS0_9allocatorISB_EEE9SelectKeyESI_SK_E12resize_deltaEjj
Hne:_UIntPtr__ctor_m2737768530_AdjustorThunk
wJb:__Z13TransformAABBRK4AABBRK10Matrix4x4fRS_
Qnf:_X509Crl_VerifySignature_m25190802
F6c:_Int32_Parse_m3683414232
Q8d:_MonoMethod_get_name_m1503581873
xV:__ZN13RuntimeStaticI18SpriteAtlasManagerLb0EE16StaticInitializeEPv
cSg:__GLOBAL__sub_I_Interlocked_cpp
eZ:__ZN16ScriptingManager33RebuildNativeTypeToScriptingClassEv
g6g:dynCall_viiiiiii
cQ:__ZNSt3__26__treeINS_12__value_typeIPKN5Unity4TypeE10vector_setIS5_NS_4lessIS5_EENS_9allocatorIS5_EEEEENS_19__map_value_compareIS5_SC_S8_Lb1EEENS9_ISC_EEE7destroyEPNS_11__tree_nodeISC_PvEE
Lac:__ZN11NoiseModule17CalculateNoiseJobILi1ELb1ELb1EEEvP12NoiseJobData
hNg:__ZN6il2cpp2vm5Field8GetValueEP12Il2CppObjectP9FieldInfoPv
rae:_MonoPropertyInfo_get_property_info_m556498347
CUe:_SynchronizationAttribute_IsContextOK_m525966365
Mdd:_StreamWriter_Write_m48781402
MGa:__ZN20DynamicPropertySheet10FlushQueueEv
v7b:__ZN24ParticleSystemUpdateData7ReleaseEv
REc:_Convert_ToDouble_m2673807774
$Jc:_CollectionBase_System_Collections_IList_Add_m2327469271
ISg:__ZN6il2cpp6icalls8mscorlib6System15MonoCustomAttrs31GetCustomAttributesDataInternalEP12Il2CppObject
nIa:__Z16RecordForEachJobPFvPvjES_jPFvS_ER21SingleThreadedJobInfo
_Yd:_SByte_System_IConvertible_ToDouble_m3643993554_AdjustorThunk
Cne:_UInt64_ToString_m308141014
ESa:__ZN10GameObject23VirtualRedirectTransferER24GenerateTypeTreeTransfer
GYd:_RuntimeTypeHandle__ctor_m235560320
she:_ThreadPool_QueueUserWorkItem_m2209660682
mJb:__ZN16SpriteRenderData20CalculateUVsIfNeededEbRK8Vector2fRK5RectTIfE
S7a:__ZN8Renderer23RendererBecameInvisibleEv
F2:__ZN9ShaderLab11shaderprops9GetTexEnvEPK19ShaderPropertySheetS3_NS_16FastPropertyNameE16TextureDimension
myd:_CipherSuite__ctor_m440966622
qkc:__ZN22CrashReportingSettingsD2Ev
Rcc:__ZN11ForceModuleD0Ev
Wca:__ZL31stbir__filter_mitchell_modifiedff
Asf:_Component_SendMessageUpwards_m325086847
cm:FUNCTION_TABLE_iidiii
hQ:__ZL23AddConflictingClassIMPLPKN5Unity4TypeES2_
VBb:__ZN9ShaderLab26SerializedShaderFloatValue8TransferI14SafeBinaryReadEEvRT_
kad:_IOException__ctor_m401544248
OG:__GLOBAL__sub_I_runtime_graphics_mesh_lump_cpp
bnc:__ZL16RegisterVRDevice23UnityVRDeviceDefinition
C8a:__ZN8Renderer13AwakeFromLoadE17AwakeFromLoadMode
NOg:__ZN6il2cpp2os6Thread4InitEv
xSa:__ZNK10GameObject22GetTypeVirtualInternalEv
hfb:__ZN14SpriteRenderer15UpdateCollidersEv
J8a:__ZNK8Renderer22GetTypeVirtualInternalEv
fQg:__Z27il2cpp_array_addr_with_sizeP11Il2CppArrayij
wO:__ZL26ExtractScriptTypeReferenceRK16TypeTreeIteratorjR15CacheReaderBasebR31LocalSerializedObjectIdentifier
cYa:__ZL12TouchHandleriPK20EmscriptenTouchEventPv
vHc:_ArrayList_Contains_m1505633338
sje:_TimeZone_GetLocalTimeDiff_m20330162
m9g:_emscripten_glStencilFuncSeparate__wrapper
wKe:_Array_InternalArray__ICollection_Add_TisDecimal_t724701077_m2457636275_gshared
v$c:_CompareInfo_ToString_m3102502680
R_b:__Z29Transfer_Blittable_ArrayFieldI8JSONReadaEvRT_R9ArrayInfoRK23StaticTransferFieldInfo
v1c:_NumberFormatter_AppendOneDigit_m2663704828
u0e:__Z92RuntimeInvoker_Void_t1841601450_RuntimeObject_Single_t2076509932_RuntimeObject_RuntimeObjectPFvvEPK10MethodInfoPvPS4_
E3g:__ZNKSt3__212basic_stringIcNS_11char_traitsIcEENS_9allocatorIcEEE5rfindEPKcjj
So:__ZN24GenerateTypeTreeTransfer8TransferI8Vector3fEEvRT_PKc17TransferMetaFlags
oof:__Z28il2cpp_codegen_resolve_icallPKc
M5b:__ZN14RotationModule8TransferI19StreamedBinaryWriteILb0EEEEvRT_
Nbg:_SymmetricTransform_InternalTransformBlock_m2049959094
OP:__ZN5Unity9Component14SendMessageAnyERK17MessageIdentifierR11MessageData
R7e:__Z67RuntimeInvoker_Byte_t3683104436_Int16_t4041245914_Int16_t4041245914PFvvEPK10MethodInfoPvPS4_
Zc:_glCullFace
bJc:_SynchronizedArrayListWrapper_IndexOf_m1200258228
aZb:__ZN9JSONWrite8TransferI13dynamic_arrayIfLj4EEEEvRT_PKc17TransferMetaFlags
GSc:_CurrentSystemTimeZone_OnDeserialization_m1834214305
eFd:_SslClientStream_Finalize_m3464869995
j1e:__Z118RuntimeInvoker_Int32_t2071877448_IntPtr_t_RuntimeObject_Int32_t2071877448_Int32_t2071877448_MonoIOErrorU26_t1029615899PFvvEPK10MethodInfoPvPS4_
sbd:_FileStream_Flush_m2048412453
xca:__ZN6prcore10FlipImageYER14ImageReference
M5f:_ReadOnlyCollection_1_System_Collections_Generic_IListU3CTU3E_RemoveAt_m962041751_gshared
Xfe:_Thread_GetCompressedStack_m1220107123
mza:__ZN15dense_hashtableINSt3__24pairIKN4core12basic_stringIcNS2_20StringStorageDefaultIcEEEEP20ArchiveStorageReaderEES6_20StringHash32FunctionIS6_EN14dense_hash_mapIS6_S9_SC_NS0_8equal_toIS6_EE13stl_allocatorISA_L18MemLabelIdentifier54ELi16EEE9SelectKeyESF_SI_E13set_empty_keyERKSA_
Mhg:__GLOBAL__sub_I_Class_cpp
I0g:_pop_arg
hie:_TimeSpan__ctor_m1888018443
E$b:__ZN8JSONRead21TransferSTLStyleArrayI13dynamic_arrayI10ColorRGBAfLj4EEEEvRT_18MemLabelIdentifier17TransferMetaFlags
H8:__ZN6prcoreL26RemapGenericIntegerToFloatI17TexFormatARGB888818TexFormatRGBAFloatEEvPKNS_9InnerInfoE
Wdg:_UnityAction_1_BeginInvoke_m2512011642_gshared
Yah:_emscripten_glCompressedTexImage2D__wrapper
X7d:_MethodBase_Invoke_m1075809207
pPd:_BaseMachine__ctor_m2327544039
qic:__ZN11UnityEngine15PlatformWrapper17GetMaxTextureSizeEv
O8b:__Z22EvaluateRandomGradientIL12GradientMode1ELS0_1EEN4math4pix4ERK14MinMaxGradientRKNS1_7_float4ES8_
ebh:_glReadPixels__wrapper
Jv:__ZN4FMOD6System16setDSPBufferSizeEji
W8f:_Quaternion_ToString_m2638853272_AdjustorThunk
iGf:__ZL91Default_t3956931304_CustomAttributesCacheGenerator_Default_ReorderArgumentArray_m3980835731P21CustomAttributesCache
rZa:__ZNK21UnityDefaultAllocatorI17LowLevelAllocatorE14AllocationPageIL11RequestType0EEEbPKv
xLa:__ZN14qsort_internal5QSortIP21ForwardRenderPassDataiN23ForwardShaderRenderLoop18RenderObjectSorterILb0EEEEEvT_S6_T0_T1_
vsf:_Component_set_tag_m4292293503
qH:__ZN13MemoryManager12GetAllocatorE18MemLabelIdentifier
Rn:stackRestore
frd:_X509Certificate_Parse_m732579562
zFa:__ZN13RenderManager29InvokeOnRenderObjectCallbacksEv
k4b:__ZN13TriggerModule8TransferI24GenerateTypeTreeTransferEEvRT_
cXg:_GC_register_disappearing_link_inner
m7b:__ZN14ParticleSystem29ComputePrewarmStartParametersERff
qGd:_SslStreamBase_EndWrite_m1091701856
occ:__ZNK14ParticleSystem14GetLengthInSecEv
yMb:__ZN13BuildSettingsC2E18MemLabelIdentifier18ObjectCreationMode
eVb:__Z22Object_CUSTOM_ToStringP12Il2CppObject
jrb:__Z15Transfer_StringI24GenerateTypeTreeTransferLb1EEvRK29SerializationCommandArgumentsR31RuntimeSerializationCommandInfo
bxa:__ZN15dense_hashtableINSt3__24pairIKN4core12basic_stringIcNS2_20StringStorageDefaultIcEEEEP20ArchiveStorageReaderEES6_20StringHash32FunctionIS6_EN14dense_hash_mapIS6_S9_SC_NS0_8equal_toIS6_EE13stl_allocatorISA_L18MemLabelIdentifier54ELi16EEE9SelectKeyESF_SI_EC2ERKSL_j
C4d:_GenericTypeParameterBuilder_not_supported_m3784909043
t5f:_Collection_1_IndexOf_m1048636762_gshared
BFg:__ZN6il2cpp6icalls8mscorlib6System5Array7GetRankEP11Il2CppArray
pOb:__ZN22BlockMemoryCacheWriterD2Ev
Acc:__ZN11ShapeModuleD2Ev
Gvc:_Single_System_IConvertible_ToByte_m2305166819_AdjustorThunk
N_:__Z22GetTextureDecodeValues16TextureUsageMode17TextureColorSpace
xfd:_MemberAccessException__ctor_m3655483958
oe:_emscripten_webgl_get_current_context
wna:__ZN21GLESGpuProgramApplier11ApplyMatrixERKN20GpuProgramParameters14ValueParameterEPK10Matrix4x4ft
Mw:__ZN9UnityGUID8TransferI24GenerateTypeTreeTransferEEvRT_
okf:_Uri_GetSchemeDelimiter_m3479551962
RDa:__Z11CopyTextureP7TextureiS0_i
mNb:__Z14DoubleToStringd
ve:_glDrawElementsInstanced
XP:__ZNK21ExecutionOrderManager23GetScriptExecutionOrderEiPKN5Unity4TypeE
aRc:_Decimal_op_Explicit_m682912811
UGd:_TlsStream_Read_m2550027598
pdg:_GenericEqualityComparer_1_Equals_m482771493_gshared
zMa:__ZN18DeferredRenderLoop14RenderLightingER21ActiveLightingContextP13RenderTexture9TextureIDPS3_iRK8Vector4fRK14LightingLayersR10MinMaxAABBb
wOg:__ZN6il2cpp6icalls8mscorlib6System9AppDomain12LoadAssemblyEP15Il2CppAppDomainP12Il2CppStringP40mscorlib_System_Security_Policy_Evidenceb
QCd:_TlsServerCertificate_checkCertificateUsage_m2392234217
LNa:__Z9CullSceneR22SceneCullingParametersPK6CameraR11CullResults
m1f:_List_1_set_Item_m4128108021_gshared
D8a:__ZN8Renderer13BoundsChangedEv
JZb:__Z18Transfer_BlittableI8JSONReadLb0E5RectTIfEEvRK29SerializationCommandArgumentsR31RuntimeSerializationCommandInfo
isg:__ZN6il2cpp2vm7Runtime12SetConfigDirEPKc
ibe:_ParameterInfo_GetPseudoCustomAttributes_m2952359394
Tba:__ZN9Texture3D11InitTextureEiii13TextureFormatb
XTe:_Context_DoCallBack_m1158598055
uMg:__ZNSt3__218uninitialized_copyIPNS_4pairIK10KeyWrapperIP12Il2CppObjectEN6il2cpp2gc9CachedCCWEEESB_EET0_T_SD_SC_
Fia:__ZN9GfxDevice14AddSetPassStatEv
c_c:_Exception__ctor_m3886110570
dcb:__ZN14CompressedMeshD2Ev
Ybd:_MemoryStream_Dispose_m239202346
Kpd:_RSAManaged_add_KeyGenerated_m4116417337
B4a:__ZN18DelayedCallManager15RemoveNoCleanupERKNS_8CallbackENSt3__221__tree_const_iteratorIS0_PNS3_11__tree_nodeIS0_PvEEiEE
iT:__ZN15DirectorManager12CleanupClassEv
Ekd:_SimpleCollator_IndexOf_m2575613007
SSg:__ZThn4_N6il2cpp2vm13ComObjectBase17GetUnmarshalClassERK10Il2CppGuidPvjS5_jPS2_
EJd:_IPv6Address__ctor_m206060151
l6f:_ReadOnlyCollection_1_System_Collections_Generic_IListU3CTU3E_RemoveAt_m352618588_gshared
hLg:__ZNK10KeyWrapperIP18Il2CppGenericClassE14EqualsComparerIN6il2cpp8metadata25Il2CppGenericClassCompareEEclERKS2_S9_
xZd:_SByte_Parse_m1184250496
u4:__ZN15SerializeTraitsINSt3__24pairI39DeprecatedFastPropertyNameSerializationN18UnityPropertySheet11UnityTexEnvEEEE8TransferI14SafeBinaryReadEEvRS5_RT_
u6f:_ReadOnlyCollection_1_System_Collections_IList_IndexOf_m3466286536_gshared
wjc:__ZN19UnityConnectService20OnPlayerStateChangedENS_12SessionStateE
mia:__ZN13GfxDeviceGLES17DestroySubProgramEPN9ShaderLab10SubProgramE
pSc:_Convert_ToUInt64_m1691869628
Dqg:__ZNSt3__210__list_impIP17Il2CppAsyncResultN6il2cpp2gc9AllocatorIS2_EEE5clearEv
SId:_FileWebRequestCreator_Create_m1444797040
gke:_Type_IsAssignableFrom_m907986231
TPb:__ZNK13MonoBehaviour6GetDSPEv
odd:_Math_Min_m4290821911
sXg:_GC_call_with_alloc_lock
wOe:_Array_InternalArray__get_Item_TisChar_t3454481338_m3646615547_gshared
sm:FUNCTION_TABLE_iiififiiii
dSb:__Z35Camera_Get_Custom_PropNearClipPlaneP12Il2CppObject
Ipd:_PrivateKeyInfo_DecodeDSA_m2717913261
Dbc:__Z16EmitterStoreDataRKN4math8float3x3ERKNS_8float4x4ER23ParticleSystemParticlesRK19ParticleSystemStatejRNS_8floatNx3ESC_RKNS_4pix4ER5RandNfffbb
cqe:_ArrayReadOnlyList_1_ReadOnlyError_m2160816107_gshared
mcb:__ZN13dynamic_arrayI10Matrix4x4fLj16EE18resize_initializedEjRKS0_12ResizePolicy
MAg:__ZN6il2cpp2vm10Reflection10IsPropertyEP12Il2CppObject
A_a:__ZN18StreamedBinaryReadILb0EE21TransferSTLStyleArrayI13dynamic_arrayIN4core12basic_stringIcNS3_20StringStorageDefaultIcEEEELj4EEEEvRT_17TransferMetaFlags
Une:_UIntPtr_ToString_m387842486_AdjustorThunk
Zf:_emscripten_set_mousemove_callback
rYb:__Z19TransferField_ArrayI9JSONWrite27Converter_SimpleNativeClassI10RectOffsetEEvRK23StaticTransferFieldInfoR31RuntimeSerializationCommandInfoRT0_
RMa:__ZNK6Camera22GetCameraToWorldMatrixEv
IBc:_ArrayTypeMismatchException__ctor_m1898555879
Zch:_glActiveTexture__wrapper
Xfc:__ZN21ParticleSystemManagerD2Ev
UX:__ZN20LocalFileSystemPosix4LockER13FileEntryData12FileLockMode
Oeg:_UnityEvent_2__ctor_m3717034779_gshared
ob:invoke_viififi
oQ:__ZL29StaticCleanupIUnityInterfacesPv
wqe:_InternalEnumerator_1_System_Collections_IEnumerator_get_Current_m429673344_gshared
Q5:__ZNK26PlayerSettingsSplashScreen34GetSplashScreenBackgroundLandscapeEv
JGd:_TlsCipherSuite_ComputeKeys_m1444202749
Lma:__Z19DebugTextLineByLinePKci
$Bd:_TlsClientSettings_UpdateCertificateRSA_m1828531911
V1d:_CustomAttributeData_ToString_m1673522836
y7e:__Z94RuntimeInvoker_Boolean_t3825574718_RuntimeObject_RuntimeObject_RuntimeObject_Int32_t2071877448PFvvEPK10MethodInfoPvPS4_
Gsg:__ZN6il2cpp2vm7Runtime18UnhandledExceptionEP15Il2CppException
OVc:_Decimal_System_IConvertible_ToInt32_m2951299528_AdjustorThunk
iPd:_X509SubjectKeyIdentifierExtension__ctor_m1109455121
ELa:__ZNSt3__211__sift_downIRN23ForwardShaderRenderLoop18RenderObjectSorterILb1EEEP21ForwardRenderPassDataEEvT0_S7_T_NS_15iterator_traitsIS7_E15difference_typeES7_
Zzc:_EncoderFallbackException__ctor_m943934364
d0d:_PlatformNotSupportedException__ctor_m782561872
Pdd:_StreamWriter_Finalize_m2123577702
DQ:__Z33UnregisterDeviceEventCallbackImplPFv23UnityGfxDeviceEventTypeE
poe:_UnitySerializationHolder_GetObjectData_m2280028722
aGc:_Char_System_IConvertible_ToInt32_m1648438349
QOb:__Z26ApplyBlendShapesToVerticesRK10BlendShapeRK13dynamic_arrayI16BlendShapeVertexLj4EEfRK12SkinMeshInfoRKN4math5_int4EPNSA_8floatNx3ESF_
WBb:__ZN9ShaderLab19SerializedStencilOp8TransferI14SafeBinaryReadEEvRT_
Gjg:__ZN6il2cpp2vm5Class11IsValuetypeEPK11Il2CppClass
sM:__ZN12CachedReader8InitReadER15CacheReaderBasejj
Wg:_glEndQuery
cBa:__ZZ23InitPlayerLoopCallbacksvEN45EarlyUpdateRendererNotifyInvisibleRegistrator7ForwardEv
lWc:_Decimal_Floor_m1662853963
qff:_PatternCompiler_Emit_m2166590387
Yxc:_String_Replace_m534438427
nud:_BigInteger_op_Implicit_m622924526
Utc:_Evidence_get_AssemblyEvidenceList_m354414178
oAb:__Z14resize_trimmedINSt3__26vectorIN9ShaderLab14SerializedPassENS0_9allocatorIS3_EEEEEvRT_j
erc:_SHA256Managed_Initialize_m2091245045
wSg:__ZN4utf88internal14get_sequence_2IPKcEENS0_9utf_errorERT_S5_Rj
C6b:__ZN21RotationBySpeedModule5ResetEv
rfc:__ZN30ParticleSystemTrailGeometryJob9RenderJobEP25DynamicVBOGeometryJobDataj
Lud:_Kernel_AddSameSign_m4087322475
lOb:__ZN12CachedWriter15CompleteWritingEv
F8b:__ZNK23ParticleSystemParticles14CopyToArrayAOSEP22ParticleSystemParticleii
oCb:__ZN9ShaderLab18SerializedProperty8TransferI14SafeBinaryReadEEvRT_
E1c:_NumberFormatter_ParsePrecision_m2392600663
Epg:__ZN6il2cpp2vm13MetadataCache25GetStringLiteralFromIndexEi
Xz:__ZN11AudioModule6UpdateEv
Tla:__ZN7ApiGLES13DeleteProgramERj
qab:__ZN18StreamedBinaryReadILb0EE21TransferSTLStyleArrayI13dynamic_arrayI8Vector2fLj4EEEEvRT_17TransferMetaFlags
Qjd:_SimpleCollator_FilterOptions_m4044781893
jqc:_RSAPKCS1KeyExchangeFormatter__ctor_m2529911523
mwc:_Single_CompareTo_m1534635028
Hbd:_FileSystemInfo_GetObjectData_m1755848054
TKe:_Array_InternalArray__ICollection_Add_TisUInt64_t2909196914_m2516003202_gshared
YNa:__Z34PrepareParametersCullShadowCastersRK11ActiveLightRK14ShadowCullDataR22SceneCullingParametersR13ShadowedLight
WTc:_DateTime_CompareTo_m1511117942
S3b:__ZN14ParticleSystem8TransferI24GenerateTypeTreeTransferEEvRT_
Ylf:_PKCS12_get_MaximumPasswordLength_m1673883007
FX:__ZN22LocalFileSystemHandler4NameEv
mxf:_Playable__cctor_m1399066115
Xhc:__ZN11UnityEngine15PlatformWrapper24GetSystemLanguageCultureEv
t1d:_Binder_FindMostDerivedMatch_m2621831847
Rsb:__Z29Transfer_Blittable_ArrayFieldI24GenerateTypeTreeTransfer8Vector2fEvRT_R9ArrayInfoRK23StaticTransferFieldInfo
keb:__Z22CalculateTransformPathRK9TransformPS0_
hWb:__ZN9rapidjson13GenericReaderINS_4UTF8IcEES2_13JSONAllocatorE11ParseNumberILj0ENS_19GenericStringStreamIS2_EENS_15GenericDocumentIS2_S3_S3_EEEEvRT0_RT1_
YKa:__ZNK6Camera15SaveMatrixStateERNS_11MatrixStateE
RXc:_Environment_get_NewLine_m266316410
Eb:invoke_iiii
L0a:__ZN6Camera13AwakeFromLoadE17AwakeFromLoadMode
di:_emscripten_glPixelStorei
dNb:__ZNK6Camera21ScreenToViewportPointERK8Vector3f
Ib:invoke_iiif
YLa:__Z23CullDirectionalCascadesRNSt3__26vectorI16ShadowCasterData13stl_allocatorIS1_L18MemLabelIdentifier2ELi16EEEEPK17ShadowCascadeInfoiRK10Matrix4x4fRK8Vector3fRK13ShadowJobData16ShadowProjection
nsb:__ZN15SerializeTraitsI31ArrayOfManagedObjectsTransfererE8TransferI24GenerateTypeTreeTransferEEvRS0_RT_
tcc:__ZN21ParticleSystemModulesD2Ev
bce:_ResourceCacheItem_t333236149_marshal_pinvoke
lud:_Kernel_modInverse_m3230829577
dpf:_AttributeHelperEngine_GetDefaultExecutionOrderFor_m451063166
fUb:__Z51Register_UnityEngine_MonoBehaviour_set_useGUILayoutv
Bhb:__ZN10VRSettings8TransferI19StreamedBinaryWriteILb0EEEEvRT_
rTc:_DateTimeUtils_ParseQuotedString_m569743800
GPe:_Resources_ConvertObjects_TisRuntimeObject_m2571720668_gshared
ole:_UInt16_System_IConvertible_ToSingle_m11937144_AdjustorThunk
Wfc:__ZN14ParticleSystem12CleanupClassEv
rtf:_DebugLogHandler_Internal_Log_m3491540823
e5a:__ZN12CubemapArray8TransferI14SafeBinaryReadEEvRT_
bba:__ZL21SetAnisoLimitEnumImplN7Texture20AnisotropicFilteringEb
kFe:_DefaultComparer_Equals_m4189188262_gshared
u3c:_SortKey__ctor_m2383358977
mw:__ZN11AudioSource20SetEffectActiveStateEb
K4g:_i64Add
kib:__ZN15ResourceManager10Dependency8TransferI24GenerateTypeTreeTransferEEvRT_
Cca:__Z11IsHDRFormat13TextureFormat
YQe:_Marshal_ReadByte_m536122811
JLf:__ZL70SecurityPermissionAttribute_t3351526923_CustomAttributesCacheGeneratorP21CustomAttributesCache
eX:__ZN13ScreenManager26ReapplyRequestedResolutionEv
YWb:__Z18Transfer_BlittableI9JSONWriteLb1E10ColorRGBAfEvRK29SerializationCommandArgumentsR31RuntimeSerializationCommandInfo
kAc:_EncoderReplacementFallback_Equals_m1485458279
iAe:_Enumerator_System_Collections_IDictionaryEnumerator_get_Entry_m487599172_gshared
kDa:__ZN6Camera21CleanupAfterRenderingEPK11CullResults
Lvg:__ZNSt3__26vectorINS_12basic_stringIcNS_11char_traitsIcEENS_9allocatorIcEEEENS4_IS6_EEE21__push_back_slow_pathIS6_EEvOT_
av:__Z14FMOD_FILE_ReadPvS_jPjS_
Zm:FUNCTION_TABLE_diiii
ltc:_String_CharCopy_m586187774
ej:_glGenQueries
z8g:_glGetProgramInfoLog__wrapper
AZc:_Enum_ToObject_m604645223
Pee:_UTF32Encoding_Equals_m2227431860
V0b:__ZN27ColorModulePropertyBindings13SetFloatValueER14ParticleSystemif
BMe:_Array_InternalArray__Insert_TisHitInfo_t1761367055_m2882234445_gshared
Tse:_InternalEnumerator_1_get_Current_m4279678504_gshared
wya:__ZN15FileSystemEntryC2Ev
aXc:_Delegate_Equals_m2235282625
xD:__ZN11UnityEngine15CloudWebService14DataErrorEvent17FolderErrorDetailD2Ev
gP:__ZN4File5CloseEv
K$b:__Z29Transfer_Blittable_ArrayFieldI8JSONRead8Vector3fEvRT_R9ArrayInfoRK23StaticTransferFieldInfo
Wcb:__ZN14BlendShapeData8TransferI19StreamedBinaryWriteILb0EEEEvRT_
IYg:__ZN6il2cpp2os9MutexImpl7TryLockEjb
jtd:_AppDomainInitializer_Invoke_m3449211446
zd:_glCompressedTexSubImage2D
u3b:__ZN16CustomDataModule8TransferI14SafeBinaryReadEEvRT_
qbc:__Z21RandomPointInsideCubeR5RandNPKf
wWg:_GC_timeout_stop_func
Ung:__ZN15dense_hashtableI10KeyWrapperIPK19Il2CppGenericMethodES4_N6il2cpp8metadata23Il2CppGenericMethodHashEN14dense_hash_setIS4_S7_NS4_14EqualsComparerINS6_26Il2CppGenericMethodCompareEEENSt3__29allocatorIS4_EEE8IdentityESB_SE_E15insert_noresizeERKS4_
dcg:_AesManaged_set_IV_m2479404195
mYa:__ZL11TextHandleriPK23EmscriptenKeyboardEventPv
KMc:_SortedList_set_Item_m3109168821
JLe:_Array_InternalArray__ICollection_CopyTo_TisUriScheme_t1876590943_m239032216_gshared
rZg:__ZNSt3__23mapIPvxNS_4lessIS1_EENS_9allocatorINS_4pairIKS1_xEEEEEixERS6_
web:__ZN14SpriteRenderer23VirtualRedirectTransferER18StreamedBinaryReadILb0EE
GA:__ZN17AudioClipPlayable9IsPlayingEv
x0a:__ZN12BaseRenderer20GetSortingGroupOrderEj
yOb:__Z11CloneObjectR6ObjectR9Transformb
oBc:_Array_SetValue_m3301692024
CS:__Z24InitializeMainSceneRangeiiR13dynamic_arrayI10SceneRangeLj4EE
hOb:__ZL15CloneObjectImplP6ObjectP9TransformR10vector_mapIiiNSt3__24lessIiEE13stl_allocatorINS4_4pairIiiEEL18MemLabelIdentifier1ELi16EEE
VNb:__ZNSt3__227__insertion_sort_incompleteIRN10vector_mapIiiNS_4lessIiEE13stl_allocatorINS_4pairIiiEEL18MemLabelIdentifier1ELi16EEE13value_compareEPS6_EEbT0_SD_T_
wte:_InternalEnumerator_1_System_Collections_IEnumerator_get_Current_m2068723842_AdjustorThunk
qNc:_Stack_GetEnumerator_m4080170056
nx:__ZN10SampleClip14ReleaseIfEqualE11SoundHandle
s6b:__ZN14RotationModule5ResetEv
UVe:_LogicalCallContext_Clone_m2776857116
Xda:__ZN22RenderingCommandBufferC2E18MemLabelIdentifierRKS_
c3e:__Z63RuntimeInvoker_Void_t1841601450_RuntimeObject_Int16_t4041245914PFvvEPK10MethodInfoPvPS4_
BC:__ZN11UnityEngine15CloudWebService14DataDispatcherD0Ev
Qoa:__ZN4crnd12crn_unpacker12unpack_levelEPKvjPPvjjj
Rwd:_PKCS1_I2OSP_m647014786
Id:_glFramebufferTextureLayer
HAa:__Z37PrimeTypesWithNoReferencesLookupCachev
gxe:_InternalEnumerator_1_System_Collections_IEnumerator_get_Current_m2458630467_AdjustorThunk
YH:_tlsf_realloc_align
fba:__ZN21RendererUpdateManager9UpdateAllER13RendererScene
Cqa:__ZNK13TranslateGLES26GetTextureSamplerDimensionEj
MSc:_DateTime__ctor_m2586249130_AdjustorThunk
a4:__ZNSt3__26__treeINS_12__value_typeIN9ShaderLab16FastPropertyNameE10ColorRGBAfEENS_19__map_value_compareIS3_S5_NS_4lessIS3_EELb1EEENS_9allocatorIS5_EEE7destroyEPNS_11__tree_nodeIS5_PvEE
g_f:__ZL72FormerlySerializedAsAttribute_t3673080018_CustomAttributesCacheGeneratorP21CustomAttributesCache
I3g:__ZNSt3__212basic_stringIcNS_11char_traitsIcEENS_9allocatorIcEEE6__initEPKcjj
_9:__ZN27GenericSlowGarbageCollector18GenerateInstanceIDEi17TransferMetaFlags
s0e:__Z96RuntimeInvoker_Void_t1841601450_Int32_t2071877448_Single_t2076509932_RuntimeObject_RuntimeObjectPFvvEPK10MethodInfoPvPS4_
HTe:_Context_get_HasExitSinks_m1233814330
IFa:__ZN9Coroutine14InvokeMoveNextEP21ScriptingExceptionPtr
xg:_glFenceSync
FDe:_Dictionary_2_U3CCopyToU3Em__0_m2108533866_gshared
bSc:_Convert_ToUInt32_m1336475941
WJc:_CaseInsensitiveHashCodeProvider_GetHashCode_m3726312478
Cue:_InternalEnumerator_1_System_Collections_IEnumerator_get_Current_m2315179333_AdjustorThunk
UEa:__ZN14SharedMeshDataC2ERKS_
XPa:__ZN13RendererScene11AddRendererEP8Renderer
Rua:__ZN19ConstantBuffersGLES5ClearEv
L0c:_NumberFormatter_IntegerToString_m2688981059
EOe:_Array_InternalArray__get_Item_TisSlot_t2267560602_m1004716430_gshared
Bcg:_EqualityComparer_1_System_Collections_IEqualityComparer_GetHashCode_m2973423115_gshared
sbc:__Z10StartDonutILN11ShapeModule14MultiModeValueE0EEvRS0_R23ParticleSystemParticlesRK19ParticleSystemStateRK27ParticleSystemEmissionStateRKN4math8float3x3ERKNSB_8float4x4Ejbj
hEd:_RecordProtocol_ProcessCipherSpecV2Buffer_m1895848015
gua:__ZN18GlslGpuProgramGLES6CreateE20ShaderGpuProgramTypeRK13dynamic_arrayIhLj1EER17ShaderChannelMask
jQc:_Convert_ToDouble_m2956884076
Gs:__ZNK11AudioSource19GetFilterComponentsERNSt3__26vectorIPN4FMOD3DSPENS0_9allocatorIS4_EEEEb
U6b:__ZN14ParticleSystem4PlayEb
r2a:__ZN16GraphicsSettings8TransferI24GenerateTypeTreeTransferEEvRT_
ugc:__ZN18PhysxJobDispatcher10submitTaskERN5physx10PxBaseTaskE
vMe:_Array_InternalArray__Insert_TisUInt16_t986882611_m2263078_gshared
w7b:__ZN14EmissionModule16EmitOverDistanceER27ParticleSystemEmissionStateRK26ParticleSystemEmissionDataRK8Vector3fffff
sna:__ZN15dense_hashtableINSt3__24pairIK9TextureIDiEES2_N12TextureIdMap20TextureIDHashFunctorEN14dense_hash_mapIS2_iS6_NS0_8equal_toIS2_EE13stl_allocatorIS4_L18MemLabelIdentifier65ELi16EEE9SelectKeyES9_SC_E12resize_deltaEjj
YVg:_GC_reclaim_generic
xGc:_Char_Equals_m1374454116_AdjustorThunk
m1c:_NumberFormatter_DecHexLen_m572249244
Yed:_UnexceptionalStreamWriter_Write_m2677287588
vTb:__Z41Register_UnityEngine_Input_GetMouseButtonv
xcb:__ZN15SerializeTraitsI10BlendShapeE8TransferI14SafeBinaryReadEEvRS0_RT_
Srd:_X501_ToString_m388469888
Vb:_emscripten_glGetTexParameterfv
eG:__ZN11UnityEngine15CloudWebService19SessionEventManager37OnTimerExpiredPerformArchiveJobStaticEPv
lYb:__ZN9JSONWrite8TransferIdEEvRT_PKc17TransferMetaFlags
sma:__ZN7ApiGLES17CreateVertexArrayEv
uzb:__ZN16ScriptingManagerD0Ev
Y7b:__Z9UpdateTplIL27ParticleSystemCurveEvalMode2EEvRK11MinMaxCurveR23ParticleSystemParticlesjjj
sBg:__ZN30dense_hashtable_const_iteratorINSt3__24pairIK10KeyWrapperIPK14Il2CppAssemblyEPK22Il2CppMonoAssemblyNameEES6_N6il2cpp5utils11PointerHashIS4_EEN14dense_hash_mapIS6_SA_SF_NS6_14EqualsComparerINS0_8equal_toIS5_EEEENS0_9allocatorISB_EEE9SelectKeyESK_SM_EppEv
gYd:_StreamingContext__ctor_m3756336578_AdjustorThunk
sGe:_Array_InternalArray__ICollection_Contains_TisDateTime_t693205669_m2893922191_gshared
QBd:_Context_get_Current_m2717045324
wQc:_Convert_ToDouble_m3954429733
fLa:__Z26SetupLightShaderPropertiesRK15SharedLightDatafR17ShaderPassContextRK10TextureRefS6_S6_
b2b:__ZN14ParticleSystemD0Ev
Qfc:__ZL32TransformParticleMeshAnimatedUVsILb0EEvRK16ParticleMeshDataiRK22ParticleSystemTempDataRK31ParticleSystemParticlesTempData11ColorRGBA32RK26ParticleSystemRendererDataRK21ParticleSystemModulesRK10Matrix4x4fRK10Matrix3x3fRK8Vector3fRK23ParticleSystemParticlesjPPhPPf
Frf:_Camera_FireOnPreCull_m1679634170
i3a:__ZN14RenderSettings16CheckConsistencyEv
uhf:_Regex_IsMatch_m1286520424
aDg:__ZN6il2cpp2vm10Reflection12HasAttributeEP9FieldInfoP11Il2CppClass
np:__ZN14SafeBinaryRead8TransferIcEEvRT_PKc17TransferMetaFlags
UMg:__GLOBAL__sub_I_Socket_cpp
$Vc:_Decimal_GetBits_m3520401316
XZb:__ZL26Transfer_SimpleNativeClassI8JSONRead10RectOffsetLb0EEvRK29SerializationCommandArgumentsR31RuntimeSerializationCommandInfo
gw:__ZN5audio5mixer17AssignOutputGroupERKNS0_18AudioMixerConstantERKNS0_16AudioMixerMemoryEPN4FMOD12ChannelGroupE
Itg:_il2cpp_field_has_attribute
LAe:_Enumerator_System_Collections_IDictionaryEnumerator_get_Key_m467957770_AdjustorThunk
Sog:__ZN15dense_hashtableINSt3__24pairIK10KeyWrapperIPK19Il2CppGenericMethodEPK26Il2CppGenericMethodIndicesEES6_N6il2cpp8metadata23Il2CppGenericMethodHashEN14dense_hash_mapIS6_SA_SE_NS6_14EqualsComparerINSD_26Il2CppGenericMethodCompareEEENS0_9allocatorISB_EEE9SelectKeyESI_SK_E3endEv
Zme:_UInt64_System_IConvertible_ToInt32_m930227577
vwd:_MD4Managed_MD4Transform_m2648331494
iD:__ZN11UnityEngine15CloudWebService14DataErrorEvent12ToJsonStringERN4core12basic_stringIcNS2_20StringStorageDefaultIcEEEEjPKc
G4c:_GuidParser_AtEnd_m2677290225
D6a:__ZN9TextureOpI17SharedTextureDataE15ExtractMipLevelEPS0_S2_iibb
ocb:__ZN14SafeBinaryRead21TransferSTLStyleArrayI13dynamic_arrayI16BlendShapeVertexLj4EEEEvRT_17TransferMetaFlags
blf:_GeneralNames_get_IPAddresses_m1712556836
E8g:_glScissor__wrapper
B3b:__ZN11MinMaxCurve8TransferI14SafeBinaryReadEEvRT_
z6c:_Int32_CompareTo_m3808534558
Fua:__ZN9GfxDevice26UpdateViewProjectionMatrixEv
T3e:__Z251RuntimeInvoker_Int32_t2071877448_RuntimeObject_Int32_t2071877448_Int32_t2071877448_RuntimeObject_Int32_t2071877448_UInt32U26_t2197289955_UInt32U26_t2197289955_RuntimeObject_DecoderFallbackBufferU26_t3597875002_ByteU5BU5DU26_t790777611_SByte_t454417549PFvvEPK10MethodInfoPvPS4_
Hbh:_emscripten_glBlendColor__wrapper
Wkf:_ExtendedKeyUsageExtension_Encode_m3429751649
UU:__ZN14dense_hash_mapIiP4RTTIN11TypeManager27HashFunctorPersistentTypeIDENSt3__28equal_toIiEE13stl_allocatorINS4_4pairIKiS1_EEL18MemLabelIdentifier6ELi16EEEixERS9_
Wna:__ZN12_GLOBAL__N_119AttachToFramebufferER7ApiGLESRK20GfxRenderTargetSetupP17RenderSurfaceGLESjP11GLESTexturejb
YP:__ZN18AwakeFromLoadQueueC2E18MemLabelIdentifier
iLd:_Oid__ctor_m3386806634
Q:Math_log
A7c:_Int64_Parse_m3031608982
BYc:_Double_CompareTo_m3968040230
vUd:_RemotingProxy_Finalize_m1579141785
lSa:__Z39scripting_class_from_systemtypeinstance28ScriptingSystemTypeObjectPtr
BGe:_Array_InternalArray__ICollection_Contains_TisCustomAttributeTypedArgument_t1498197914_m1722418503_gshared
Lhf:_AnchorInfo__ctor_m617409099
ZVb:__ZN8JSONReadC2EPKc24TransferInstructionFlags18MemLabelIdentifierbPN4core12basic_stringIcNS4_20StringStorageDefaultIcEEEEi
VXc:_Double_System_IConvertible_ToType_m4036266196
BOe:_Array_InternalArray__get_Item_TisKeyValuePair_2_t38854645_m2422121821_gshared
vec:__Z9UpdateTplIL22MinMaxGradientEvalMode2EL12GradientMode0ELS1_0EEvRK23ParticleSystemParticlesP11ColorRGBA32RK14MinMaxGradientRK23OptimizedMinMaxGradient
q6f:_ReadOnlyCollection_1_System_Collections_IEnumerable_GetEnumerator_m2739298075_gshared
HFa:__ZN14AsyncOperation20SetCoroutineCallbackEPF15CallObjectStateP6ObjectPvES2_S3_PFS0_S3_E
fzg:__ZNK15dense_hashtableINSt3__24pairIK10KeyWrapperINS1_IPK11Il2CppImageP11Il2CppClassEEEjEES9_17ReflectionMapHashIS8_EN14dense_hash_mapIS9_jSD_NS9_14EqualsComparerINS0_8equal_toIS8_EEEENS0_9allocatorISB_EEE9SelectKeyESI_SK_E3endEv
c_b:__Z35Transfer_Blittable_FixedBufferFieldI8JSONReadjEvRK29SerializationCommandArgumentsR31RuntimeSerializationCommandInfo
Pxa:__ZNK12IFileAdapter8PositionERK13FileEntryData
vTg:__ZN6il2cpp6icalls8mscorlib6System10Reflection6Module16InternalGetTypesEP22Il2CppReflectionModule
HSc:_DateTime_get_Year_m1985210972
V6b:__ZN14ParticleSystem12AddToManagerEv
Tdc:__ZThn32_N22ParticleSystemRenderer21RendererBecameVisibleEv
yTe:_DynamicPropertyCollection__ctor_m1159577654
tm:FUNCTION_TABLE_viiifi
dig:__ZN30dense_hashtable_const_iteratorINSt3__24pairIK10KeyWrapperIPK22Il2CppGenericParameterEP11Il2CppClassEES6_N6il2cpp5utils11PointerHashIS4_EEN14dense_hash_mapIS6_S9_SE_NS6_14EqualsComparerINS0_8equal_toIS5_EEEENS0_9allocatorISA_EEE9SelectKeyESJ_SL_EppEv
kse:_InternalEnumerator_1_get_Current_m2345377791_AdjustorThunk
xXg:_GC_set_on_event
fXc:_Delegate_GetInvocationList_m3706058733
fHd:_HybridDictionary__ctor_m884012539
odc:__Z35ParticleSystemRenderer_RenderMeshesIL21SpriteMaskInteraction1EEvRK15RenderNodeQueuej17ShaderChannelMaski
scc:__ZN14ParticleSystem15ThreadedCleanupEv
pSb:__Z40Camera_CUSTOM_INTERNAL_CALL_RaycastTry2DP12Il2CppObjectRK3Rayfi
fSd:_MonoMethodMessage_get_OutArgCount_m1571045627
OKb:__Z18NotifyGOMovedSceneR10GameObject
Hig:__ZN6il2cpp2vmL17SetupEventsLockedEP11Il2CppClassRKNS_2os12FastAutoLockE
x6g:dynCall_ii
c4g:__ZSt9terminatev
B7f:_U3CCreateWhereIteratorU3Ec__Iterator1D_1_MoveNext_m3533253043_gshared
kp:__Z14resize_trimmedINSt3__26vectorIN4core12basic_stringIcNS2_20StringStorageDefaultIcEEEENS0_9allocatorIS6_EEEEEvRT_j
Mef:_Match__ctor_m920678511
wkb:__ZL29CanTransferTypeAsNestedObject17ScriptingClassPtr
Sme:_UInt64_System_IConvertible_ToDateTime_m2412118561_AdjustorThunk
hr:__ZNK14SoundHandleAPI12GetLoadStateEv
Umc:__ZN13RuntimeStaticINSt3__26vectorIN5physx25PxVehicleWheelQueryResultENS0_9allocatorIS3_EEEELb0EE13StaticDestroyEPv
mnd:_BlockProcessor_Finalize_m379027478
BTb:__ZNSt3__227__insertion_sort_incompleteIRNS_6__lessI11KeyframeTplIfES3_EEPS3_EEbT0_S7_T_
glf:_KeyUsageExtension_Support_m2720178361
_0g:_fstat
gMb:__ZN13RenderManager12CleanupClassEv
zXg:__ZN6il2cpp6icalls8mscorlib6System2GC16SuppressFinalizeEP12Il2CppObject
EOg:__ZN6il2cpp6icalls8mscorlib6System6String13InternalSplitEP12Il2CppStringP11Il2CppArrayii
Xcb:__ZN10Matrix4x4f8TransferI19StreamedBinaryWriteILb0EEEEvRT_
xCa:__ZN19ShaderPropertySheet24SetTextureScaleAndOffsetERK23FastTexturePropertyName8Vector2fS3_
Nvf:_MonoBehaviour_StartCoroutine_m1399371129
hdc:__ZNK29ParticleSystemPropertyBinding13SetFloatValueERKN11UnityEngine9Animation10BoundCurveEf
B1g:_write
_Ib:__ZN14SpriteRenderer12CleanupClassEv
M8g:_glDrawArraysInstanced__wrapper
Vcc:__ZN11NoiseModuleD0Ev
Ljg:__ZN6il2cpp2vm5Class10IsAbstractEPK11Il2CppClass
pWc:_DivideByZeroException__ctor_m280382972
cI:__Z17DebugStringToFilePKciS0_i15LogMessageFlagsiiPFvRK11CppLogEntryE
qsb:__Z19TransferField_ArrayI24GenerateTypeTreeTransfer27Converter_SimpleNativeClassI8GUIStyleEEvRK23StaticTransferFieldInfoR31RuntimeSerializationCommandInfoRT0_
LEa:__Z12FormatStringPKcz
cLc:_Hashtable__ctor_m622168569
dWe:_MethodCall_get_LogicalCallContext_m3769562079
ROg:__ZN6il2cpp2os6Thread2IdEv
Re:_glStencilOpSeparate
Se:_JS_WebRequest_Abort
$_g:__ZN6il2cpp8metadata24Il2CppGenericContextHash4HashEPK20Il2CppGenericContext
j0:__Z15IsFloatRTFormat19RenderTextureFormat
Shg:__ZN15dense_hashtableINSt3__24pairIK10KeyWrapperIPK22Il2CppGenericParameterEP11Il2CppClassEES6_N6il2cpp5utils11PointerHashIS4_EEN14dense_hash_mapIS6_S9_SE_NS6_14EqualsComparerINS0_8equal_toIS5_EEEENS0_9allocatorISA_EEE9SelectKeyESJ_SL_E15set_deleted_keyERKSA_
xia:__ZN9GfxDevice28ScheduleGeometryJobsInternalEPFvP15GeometryJobDataEPK22GeometryJobInstructionj
cRa:__ZN9Transform11SetRotationERK11Quaternionf
Yqc:_SHA256_Create_m3464364143
G$b:__ZN8JSONRead21TransferSTLStyleArrayI13dynamic_arrayI11QuaternionfLj4EEEEvRT_18MemLabelIdentifier17TransferMetaFlags
vea:__ZN10UnityScene24ExtractLevelGameManagersER18AwakeFromLoadQueue
PSa:__ZN17RemapPPtrTransfer8TransferI13dynamic_arrayIN10GameObject13ComponentPairELj4EEEEvRT_PKc17TransferMetaFlags
qyc:_String_Join_m1966872927
pB:__Z58AudioPlayableOutput_CUSTOM_INTERNAL_CALL_InternalGetTargetR15HPlayableOutput
dG:__ZN11UnityEngine15CloudWebService16SessionContainer18GetIndexFromDataIdEy
Tjf:_Uri_GetDefaultPort_m2114319579
q7g:b18
xMd:_X509Certificate2_get_NotAfter_m3430171627
VTc:_DateTime_CompareTo_m3372173896_AdjustorThunk
vch:_emscripten_glGetVertexAttribPointerv__wrapper
seh:_emscripten_glIsEnabled__wrapper
nrd:_X509CertificateEnumerator_get_Current_m2595382139
kLe:_Array_InternalArray__ICollection_CopyTo_TisDateTime_t693205669_m939833053_gshared
Xe:_emscripten_glStencilMask
Y$:__ZNK13RenderTexture10GetVRUsageEv
zCg:__ZN15dense_hashtableINSt3__24pairIK10KeyWrapperINS1_IPK9EventInfoP11Il2CppClassEEEjEES9_17ReflectionMapHashIS8_EN14dense_hash_mapIS9_jSD_NS9_14EqualsComparerINS0_8equal_toIS8_EEEENS0_9allocatorISB_EEE9SelectKeyESI_SK_E14squash_deletedEv
BHg:__ZN6il2cpp6icalls8mscorlib6System4Type11IsArrayImplEP20Il2CppReflectionType
GKg:__ZN15dense_hashtableINSt3__24pairIK10KeyWrapperINS1_IPKcS4_EEEiEES6_24NamespaceAndNamePairHashN14dense_hash_mapIS6_iS9_NS6_14EqualsComparerI26NamespaceAndNamePairEqualsEENS0_9allocatorIS8_EEE9SelectKeyESD_SF_E13set_empty_keyERKS8_
Cq:__Z35InverseTransformPositionAndRotationRK23TransformAccessReadOnlyRKN4math7_float3ERKNS2_7_float4E
Wzg:__ZN6il2cpp2gc19AppendOnlyGCHashMapINSt3__24pairIPK9EventInfoP11Il2CppClassEEP21Il2CppReflectionEvent17ReflectionMapHashIS9_ENS2_8equal_toIS9_EEE11TryGetValueERKS9_PSB_
Xhe:_WaitHandle__cctor_m2138880789
uTd:_SerializationInfoEnumerator_get_Name_m2042884068
anc:__ZL24StaticInitializeIUnityVRPv
KOb:__Z15WriteLineVertexILb1EEvRPhRKN4math8float4x4ERKNS2_7_float3ERK11ColorRGBA32RKffRKNS2_7_float2E
xoa:__ZN18AsyncUploadManager22WaitForActiveAsyncReadEv
UFb:__ZN6prcoreL11inner_clearILj1EEEvPhjjj
Qf:_JS_SystemInfo_HasWebGL
znd:_ArgumentException__ctor_m3739475201
Alc:__ZNK12StatusHelper10IsCompleteEv
VQa:__ZL10RenderFaceR9GfxDeviceR18MaterialStateCacheP13RenderTextureiif
zic:__ZN11UnityEngine15PlatformWrapper13IsDebugDeviceEv
$ed:_UnmanagedMemoryStream_get_CanWrite_m358485232
Yff:_PatternLinkStack_GetOffset_m2889934101
Zpg:__ZN6il2cpp2vm21ThreadPoolCompartment13QueueWorkItemEP17Il2CppAsyncResult
cwf:_PlayerConnection_get_instance_m3885313185
ipa:__Z19ScheduleJobInternalR8JobFencePFvPvES1_11JobPriority
vkf:_Uri_Equals_m3973746240
ive:_InternalEnumerator_1_get_Current_m3296972783_AdjustorThunk
peb:__ZN14SpriteRendererD0Ev
Gw:__ZN4FMOD12ChannelGroup14getNumChannelsEPi
beg:_UnityAction_1_Invoke_m1279804060_gshared
h5:__ZNSt3__26__sortIRPFbRKNS_4pairIN9ShaderLab16FastPropertyNameE10ColorRGBAfEES7_EPS5_EEvT0_SC_T_
zSf:__ZL126ServicePointManager_t745663000_CustomAttributesCacheGenerator_ServicePointManager_t745663000____CertificatePolicy_PropertyInfoP21CustomAttributesCache
p9a:__ZN15QualitySettings14QualitySetting8TransferI18StreamedBinaryReadILb0EEEEvRT_
Nsb:__Z29Transfer_Blittable_ArrayFieldI24GenerateTypeTreeTransfersEvRT_R9ArrayInfoRK23StaticTransferFieldInfo
epc:_RIPEMD160Managed__ctor_m2544156846
ypa:__Z19GetColorBlockColorsPK11DXTColBlockP9Color8888
gue:_InternalEnumerator_1_System_Collections_IEnumerator_get_Current_m94051553_gshared
Jg:_glDeleteProgram
yGc:_Char_CompareTo_m3169412556_AdjustorThunk
G1d:_Default_check_arguments_with_score_m1714931543
ANd:_X509SubjectKeyIdentifierExtension_get_SubjectKeyIdentifier_m1477640894
Yqd:_DeriveBytes_set_Salt_m4154827108
j_c:_Exception_get_Message_m173095527
Sg:_glCreateShader
swd:_MD4Managed__ctor_m796835377
VOe:_Array_InternalArray__get_Item_TisTypeTag_t141209596_m1747911007_gshared
fTg:__ZNK6il2cpp5utils13VmStringUtils23CaseInsensitiveComparerclERKNSt3__212basic_stringIcNS3_11char_traitsIcEENS3_9allocatorIcEEEEPKc
HYe:__Z74RuntimeInvoker_RuntimeObject_RuntimeObject_RuntimeObject_Int32_t2071877448PFvvEPK10MethodInfoPvPS4_
j_b:__ZL17Transfer_GUIStyleI8JSONReadLb0EEvRK29SerializationCommandArgumentsR31RuntimeSerializationCommandInfo
d4f:_Collection_1_Contains_m2116635914_gshared
dqg:__ZN6il2cpp2vmL22WorkerThreadEntryPointEPv
FVc:_Decimal_System_IConvertible_ToChar_m2425091200_AdjustorThunk
Jef:__Z92RuntimeInvoker_RuntimeObject_Scene_t1684909666_Scene_t1684909666_RuntimeObject_RuntimeObjectPFvvEPK10MethodInfoPvPS4_
xfe:_UTF8Encoding_GetBytes_m4170182058
yfd:_MemberAccessException__ctor_m111743236
lOa:__Z19CreateCullingOutputPK16RendererCullDataR13CullingOutput
ta:invoke_vdddddd
XRc:_Convert_ToUInt16_m1058302913
KIc:_ReadOnlyArrayListWrapper_Sort_m2056228524
Shb:__ZNSt3__26vectorI4PPtrI6ObjectE13stl_allocatorIS3_L18MemLabelIdentifier51ELi16EEE6assignIPS3_EENS_9enable_ifIXaasr21__is_forward_iteratorIT_EE5valuesr16is_constructibleIS3_NS_15iterator_traitsISB_E9referenceEEE5valueEvE4typeESB_SB_
x_g:__ZN6il2cpp2vm14MetadataLoader16LoadMetadataFileEPKc
YDc:_Boolean_System_IConvertible_ToSByte_m1114429589_AdjustorThunk
VDg:__ZNK15dense_hashtableINSt3__24pairIK10KeyWrapperIP11Il2CppClassES4_EES5_N6il2cpp8metadata16SZArrayClassHashEN14dense_hash_mapIS5_S4_SA_NS5_14EqualsComparerINS9_19SZArrayClassCompareEEENS0_9allocatorIS7_EEE9SelectKeyESE_SG_E5beginEv
AWg:_GC_build_fl
e2f:_List_1_System_Collections_IList_Add_m2159243884_gshared
wha:__ZN13GfxDeviceGLES19RenderTargetBarrierEv
Ih:_glGetString
_mc:__GLOBAL__sub_I_runtime_vr_lump_cpp
Nh:emscriptenWebGLGetTexPixelData
VQb:__ZN9Scripting17FindObjectsOfTypeE28ScriptingSystemTypeObjectPtrNS_8FindModeE
GTe:_Context_get_HasDynamicSinks_m1998518649
A$e:__Z172RuntimeInvoker_Int32_t2071877448_RuntimeObject_Int32_t2071877448_Int32_t2071877448_RuntimeObject_Int16_t4041245914_Int32_t2071877448_SByte_t454417549_ContextU26_t3131521781PFvvEPK10MethodInfoPvPS4_
Rp:__ZN15SerializeTraitsI11KeyframeTplIfEE8TransferI14SafeBinaryReadEEvRS1_RT_
uhd:_MonoType_get_Module_m3769241394
yIa:__ZN10RenderLoop12PrepareFrameEbb
fRe:_SafeHandle_Close_m1146946803
Axg:__ZN15dense_hashtableINSt3__24pairIK10KeyWrapperIPK10Il2CppTypeEjEES6_N6il2cpp8metadata14Il2CppTypeHashEN14dense_hash_mapIS6_jSB_NS6_14EqualsComparerINSA_26Il2CppTypeEqualityComparerEEENS0_9allocatorIS8_EEE9SelectKeyESF_SH_E4findERS7_
_md:_BitConverterLE_GetUIntBytes_m3774691861
Gqb:__Z26Transfer_UnityEngineObjectI17RemapPPtrTransferLb1EEvRK29SerializationCommandArgumentsR31RuntimeSerializationCommandInfo
Dla:__ZN13GfxDeviceGLES20SetShadersThreadableEPP10GpuProgramPPK20GpuProgramParametersPKPKh
QI:__ZN13RuntimeStaticI14CallbackArray1IbELb0EE16StaticInitializeEPv
cbc:__Z9StartConeILN11ShapeModule14MultiModeValueE2EEvRS0_R23ParticleSystemParticlesRK19ParticleSystemStateRK27ParticleSystemEmissionStateRKN4math8float3x3ERKNSB_8float4x4Ejbj
Mga:__ZN22VertexDeclarationCacheD2Ev
wae:_MonoProperty_get_ReflectedType_m903353661
Nl:_getenv
PQd:_InterpreterFactory_NewInstance_m1241029724
LOd:_X509ChainElementEnumerator_System_Collections_IEnumerator_get_Current_m40744670
zga:__Z19CreateGLESGfxDevice17GfxDeviceRenderer
Zae:_ParameterInfo_get_IsRetval_m1881464570
zeg:_UnityAction_3_Invoke_m1498227613_gshared
Oyb:__Z19TransferField_ArrayI18StreamedBinaryReadILb0EE27Converter_SimpleNativeClassI8GradientEEvRK23StaticTransferFieldInfoR31RuntimeSerializationCommandInfoRT0_
DYg:__ZN6il2cpp2vm14MetadataCallocEjj
Qte:_InternalEnumerator_1_System_Collections_IEnumerator_get_Current_m2545039741_AdjustorThunk
Mfb:__ZNSt3__26vectorI9InputAxisNS_9allocatorIS1_EEE21__push_back_slow_pathIKS1_EEvRT_
$le:_UInt32_System_IConvertible_ToDecimal_m404692252_AdjustorThunk
Rma:__ZN4gles14UseGLSLProgramER15DeviceStateGLESjbij
Kt:__ZN4FMOD3DSP12getNumInputsEPi
_Ng:__ZN6il2cpp2vm10StackTrace34CleanupStackTracesForCurrentThreadEv
IKe:_Array_InternalArray__ICollection_Add_TisParameterModifier_t1820634920_m2029930691_gshared
abc:__Z9StartConeILN11ShapeModule14MultiModeValueE0EEvRS0_R23ParticleSystemParticlesRK19ParticleSystemStateRK27ParticleSystemEmissionStateRKN4math8float3x3ERKNSB_8float4x4Ejbj
uWe:_MethodDictionary_get_Count_m3214848709
UIg:__ZN15dense_hashtableINSt3__24pairIK10KeyWrapperIP14Il2CppIUnknownEjEES5_N6il2cpp5utils11PointerHashIS3_EEN14dense_hash_mapIS5_jSB_NS5_14EqualsComparerINS0_8equal_toIS4_EEEENS0_9allocatorIS7_EEE9SelectKeyESG_SI_E9copy_fromERKSL_j
Fx:__ZN17AudioClipPlayable27OnEffectivePlaystateChangedE9PlayState
_ue:_InternalEnumerator_1_get_Current_m2468740214_AdjustorThunk
Oi:_emscripten_get_pointerlock_status
Fbg:_SymmetricTransform_Transform_m2796657329
Ich:_emscripten_glGetObjectParameterivARB__wrapper
kye:_InternalEnumerator_1_System_Collections_IEnumerator_get_Current_m419967545_gshared
Xsc:_X509Certificate_Equals_m4141136939
Nyc:_StringComparer_get_InvariantCultureIgnoreCase_m1052445386
K2f:_List_1_set_Item_m1062416045_gshared
Ejb:__ZN13MonoBehaviour23VirtualRedirectTransferER19StreamedBinaryWriteILb0EE
jtb:__Z18Transfer_BlittableI19StreamedBinaryWriteILb0EELb0E8Vector2fEvRK29SerializationCommandArgumentsR31RuntimeSerializationCommandInfo
k8e:__Z105RuntimeInvoker_Boolean_t3825574718_Int32_t2071877448_Int32_t2071877448_SByte_t454417549_Int32_t2071877448PFvvEPK10MethodInfoPvPS4_
Fog:__ZN6il2cpp2vm13MetadataCache26GetWindowsRuntimeClassNameEPK11Il2CppClass
Lpf:_AudioClipPlayable_SetLoopedInternal_m1857932318
mF:__ZN19CloudServiceHandler10InitializeERKN4core12basic_stringIcNS0_20StringStorageDefaultIcEEEENS_13InitModeFlagsE
FZf:__ZL64DefaultValueAttribute_t1027170048_CustomAttributesCacheGeneratorP21CustomAttributesCache
C_b:__ZN13GUIStyleState8TransferI8JSONReadEEvRT_
b3:__ZNSt3__26vectorIN20GpuProgramParameters14ConstantBufferENS_9allocatorIS2_EEE6assignIPS2_EENS_9enable_ifIXaasr21__is_forward_iteratorIT_EE5valuesr16is_constructibleIS2_NS_15iterator_traitsIS9_E9referenceEEE5valueEvE4typeES9_S9_
V8a:__ZN15QualitySettings16CheckConsistencyEv
Hib:__ZN30RuntimeInitializeOnLoadManager23VirtualRedirectTransferER14SafeBinaryRead
i9:__ZN23PreloadManagerOperation11GetProgressEv
fJc:_SynchronizedArrayListWrapper_Remove_m2227080756
